Archive member included to satisfy reference by file (symbol)

/opt/toolchain/bin/../lib/gcc/arm-none-eabi/13.3.1/thumb/v6-m/nofp/libgcc.a(_thumb1_case_sqi.o)
                              CMakeFiles/n7six.ApeX-k1.v7.6.5.dir/App/app/menu.c.obj (__gnu_thumb1_case_sqi)
/opt/toolchain/bin/../lib/gcc/arm-none-eabi/13.3.1/thumb/v6-m/nofp/libgcc.a(_thumb1_case_uqi.o)
                              CMakeFiles/n7six.ApeX-k1.v7.6.5.dir/Drivers/PY32F071_HAL_Driver/Src/py32f071_ll_dma.c.obj (__gnu_thumb1_case_uqi)
/opt/toolchain/bin/../lib/gcc/arm-none-eabi/13.3.1/thumb/v6-m/nofp/libgcc.a(_thumb1_case_shi.o)
                              CMakeFiles/n7six.ApeX-k1.v7.6.5.dir/App/app/main.c.obj (__gnu_thumb1_case_shi)
/opt/toolchain/bin/../lib/gcc/arm-none-eabi/13.3.1/thumb/v6-m/nofp/libgcc.a(_thumb1_case_uhi.o)
                              CMakeFiles/n7six.ApeX-k1.v7.6.5.dir/App/app/main.c.obj (__gnu_thumb1_case_uhi)
/opt/toolchain/bin/../lib/gcc/arm-none-eabi/13.3.1/thumb/v6-m/nofp/libgcc.a(_udivsi3.o)
                              CMakeFiles/n7six.ApeX-k1.v7.6.5.dir/Drivers/PY32F071_HAL_Driver/Src/py32f071_ll_rcc.c.obj (__aeabi_uidiv)
/opt/toolchain/bin/../lib/gcc/arm-none-eabi/13.3.1/thumb/v6-m/nofp/libgcc.a(_divsi3.o)
                              CMakeFiles/n7six.ApeX-k1.v7.6.5.dir/Drivers/PY32F071_HAL_Driver/Src/py32f071_ll_i2c.c.obj (__aeabi_idiv)
/opt/toolchain/bin/../lib/gcc/arm-none-eabi/13.3.1/thumb/v6-m/nofp/libgcc.a(_dvmd_tls.o)
                              /opt/toolchain/bin/../lib/gcc/arm-none-eabi/13.3.1/thumb/v6-m/nofp/libgcc.a(_udivsi3.o) (__aeabi_idiv0)
/opt/toolchain/bin/../lib/gcc/arm-none-eabi/13.3.1/thumb/v6-m/nofp/libgcc.a(_clzsi2.o)
                              CMakeFiles/n7six.ApeX-k1.v7.6.5.dir/App/board.c.obj (__clzsi2)
/opt/toolchain/bin/../lib/gcc/arm-none-eabi/13.3.1/thumb/v6-m/nofp/libgcc.a(_muldi3.o)
                              CMakeFiles/n7six.ApeX-k1.v7.6.5.dir/App/app/spectrum.c.obj (__aeabi_lmul)
/opt/toolchain/bin/../lib/gcc/arm-none-eabi/13.3.1/../../../../arm-none-eabi/lib/thumb/v6-m/nofp/libg_nano.a(libc_a-exit.o)
                              /opt/toolchain/bin/../lib/gcc/arm-none-eabi/13.3.1/../../../../arm-none-eabi/lib/thumb/v6-m/nofp/crt0.o (exit)
/opt/toolchain/bin/../lib/gcc/arm-none-eabi/13.3.1/../../../../arm-none-eabi/lib/thumb/v6-m/nofp/libg_nano.a(libc_a-init.o)
                              /opt/toolchain/bin/../lib/gcc/arm-none-eabi/13.3.1/../../../../arm-none-eabi/lib/thumb/v6-m/nofp/crt0.o (__libc_init_array)
/opt/toolchain/bin/../lib/gcc/arm-none-eabi/13.3.1/../../../../arm-none-eabi/lib/thumb/v6-m/nofp/libg_nano.a(libc_a-memmove.o)
                              CMakeFiles/n7six.ApeX-k1.v7.6.5.dir/App/app/app.c.obj (memmove)
/opt/toolchain/bin/../lib/gcc/arm-none-eabi/13.3.1/../../../../arm-none-eabi/lib/thumb/v6-m/nofp/libg_nano.a(libc_a-memset.o)
                              /opt/toolchain/bin/../lib/gcc/arm-none-eabi/13.3.1/../../../../arm-none-eabi/lib/thumb/v6-m/nofp/crt0.o (memset)
/opt/toolchain/bin/../lib/gcc/arm-none-eabi/13.3.1/../../../../arm-none-eabi/lib/thumb/v6-m/nofp/libg_nano.a(libc_a-strcpy.o)
                              CMakeFiles/n7six.ApeX-k1.v7.6.5.dir/App/settings.c.obj (strcpy)
/opt/toolchain/bin/../lib/gcc/arm-none-eabi/13.3.1/../../../../arm-none-eabi/lib/thumb/v6-m/nofp/libg_nano.a(libc_a-memcpy-stub.o)
                              CMakeFiles/n7six.ApeX-k1.v7.6.5.dir/App/driver/bk4829.c.obj (memcpy)
/opt/toolchain/bin/../lib/gcc/arm-none-eabi/13.3.1/../../../../arm-none-eabi/lib/thumb/v6-m/nofp/libg_nano.a(libc_a-strlen.o)
                              CMakeFiles/n7six.ApeX-k1.v7.6.5.dir/App/app/app.c.obj (strlen)
/opt/toolchain/bin/../lib/gcc/arm-none-eabi/13.3.1/../../../../arm-none-eabi/lib/thumb/v6-m/nofp/libg_nano.a(libc_a-findfp.o)
                              /opt/toolchain/bin/../lib/gcc/arm-none-eabi/13.3.1/../../../../arm-none-eabi/lib/thumb/v6-m/nofp/libg_nano.a(libc_a-exit.o) (__stdio_exit_handler)
/opt/toolchain/bin/../lib/gcc/arm-none-eabi/13.3.1/../../../../arm-none-eabi/lib/thumb/v6-m/nofp/libg_nano.a(libc_a-strncpy.o)
                              CMakeFiles/n7six.ApeX-k1.v7.6.5.dir/App/app/generic.c.obj (strncpy)
/opt/toolchain/bin/../lib/gcc/arm-none-eabi/13.3.1/../../../../arm-none-eabi/lib/thumb/v6-m/nofp/libg_nano.a(libc_a-stdio.o)
                              /opt/toolchain/bin/../lib/gcc/arm-none-eabi/13.3.1/../../../../arm-none-eabi/lib/thumb/v6-m/nofp/libg_nano.a(libc_a-findfp.o) (__sread)
/opt/toolchain/bin/../lib/gcc/arm-none-eabi/13.3.1/../../../../arm-none-eabi/lib/thumb/v6-m/nofp/libg_nano.a(libc_a-lseekr.o)
                              /opt/toolchain/bin/../lib/gcc/arm-none-eabi/13.3.1/../../../../arm-none-eabi/lib/thumb/v6-m/nofp/libg_nano.a(libc_a-stdio.o) (_lseek_r)
/opt/toolchain/bin/../lib/gcc/arm-none-eabi/13.3.1/../../../../arm-none-eabi/lib/thumb/v6-m/nofp/libg_nano.a(libc_a-readr.o)
                              /opt/toolchain/bin/../lib/gcc/arm-none-eabi/13.3.1/../../../../arm-none-eabi/lib/thumb/v6-m/nofp/libg_nano.a(libc_a-stdio.o) (_read_r)
/opt/toolchain/bin/../lib/gcc/arm-none-eabi/13.3.1/../../../../arm-none-eabi/lib/thumb/v6-m/nofp/libg_nano.a(libc_a-fwalk.o)
                              /opt/toolchain/bin/../lib/gcc/arm-none-eabi/13.3.1/../../../../arm-none-eabi/lib/thumb/v6-m/nofp/libg_nano.a(libc_a-findfp.o) (_fwalk_sglue)
/opt/toolchain/bin/../lib/gcc/arm-none-eabi/13.3.1/../../../../arm-none-eabi/lib/thumb/v6-m/nofp/libg_nano.a(libc_a-memcmp.o)
                              CMakeFiles/n7six.ApeX-k1.v7.6.5.dir/App/driver/py25q16.c.obj (memcmp)
/opt/toolchain/bin/../lib/gcc/arm-none-eabi/13.3.1/../../../../arm-none-eabi/lib/thumb/v6-m/nofp/libg_nano.a(libc_a-writer.o)
                              /opt/toolchain/bin/../lib/gcc/arm-none-eabi/13.3.1/../../../../arm-none-eabi/lib/thumb/v6-m/nofp/libg_nano.a(libc_a-stdio.o) (_write_r)
/opt/toolchain/bin/../lib/gcc/arm-none-eabi/13.3.1/../../../../arm-none-eabi/lib/thumb/v6-m/nofp/libg_nano.a(libc_a-lock.o)
                              /opt/toolchain/bin/../lib/gcc/arm-none-eabi/13.3.1/../../../../arm-none-eabi/lib/thumb/v6-m/nofp/libg_nano.a(libc_a-findfp.o) (__retarget_lock_init_recursive)
/opt/toolchain/bin/../lib/gcc/arm-none-eabi/13.3.1/../../../../arm-none-eabi/lib/thumb/v6-m/nofp/libg_nano.a(libc_a-fflush.o)
                              /opt/toolchain/bin/../lib/gcc/arm-none-eabi/13.3.1/../../../../arm-none-eabi/lib/thumb/v6-m/nofp/libg_nano.a(libc_a-findfp.o) (_fflush_r)
/opt/toolchain/bin/../lib/gcc/arm-none-eabi/13.3.1/../../../../arm-none-eabi/lib/thumb/v6-m/nofp/libg_nano.a(libc_a-mallocr.o)
                              /opt/toolchain/bin/../lib/gcc/arm-none-eabi/13.3.1/../../../../arm-none-eabi/lib/thumb/v6-m/nofp/libg_nano.a(libc_a-findfp.o) (_malloc_r)
/opt/toolchain/bin/../lib/gcc/arm-none-eabi/13.3.1/../../../../arm-none-eabi/lib/thumb/v6-m/nofp/libg_nano.a(libc_a-closer.o)
                              /opt/toolchain/bin/../lib/gcc/arm-none-eabi/13.3.1/../../../../arm-none-eabi/lib/thumb/v6-m/nofp/libg_nano.a(libc_a-stdio.o) (_close_r)
/opt/toolchain/bin/../lib/gcc/arm-none-eabi/13.3.1/../../../../arm-none-eabi/lib/thumb/v6-m/nofp/libg_nano.a(libc_a-reent.o)
                              /opt/toolchain/bin/../lib/gcc/arm-none-eabi/13.3.1/../../../../arm-none-eabi/lib/thumb/v6-m/nofp/libg_nano.a(libc_a-lseekr.o) (errno)
/opt/toolchain/bin/../lib/gcc/arm-none-eabi/13.3.1/../../../../arm-none-eabi/lib/thumb/v6-m/nofp/libg_nano.a(libc_a-impure.o)
                              /opt/toolchain/bin/../lib/gcc/arm-none-eabi/13.3.1/../../../../arm-none-eabi/lib/thumb/v6-m/nofp/libg_nano.a(libc_a-fflush.o) (_impure_ptr)
/opt/toolchain/bin/../lib/gcc/arm-none-eabi/13.3.1/../../../../arm-none-eabi/lib/thumb/v6-m/nofp/libg_nano.a(libc_a-mlock.o)
                              /opt/toolchain/bin/../lib/gcc/arm-none-eabi/13.3.1/../../../../arm-none-eabi/lib/thumb/v6-m/nofp/libg_nano.a(libc_a-mallocr.o) (__malloc_lock)
/opt/toolchain/bin/../lib/gcc/arm-none-eabi/13.3.1/../../../../arm-none-eabi/lib/thumb/v6-m/nofp/libg_nano.a(libc_a-sbrkr.o)
                              /opt/toolchain/bin/../lib/gcc/arm-none-eabi/13.3.1/../../../../arm-none-eabi/lib/thumb/v6-m/nofp/libg_nano.a(libc_a-mallocr.o) (_sbrk_r)
/opt/toolchain/bin/../lib/gcc/arm-none-eabi/13.3.1/../../../../arm-none-eabi/lib/thumb/v6-m/nofp/libg_nano.a(libc_a-freer.o)
                              /opt/toolchain/bin/../lib/gcc/arm-none-eabi/13.3.1/../../../../arm-none-eabi/lib/thumb/v6-m/nofp/libg_nano.a(libc_a-fflush.o) (_free_r)

Discarded input sections

 .text          0x00000000        0x0 /opt/toolchain/bin/../lib/gcc/arm-none-eabi/13.3.1/thumb/v6-m/nofp/crti.o
 .data          0x00000000        0x0 /opt/toolchain/bin/../lib/gcc/arm-none-eabi/13.3.1/thumb/v6-m/nofp/crti.o
 .bss           0x00000000        0x0 /opt/toolchain/bin/../lib/gcc/arm-none-eabi/13.3.1/thumb/v6-m/nofp/crti.o
 .text          0x00000000        0x0 /opt/toolchain/bin/../lib/gcc/arm-none-eabi/13.3.1/thumb/v6-m/nofp/crtbegin.o
 .data          0x00000000        0x0 /opt/toolchain/bin/../lib/gcc/arm-none-eabi/13.3.1/thumb/v6-m/nofp/crtbegin.o
 .bss           0x00000000        0x0 /opt/toolchain/bin/../lib/gcc/arm-none-eabi/13.3.1/thumb/v6-m/nofp/crtbegin.o
 .rodata.all_implied_fbits
                0x00000000       0x24 /opt/toolchain/bin/../lib/gcc/arm-none-eabi/13.3.1/thumb/v6-m/nofp/crtbegin.o
 .data.__dso_handle
                0x00000000        0x4 /opt/toolchain/bin/../lib/gcc/arm-none-eabi/13.3.1/thumb/v6-m/nofp/crtbegin.o
 .text          0x00000000       0x80 /opt/toolchain/bin/../lib/gcc/arm-none-eabi/13.3.1/../../../../arm-none-eabi/lib/thumb/v6-m/nofp/crt0.o
 .data          0x00000000        0x0 /opt/toolchain/bin/../lib/gcc/arm-none-eabi/13.3.1/../../../../arm-none-eabi/lib/thumb/v6-m/nofp/crt0.o
 .bss           0x00000000        0x0 /opt/toolchain/bin/../lib/gcc/arm-none-eabi/13.3.1/../../../../arm-none-eabi/lib/thumb/v6-m/nofp/crt0.o
 .ARM.extab     0x00000000        0x0 /opt/toolchain/bin/../lib/gcc/arm-none-eabi/13.3.1/../../../../arm-none-eabi/lib/thumb/v6-m/nofp/crt0.o
 .ARM.exidx     0x00000000       0x10 /opt/toolchain/bin/../lib/gcc/arm-none-eabi/13.3.1/../../../../arm-none-eabi/lib/thumb/v6-m/nofp/crt0.o
 .debug_line_str
                0x00000000       0xcb /opt/toolchain/bin/../lib/gcc/arm-none-eabi/13.3.1/../../../../arm-none-eabi/lib/thumb/v6-m/nofp/crt0.o
 .ARM.attributes
                0x00000000       0x1b /opt/toolchain/bin/../lib/gcc/arm-none-eabi/13.3.1/../../../../arm-none-eabi/lib/thumb/v6-m/nofp/crt0.o
 .text          0x00000000        0x0 CMakeFiles/n7six.ApeX-k1.v7.6.5.dir/Core/Src/main.c.obj
 .data          0x00000000        0x0 CMakeFiles/n7six.ApeX-k1.v7.6.5.dir/Core/Src/main.c.obj
 .bss           0x00000000        0x0 CMakeFiles/n7six.ApeX-k1.v7.6.5.dir/Core/Src/main.c.obj
 .text.APP_ErrorHandler
                0x00000000        0x2 CMakeFiles/n7six.ApeX-k1.v7.6.5.dir/Core/Src/main.c.obj
 .text          0x00000000        0x0 CMakeFiles/n7six.ApeX-k1.v7.6.5.dir/Core/Src/py32f071_it.c.obj
 .data          0x00000000        0x0 CMakeFiles/n7six.ApeX-k1.v7.6.5.dir/Core/Src/py32f071_it.c.obj
 .bss           0x00000000        0x0 CMakeFiles/n7six.ApeX-k1.v7.6.5.dir/Core/Src/py32f071_it.c.obj
 .text          0x00000000        0x0 CMakeFiles/n7six.ApeX-k1.v7.6.5.dir/Core/Src/system_py32f071.c.obj
 .data          0x00000000        0x0 CMakeFiles/n7six.ApeX-k1.v7.6.5.dir/Core/Src/system_py32f071.c.obj
 .bss           0x00000000        0x0 CMakeFiles/n7six.ApeX-k1.v7.6.5.dir/Core/Src/system_py32f071.c.obj
 .text.SystemCoreClockUpdate
                0x00000000       0x94 CMakeFiles/n7six.ApeX-k1.v7.6.5.dir/Core/Src/system_py32f071.c.obj
 .text          0x00000000       0x14 CMakeFiles/n7six.ApeX-k1.v7.6.5.dir/Core/startup_py32f071xx.s.obj
 .data          0x00000000        0x0 CMakeFiles/n7six.ApeX-k1.v7.6.5.dir/Core/startup_py32f071xx.s.obj
 .bss           0x00000000        0x0 CMakeFiles/n7six.ApeX-k1.v7.6.5.dir/Core/startup_py32f071xx.s.obj
 .text          0x00000000        0x0 CMakeFiles/n7six.ApeX-k1.v7.6.5.dir/Drivers/PY32F071_HAL_Driver/Src/py32f071_ll_rcc.c.obj
 .data          0x00000000        0x0 CMakeFiles/n7six.ApeX-k1.v7.6.5.dir/Drivers/PY32F071_HAL_Driver/Src/py32f071_ll_rcc.c.obj
 .bss           0x00000000        0x0 CMakeFiles/n7six.ApeX-k1.v7.6.5.dir/Drivers/PY32F071_HAL_Driver/Src/py32f071_ll_rcc.c.obj
 .text.LL_RCC_LSE_IsReady
                0x00000000       0x10 CMakeFiles/n7six.ApeX-k1.v7.6.5.dir/Drivers/PY32F071_HAL_Driver/Src/py32f071_ll_rcc.c.obj
 .text.LL_RCC_LSI_IsReady
                0x00000000       0x10 CMakeFiles/n7six.ApeX-k1.v7.6.5.dir/Drivers/PY32F071_HAL_Driver/Src/py32f071_ll_rcc.c.obj
 .text.LL_RCC_DeInit
                0x00000000       0x70 CMakeFiles/n7six.ApeX-k1.v7.6.5.dir/Drivers/PY32F071_HAL_Driver/Src/py32f071_ll_rcc.c.obj
 .text.LL_RCC_GetLSCClockFreq
                0x00000000       0x24 CMakeFiles/n7six.ApeX-k1.v7.6.5.dir/Drivers/PY32F071_HAL_Driver/Src/py32f071_ll_rcc.c.obj
 .text.LL_RCC_GetRTCClockFreq
                0x00000000       0x54 CMakeFiles/n7six.ApeX-k1.v7.6.5.dir/Drivers/PY32F071_HAL_Driver/Src/py32f071_ll_rcc.c.obj
 .text.LL_RCC_GetPVDClockFreq
                0x00000000       0x24 CMakeFiles/n7six.ApeX-k1.v7.6.5.dir/Drivers/PY32F071_HAL_Driver/Src/py32f071_ll_rcc.c.obj
 .text.LL_RCC_GetCOMPClockFreq
                0x00000000       0x58 CMakeFiles/n7six.ApeX-k1.v7.6.5.dir/Drivers/PY32F071_HAL_Driver/Src/py32f071_ll_rcc.c.obj
 .text.LL_RCC_GetLPTIMClockFreq
                0x00000000       0x64 CMakeFiles/n7six.ApeX-k1.v7.6.5.dir/Drivers/PY32F071_HAL_Driver/Src/py32f071_ll_rcc.c.obj
 .text.LL_RCC_GetADCClockFreq
                0x00000000       0x68 CMakeFiles/n7six.ApeX-k1.v7.6.5.dir/Drivers/PY32F071_HAL_Driver/Src/py32f071_ll_rcc.c.obj
 .text.LL_RCC_GetMCOClockFreq
                0x00000000       0xd4 CMakeFiles/n7six.ApeX-k1.v7.6.5.dir/Drivers/PY32F071_HAL_Driver/Src/py32f071_ll_rcc.c.obj
 .text          0x00000000        0x0 CMakeFiles/n7six.ApeX-k1.v7.6.5.dir/Drivers/PY32F071_HAL_Driver/Src/py32f071_ll_pwr.c.obj
 .data          0x00000000        0x0 CMakeFiles/n7six.ApeX-k1.v7.6.5.dir/Drivers/PY32F071_HAL_Driver/Src/py32f071_ll_pwr.c.obj
 .bss           0x00000000        0x0 CMakeFiles/n7six.ApeX-k1.v7.6.5.dir/Drivers/PY32F071_HAL_Driver/Src/py32f071_ll_pwr.c.obj
 .text.LL_PWR_DeInit
                0x00000000       0x20 CMakeFiles/n7six.ApeX-k1.v7.6.5.dir/Drivers/PY32F071_HAL_Driver/Src/py32f071_ll_pwr.c.obj
 .comment       0x00000000       0x46 CMakeFiles/n7six.ApeX-k1.v7.6.5.dir/Drivers/PY32F071_HAL_Driver/Src/py32f071_ll_pwr.c.obj
 .ARM.attributes
                0x00000000       0x2c CMakeFiles/n7six.ApeX-k1.v7.6.5.dir/Drivers/PY32F071_HAL_Driver/Src/py32f071_ll_pwr.c.obj
 .text          0x00000000        0x0 CMakeFiles/n7six.ApeX-k1.v7.6.5.dir/Drivers/PY32F071_HAL_Driver/Src/py32f071_ll_dma.c.obj
 .data          0x00000000        0x0 CMakeFiles/n7six.ApeX-k1.v7.6.5.dir/Drivers/PY32F071_HAL_Driver/Src/py32f071_ll_dma.c.obj
 .bss           0x00000000        0x0 CMakeFiles/n7six.ApeX-k1.v7.6.5.dir/Drivers/PY32F071_HAL_Driver/Src/py32f071_ll_dma.c.obj
 .text.LL_DMA_DeInit
                0x00000000       0x94 CMakeFiles/n7six.ApeX-k1.v7.6.5.dir/Drivers/PY32F071_HAL_Driver/Src/py32f071_ll_dma.c.obj
 .text          0x00000000        0x0 CMakeFiles/n7six.ApeX-k1.v7.6.5.dir/Drivers/PY32F071_HAL_Driver/Src/py32f071_ll_gpio.c.obj
 .data          0x00000000        0x0 CMakeFiles/n7six.ApeX-k1.v7.6.5.dir/Drivers/PY32F071_HAL_Driver/Src/py32f071_ll_gpio.c.obj
 .bss           0x00000000        0x0 CMakeFiles/n7six.ApeX-k1.v7.6.5.dir/Drivers/PY32F071_HAL_Driver/Src/py32f071_ll_gpio.c.obj
 .text.LL_GPIO_DeInit
                0x00000000       0x5c CMakeFiles/n7six.ApeX-k1.v7.6.5.dir/Drivers/PY32F071_HAL_Driver/Src/py32f071_ll_gpio.c.obj
 .text          0x00000000        0x0 CMakeFiles/n7six.ApeX-k1.v7.6.5.dir/Drivers/PY32F071_HAL_Driver/Src/py32f071_ll_utils.c.obj
 .data          0x00000000        0x0 CMakeFiles/n7six.ApeX-k1.v7.6.5.dir/Drivers/PY32F071_HAL_Driver/Src/py32f071_ll_utils.c.obj
 .bss           0x00000000        0x0 CMakeFiles/n7six.ApeX-k1.v7.6.5.dir/Drivers/PY32F071_HAL_Driver/Src/py32f071_ll_utils.c.obj
 .text.LL_RCC_HSI_GetFreq
                0x00000000       0x18 CMakeFiles/n7six.ApeX-k1.v7.6.5.dir/Drivers/PY32F071_HAL_Driver/Src/py32f071_ll_utils.c.obj
 .text.LL_Init1msTick
                0x00000000       0x20 CMakeFiles/n7six.ApeX-k1.v7.6.5.dir/Drivers/PY32F071_HAL_Driver/Src/py32f071_ll_utils.c.obj
 .text.LL_mDelay
                0x00000000       0x2c CMakeFiles/n7six.ApeX-k1.v7.6.5.dir/Drivers/PY32F071_HAL_Driver/Src/py32f071_ll_utils.c.obj
 .text.LL_SetFlashLatency
                0x00000000       0x54 CMakeFiles/n7six.ApeX-k1.v7.6.5.dir/Drivers/PY32F071_HAL_Driver/Src/py32f071_ll_utils.c.obj
 .text.UTILS_EnablePLLAndSwitchSystem
                0x00000000       0x98 CMakeFiles/n7six.ApeX-k1.v7.6.5.dir/Drivers/PY32F071_HAL_Driver/Src/py32f071_ll_utils.c.obj
 .text.LL_PLL_ConfigSystemClock_HSI
                0x00000000       0x94 CMakeFiles/n7six.ApeX-k1.v7.6.5.dir/Drivers/PY32F071_HAL_Driver/Src/py32f071_ll_utils.c.obj
 .text.LL_PLL_ConfigSystemClock_HSE
                0x00000000       0xd0 CMakeFiles/n7six.ApeX-k1.v7.6.5.dir/Drivers/PY32F071_HAL_Driver/Src/py32f071_ll_utils.c.obj
 .text          0x00000000        0x0 CMakeFiles/n7six.ApeX-k1.v7.6.5.dir/Drivers/PY32F071_HAL_Driver/Src/py32f071_ll_adc.c.obj
 .data          0x00000000        0x0 CMakeFiles/n7six.ApeX-k1.v7.6.5.dir/Drivers/PY32F071_HAL_Driver/Src/py32f071_ll_adc.c.obj
 .bss           0x00000000        0x0 CMakeFiles/n7six.ApeX-k1.v7.6.5.dir/Drivers/PY32F071_HAL_Driver/Src/py32f071_ll_adc.c.obj
 .text.LL_ADC_DeInit
                0x00000000       0xd4 CMakeFiles/n7six.ApeX-k1.v7.6.5.dir/Drivers/PY32F071_HAL_Driver/Src/py32f071_ll_adc.c.obj
 .text.LL_ADC_Init
                0x00000000       0x34 CMakeFiles/n7six.ApeX-k1.v7.6.5.dir/Drivers/PY32F071_HAL_Driver/Src/py32f071_ll_adc.c.obj
 .text.LL_ADC_StructInit
                0x00000000        0xc CMakeFiles/n7six.ApeX-k1.v7.6.5.dir/Drivers/PY32F071_HAL_Driver/Src/py32f071_ll_adc.c.obj
 .text.LL_ADC_REG_Init
                0x00000000       0x50 CMakeFiles/n7six.ApeX-k1.v7.6.5.dir/Drivers/PY32F071_HAL_Driver/Src/py32f071_ll_adc.c.obj
 .text.LL_ADC_REG_StructInit
                0x00000000       0x12 CMakeFiles/n7six.ApeX-k1.v7.6.5.dir/Drivers/PY32F071_HAL_Driver/Src/py32f071_ll_adc.c.obj
 .text.LL_ADC_INJ_Init
                0x00000000       0x48 CMakeFiles/n7six.ApeX-k1.v7.6.5.dir/Drivers/PY32F071_HAL_Driver/Src/py32f071_ll_adc.c.obj
 .text.LL_ADC_INJ_StructInit
                0x00000000       0x10 CMakeFiles/n7six.ApeX-k1.v7.6.5.dir/Drivers/PY32F071_HAL_Driver/Src/py32f071_ll_adc.c.obj
 .comment       0x00000000       0x46 CMakeFiles/n7six.ApeX-k1.v7.6.5.dir/Drivers/PY32F071_HAL_Driver/Src/py32f071_ll_adc.c.obj
 .ARM.attributes
                0x00000000       0x2c CMakeFiles/n7six.ApeX-k1.v7.6.5.dir/Drivers/PY32F071_HAL_Driver/Src/py32f071_ll_adc.c.obj
 .text          0x00000000        0x0 CMakeFiles/n7six.ApeX-k1.v7.6.5.dir/Drivers/PY32F071_HAL_Driver/Src/py32f071_ll_comp.c.obj
 .data          0x00000000        0x0 CMakeFiles/n7six.ApeX-k1.v7.6.5.dir/Drivers/PY32F071_HAL_Driver/Src/py32f071_ll_comp.c.obj
 .bss           0x00000000        0x0 CMakeFiles/n7six.ApeX-k1.v7.6.5.dir/Drivers/PY32F071_HAL_Driver/Src/py32f071_ll_comp.c.obj
 .text.LL_COMP_DeInit
                0x00000000        0xa CMakeFiles/n7six.ApeX-k1.v7.6.5.dir/Drivers/PY32F071_HAL_Driver/Src/py32f071_ll_comp.c.obj
 .text.LL_COMP_Init
                0x00000000       0x70 CMakeFiles/n7six.ApeX-k1.v7.6.5.dir/Drivers/PY32F071_HAL_Driver/Src/py32f071_ll_comp.c.obj
 .text.LL_COMP_StructInit
                0x00000000       0x14 CMakeFiles/n7six.ApeX-k1.v7.6.5.dir/Drivers/PY32F071_HAL_Driver/Src/py32f071_ll_comp.c.obj
 .comment       0x00000000       0x46 CMakeFiles/n7six.ApeX-k1.v7.6.5.dir/Drivers/PY32F071_HAL_Driver/Src/py32f071_ll_comp.c.obj
 .ARM.attributes
                0x00000000       0x2c CMakeFiles/n7six.ApeX-k1.v7.6.5.dir/Drivers/PY32F071_HAL_Driver/Src/py32f071_ll_comp.c.obj
 .text          0x00000000        0x0 CMakeFiles/n7six.ApeX-k1.v7.6.5.dir/Drivers/PY32F071_HAL_Driver/Src/py32f071_ll_crc.c.obj
 .data          0x00000000        0x0 CMakeFiles/n7six.ApeX-k1.v7.6.5.dir/Drivers/PY32F071_HAL_Driver/Src/py32f071_ll_crc.c.obj
 .bss           0x00000000        0x0 CMakeFiles/n7six.ApeX-k1.v7.6.5.dir/Drivers/PY32F071_HAL_Driver/Src/py32f071_ll_crc.c.obj
 .text.LL_CRC_DeInit
                0x00000000       0x1c CMakeFiles/n7six.ApeX-k1.v7.6.5.dir/Drivers/PY32F071_HAL_Driver/Src/py32f071_ll_crc.c.obj
 .comment       0x00000000       0x46 CMakeFiles/n7six.ApeX-k1.v7.6.5.dir/Drivers/PY32F071_HAL_Driver/Src/py32f071_ll_crc.c.obj
 .ARM.attributes
                0x00000000       0x2c CMakeFiles/n7six.ApeX-k1.v7.6.5.dir/Drivers/PY32F071_HAL_Driver/Src/py32f071_ll_crc.c.obj
 .text          0x00000000        0x0 CMakeFiles/n7six.ApeX-k1.v7.6.5.dir/Drivers/PY32F071_HAL_Driver/Src/py32f071_ll_dac.c.obj
 .data          0x00000000        0x0 CMakeFiles/n7six.ApeX-k1.v7.6.5.dir/Drivers/PY32F071_HAL_Driver/Src/py32f071_ll_dac.c.obj
 .bss           0x00000000        0x0 CMakeFiles/n7six.ApeX-k1.v7.6.5.dir/Drivers/PY32F071_HAL_Driver/Src/py32f071_ll_dac.c.obj
 .text.LL_DAC_DeInit
                0x00000000       0x20 CMakeFiles/n7six.ApeX-k1.v7.6.5.dir/Drivers/PY32F071_HAL_Driver/Src/py32f071_ll_dac.c.obj
 .text.LL_DAC_Init
                0x00000000       0x50 CMakeFiles/n7six.ApeX-k1.v7.6.5.dir/Drivers/PY32F071_HAL_Driver/Src/py32f071_ll_dac.c.obj
 .text.LL_DAC_StructInit
                0x00000000        0xe CMakeFiles/n7six.ApeX-k1.v7.6.5.dir/Drivers/PY32F071_HAL_Driver/Src/py32f071_ll_dac.c.obj
 .comment       0x00000000       0x46 CMakeFiles/n7six.ApeX-k1.v7.6.5.dir/Drivers/PY32F071_HAL_Driver/Src/py32f071_ll_dac.c.obj
 .ARM.attributes
                0x00000000       0x2c CMakeFiles/n7six.ApeX-k1.v7.6.5.dir/Drivers/PY32F071_HAL_Driver/Src/py32f071_ll_dac.c.obj
 .text          0x00000000        0x0 CMakeFiles/n7six.ApeX-k1.v7.6.5.dir/Drivers/PY32F071_HAL_Driver/Src/py32f071_ll_exti.c.obj
 .data          0x00000000        0x0 CMakeFiles/n7six.ApeX-k1.v7.6.5.dir/Drivers/PY32F071_HAL_Driver/Src/py32f071_ll_exti.c.obj
 .bss           0x00000000        0x0 CMakeFiles/n7six.ApeX-k1.v7.6.5.dir/Drivers/PY32F071_HAL_Driver/Src/py32f071_ll_exti.c.obj
 .text.LL_EXTI_DeInit
                0x00000000       0x28 CMakeFiles/n7six.ApeX-k1.v7.6.5.dir/Drivers/PY32F071_HAL_Driver/Src/py32f071_ll_exti.c.obj
 .text.LL_EXTI_Init
                0x00000000       0xa8 CMakeFiles/n7six.ApeX-k1.v7.6.5.dir/Drivers/PY32F071_HAL_Driver/Src/py32f071_ll_exti.c.obj
 .text.LL_EXTI_StructInit
                0x00000000        0xc CMakeFiles/n7six.ApeX-k1.v7.6.5.dir/Drivers/PY32F071_HAL_Driver/Src/py32f071_ll_exti.c.obj
 .comment       0x00000000       0x46 CMakeFiles/n7six.ApeX-k1.v7.6.5.dir/Drivers/PY32F071_HAL_Driver/Src/py32f071_ll_exti.c.obj
 .ARM.attributes
                0x00000000       0x2c CMakeFiles/n7six.ApeX-k1.v7.6.5.dir/Drivers/PY32F071_HAL_Driver/Src/py32f071_ll_exti.c.obj
 .text          0x00000000        0x0 CMakeFiles/n7six.ApeX-k1.v7.6.5.dir/Drivers/PY32F071_HAL_Driver/Src/py32f071_ll_i2c.c.obj
 .data          0x00000000        0x0 CMakeFiles/n7six.ApeX-k1.v7.6.5.dir/Drivers/PY32F071_HAL_Driver/Src/py32f071_ll_i2c.c.obj
 .bss           0x00000000        0x0 CMakeFiles/n7six.ApeX-k1.v7.6.5.dir/Drivers/PY32F071_HAL_Driver/Src/py32f071_ll_i2c.c.obj
 .text.LL_I2C_DeInit
                0x00000000       0x50 CMakeFiles/n7six.ApeX-k1.v7.6.5.dir/Drivers/PY32F071_HAL_Driver/Src/py32f071_ll_i2c.c.obj
 .text.LL_I2C_Init
                0x00000000       0xf0 CMakeFiles/n7six.ApeX-k1.v7.6.5.dir/Drivers/PY32F071_HAL_Driver/Src/py32f071_ll_i2c.c.obj
 .text.LL_I2C_StructInit
                0x00000000       0x1c CMakeFiles/n7six.ApeX-k1.v7.6.5.dir/Drivers/PY32F071_HAL_Driver/Src/py32f071_ll_i2c.c.obj
 .comment       0x00000000       0x46 CMakeFiles/n7six.ApeX-k1.v7.6.5.dir/Drivers/PY32F071_HAL_Driver/Src/py32f071_ll_i2c.c.obj
 .ARM.attributes
                0x00000000       0x2c CMakeFiles/n7six.ApeX-k1.v7.6.5.dir/Drivers/PY32F071_HAL_Driver/Src/py32f071_ll_i2c.c.obj
 .text          0x00000000        0x0 CMakeFiles/n7six.ApeX-k1.v7.6.5.dir/Drivers/PY32F071_HAL_Driver/Src/py32f071_ll_rtc.c.obj
 .data          0x00000000        0x0 CMakeFiles/n7six.ApeX-k1.v7.6.5.dir/Drivers/PY32F071_HAL_Driver/Src/py32f071_ll_rtc.c.obj
 .bss           0x00000000        0x0 CMakeFiles/n7six.ApeX-k1.v7.6.5.dir/Drivers/PY32F071_HAL_Driver/Src/py32f071_ll_rtc.c.obj
 .text.LL_RTC_StructInit
                0x00000000        0xc CMakeFiles/n7six.ApeX-k1.v7.6.5.dir/Drivers/PY32F071_HAL_Driver/Src/py32f071_ll_rtc.c.obj
 .text.LL_RTC_TIME_StructInit
                0x00000000        0xa CMakeFiles/n7six.ApeX-k1.v7.6.5.dir/Drivers/PY32F071_HAL_Driver/Src/py32f071_ll_rtc.c.obj
 .text.LL_RTC_ALARM_StructInit
                0x00000000        0xa CMakeFiles/n7six.ApeX-k1.v7.6.5.dir/Drivers/PY32F071_HAL_Driver/Src/py32f071_ll_rtc.c.obj
 .text.LL_RTC_EnterInitMode
                0x00000000       0x50 CMakeFiles/n7six.ApeX-k1.v7.6.5.dir/Drivers/PY32F071_HAL_Driver/Src/py32f071_ll_rtc.c.obj
 .text.LL_RTC_ExitInitMode
                0x00000000       0x50 CMakeFiles/n7six.ApeX-k1.v7.6.5.dir/Drivers/PY32F071_HAL_Driver/Src/py32f071_ll_rtc.c.obj
 .text.LL_RTC_TIME_Init
                0x00000000       0x6c CMakeFiles/n7six.ApeX-k1.v7.6.5.dir/Drivers/PY32F071_HAL_Driver/Src/py32f071_ll_rtc.c.obj
 .text.LL_RTC_ALARM_Init
                0x00000000       0x6c CMakeFiles/n7six.ApeX-k1.v7.6.5.dir/Drivers/PY32F071_HAL_Driver/Src/py32f071_ll_rtc.c.obj
 .text.LL_RTC_TIME_SetCounter
                0x00000000       0x24 CMakeFiles/n7six.ApeX-k1.v7.6.5.dir/Drivers/PY32F071_HAL_Driver/Src/py32f071_ll_rtc.c.obj
 .text.LL_RTC_ALARM_SetCounter
                0x00000000       0x24 CMakeFiles/n7six.ApeX-k1.v7.6.5.dir/Drivers/PY32F071_HAL_Driver/Src/py32f071_ll_rtc.c.obj
 .text.LL_RTC_WaitForSynchro
                0x00000000       0x50 CMakeFiles/n7six.ApeX-k1.v7.6.5.dir/Drivers/PY32F071_HAL_Driver/Src/py32f071_ll_rtc.c.obj
 .text.LL_RTC_DeInit
                0x00000000       0x56 CMakeFiles/n7six.ApeX-k1.v7.6.5.dir/Drivers/PY32F071_HAL_Driver/Src/py32f071_ll_rtc.c.obj
 .text.LL_RTC_Init
                0x00000000       0x68 CMakeFiles/n7six.ApeX-k1.v7.6.5.dir/Drivers/PY32F071_HAL_Driver/Src/py32f071_ll_rtc.c.obj
 .comment       0x00000000       0x46 CMakeFiles/n7six.ApeX-k1.v7.6.5.dir/Drivers/PY32F071_HAL_Driver/Src/py32f071_ll_rtc.c.obj
 .ARM.attributes
                0x00000000       0x2c CMakeFiles/n7six.ApeX-k1.v7.6.5.dir/Drivers/PY32F071_HAL_Driver/Src/py32f071_ll_rtc.c.obj
 .text          0x00000000        0x0 CMakeFiles/n7six.ApeX-k1.v7.6.5.dir/Drivers/PY32F071_HAL_Driver/Src/py32f071_ll_spi.c.obj
 .data          0x00000000        0x0 CMakeFiles/n7six.ApeX-k1.v7.6.5.dir/Drivers/PY32F071_HAL_Driver/Src/py32f071_ll_spi.c.obj
 .bss           0x00000000        0x0 CMakeFiles/n7six.ApeX-k1.v7.6.5.dir/Drivers/PY32F071_HAL_Driver/Src/py32f071_ll_spi.c.obj
 .text.LL_SPI_DeInit
                0x00000000       0x54 CMakeFiles/n7six.ApeX-k1.v7.6.5.dir/Drivers/PY32F071_HAL_Driver/Src/py32f071_ll_spi.c.obj
 .text.LL_I2S_DeInit
                0x00000000        0x8 CMakeFiles/n7six.ApeX-k1.v7.6.5.dir/Drivers/PY32F071_HAL_Driver/Src/py32f071_ll_spi.c.obj
 .text.LL_I2S_Init
                0x00000000       0x9c CMakeFiles/n7six.ApeX-k1.v7.6.5.dir/Drivers/PY32F071_HAL_Driver/Src/py32f071_ll_spi.c.obj
 .text.LL_I2S_StructInit
                0x00000000       0x12 CMakeFiles/n7six.ApeX-k1.v7.6.5.dir/Drivers/PY32F071_HAL_Driver/Src/py32f071_ll_spi.c.obj
 .text.LL_I2S_ConfigPrescaler
                0x00000000       0x10 CMakeFiles/n7six.ApeX-k1.v7.6.5.dir/Drivers/PY32F071_HAL_Driver/Src/py32f071_ll_spi.c.obj
 .text          0x00000000        0x0 CMakeFiles/n7six.ApeX-k1.v7.6.5.dir/Drivers/PY32F071_HAL_Driver/Src/py32f071_ll_tim.c.obj
 .data          0x00000000        0x0 CMakeFiles/n7six.ApeX-k1.v7.6.5.dir/Drivers/PY32F071_HAL_Driver/Src/py32f071_ll_tim.c.obj
 .bss           0x00000000        0x0 CMakeFiles/n7six.ApeX-k1.v7.6.5.dir/Drivers/PY32F071_HAL_Driver/Src/py32f071_ll_tim.c.obj
 .text.LL_TIM_DeInit
                0x00000000      0x100 CMakeFiles/n7six.ApeX-k1.v7.6.5.dir/Drivers/PY32F071_HAL_Driver/Src/py32f071_ll_tim.c.obj
 .text.LL_TIM_StructInit
                0x00000000       0x12 CMakeFiles/n7six.ApeX-k1.v7.6.5.dir/Drivers/PY32F071_HAL_Driver/Src/py32f071_ll_tim.c.obj
 .text.LL_TIM_Init
                0x00000000       0x7c CMakeFiles/n7six.ApeX-k1.v7.6.5.dir/Drivers/PY32F071_HAL_Driver/Src/py32f071_ll_tim.c.obj
 .text.LL_TIM_OC_StructInit
                0x00000000       0x14 CMakeFiles/n7six.ApeX-k1.v7.6.5.dir/Drivers/PY32F071_HAL_Driver/Src/py32f071_ll_tim.c.obj
 .text.LL_TIM_OC_Init
                0x00000000      0x200 CMakeFiles/n7six.ApeX-k1.v7.6.5.dir/Drivers/PY32F071_HAL_Driver/Src/py32f071_ll_tim.c.obj
 .text.LL_TIM_IC_StructInit
                0x00000000       0x10 CMakeFiles/n7six.ApeX-k1.v7.6.5.dir/Drivers/PY32F071_HAL_Driver/Src/py32f071_ll_tim.c.obj
 .text.LL_TIM_IC_Init
                0x00000000       0xe8 CMakeFiles/n7six.ApeX-k1.v7.6.5.dir/Drivers/PY32F071_HAL_Driver/Src/py32f071_ll_tim.c.obj
 .text.LL_TIM_ENCODER_StructInit
                0x00000000       0x1c CMakeFiles/n7six.ApeX-k1.v7.6.5.dir/Drivers/PY32F071_HAL_Driver/Src/py32f071_ll_tim.c.obj
 .text.LL_TIM_ENCODER_Init
                0x00000000       0x5c CMakeFiles/n7six.ApeX-k1.v7.6.5.dir/Drivers/PY32F071_HAL_Driver/Src/py32f071_ll_tim.c.obj
 .text.LL_TIM_HALLSENSOR_StructInit
                0x00000000        0xc CMakeFiles/n7six.ApeX-k1.v7.6.5.dir/Drivers/PY32F071_HAL_Driver/Src/py32f071_ll_tim.c.obj
 .text.LL_TIM_HALLSENSOR_Init
                0x00000000       0x5c CMakeFiles/n7six.ApeX-k1.v7.6.5.dir/Drivers/PY32F071_HAL_Driver/Src/py32f071_ll_tim.c.obj
 .text.LL_TIM_BDTR_StructInit
                0x00000000       0x12 CMakeFiles/n7six.ApeX-k1.v7.6.5.dir/Drivers/PY32F071_HAL_Driver/Src/py32f071_ll_tim.c.obj
 .text.LL_TIM_BDTR_Init
                0x00000000       0x48 CMakeFiles/n7six.ApeX-k1.v7.6.5.dir/Drivers/PY32F071_HAL_Driver/Src/py32f071_ll_tim.c.obj
 .comment       0x00000000       0x46 CMakeFiles/n7six.ApeX-k1.v7.6.5.dir/Drivers/PY32F071_HAL_Driver/Src/py32f071_ll_tim.c.obj
 .ARM.attributes
                0x00000000       0x2c CMakeFiles/n7six.ApeX-k1.v7.6.5.dir/Drivers/PY32F071_HAL_Driver/Src/py32f071_ll_tim.c.obj
 .text          0x00000000        0x0 CMakeFiles/n7six.ApeX-k1.v7.6.5.dir/Drivers/PY32F071_HAL_Driver/Src/py32f071_ll_lptim.c.obj
 .data          0x00000000        0x0 CMakeFiles/n7six.ApeX-k1.v7.6.5.dir/Drivers/PY32F071_HAL_Driver/Src/py32f071_ll_lptim.c.obj
 .bss           0x00000000        0x0 CMakeFiles/n7six.ApeX-k1.v7.6.5.dir/Drivers/PY32F071_HAL_Driver/Src/py32f071_ll_lptim.c.obj
 .text.LL_LPTIM_DeInit
                0x00000000       0x2c CMakeFiles/n7six.ApeX-k1.v7.6.5.dir/Drivers/PY32F071_HAL_Driver/Src/py32f071_ll_lptim.c.obj
 .text.LL_LPTIM_StructInit
                0x00000000        0x8 CMakeFiles/n7six.ApeX-k1.v7.6.5.dir/Drivers/PY32F071_HAL_Driver/Src/py32f071_ll_lptim.c.obj
 .text.LL_LPTIM_Init
                0x00000000       0x28 CMakeFiles/n7six.ApeX-k1.v7.6.5.dir/Drivers/PY32F071_HAL_Driver/Src/py32f071_ll_lptim.c.obj
 .comment       0x00000000       0x46 CMakeFiles/n7six.ApeX-k1.v7.6.5.dir/Drivers/PY32F071_HAL_Driver/Src/py32f071_ll_lptim.c.obj
 .ARM.attributes
                0x00000000       0x2c CMakeFiles/n7six.ApeX-k1.v7.6.5.dir/Drivers/PY32F071_HAL_Driver/Src/py32f071_ll_lptim.c.obj
 .text          0x00000000        0x0 CMakeFiles/n7six.ApeX-k1.v7.6.5.dir/Drivers/PY32F071_HAL_Driver/Src/py32f071_ll_usart.c.obj
 .data          0x00000000        0x0 CMakeFiles/n7six.ApeX-k1.v7.6.5.dir/Drivers/PY32F071_HAL_Driver/Src/py32f071_ll_usart.c.obj
 .bss           0x00000000        0x0 CMakeFiles/n7six.ApeX-k1.v7.6.5.dir/Drivers/PY32F071_HAL_Driver/Src/py32f071_ll_usart.c.obj
 .text.LL_USART_DeInit
                0x00000000       0x94 CMakeFiles/n7six.ApeX-k1.v7.6.5.dir/Drivers/PY32F071_HAL_Driver/Src/py32f071_ll_usart.c.obj
 .text.LL_USART_ClockInit
                0x00000000       0x40 CMakeFiles/n7six.ApeX-k1.v7.6.5.dir/Drivers/PY32F071_HAL_Driver/Src/py32f071_ll_usart.c.obj
 .text.LL_USART_ClockStructInit
                0x00000000        0xc CMakeFiles/n7six.ApeX-k1.v7.6.5.dir/Drivers/PY32F071_HAL_Driver/Src/py32f071_ll_usart.c.obj
 .text          0x00000000        0x0 CMakeFiles/n7six.ApeX-k1.v7.6.5.dir/App/driver/backlight.c.obj
 .data          0x00000000        0x0 CMakeFiles/n7six.ApeX-k1.v7.6.5.dir/App/driver/backlight.c.obj
 .bss           0x00000000        0x0 CMakeFiles/n7six.ApeX-k1.v7.6.5.dir/App/driver/backlight.c.obj
 .text.BACKLIGHT_GetBrightness
                0x00000000        0xc CMakeFiles/n7six.ApeX-k1.v7.6.5.dir/App/driver/backlight.c.obj
 .text          0x00000000        0x0 CMakeFiles/n7six.ApeX-k1.v7.6.5.dir/App/driver/bk4829.c.obj
 .data          0x00000000        0x0 CMakeFiles/n7six.ApeX-k1.v7.6.5.dir/App/driver/bk4829.c.obj
 .bss           0x00000000        0x0 CMakeFiles/n7six.ApeX-k1.v7.6.5.dir/App/driver/bk4829.c.obj
 .rodata.BK4819_GetRxGain_dB.str1.1
                0x00000000       0x10 CMakeFiles/n7six.ApeX-k1.v7.6.5.dir/App/driver/bk4829.c.obj
 .text.BK4819_GetRxGain_dB
                0x00000000       0x78 CMakeFiles/n7six.ApeX-k1.v7.6.5.dir/App/driver/bk4829.c.obj
 .text.BK4819_EnableScramble
                0x00000000       0x40 CMakeFiles/n7six.ApeX-k1.v7.6.5.dir/App/driver/bk4829.c.obj
 .text.BK4819_CompanderEnabled
                0x00000000        0xe CMakeFiles/n7six.ApeX-k1.v7.6.5.dir/App/driver/bk4829.c.obj
 .text.BK4819_GetGlitchIndicator
                0x00000000        0xc CMakeFiles/n7six.ApeX-k1.v7.6.5.dir/App/driver/bk4829.c.obj
 .text.BK4819_GetExNoiceIndicator
                0x00000000        0xe CMakeFiles/n7six.ApeX-k1.v7.6.5.dir/App/driver/bk4829.c.obj
 .text.BK4819_GetAfTxRx
                0x00000000        0xe CMakeFiles/n7six.ApeX-k1.v7.6.5.dir/App/driver/bk4829.c.obj
 .text.BK4819_GetCTCShift
                0x00000000        0xe CMakeFiles/n7six.ApeX-k1.v7.6.5.dir/App/driver/bk4829.c.obj
 .text.BK4819_Enable_AfDac_DiscMode_TxDsp
                0x00000000       0x18 CMakeFiles/n7six.ApeX-k1.v7.6.5.dir/App/driver/bk4829.c.obj
 .text.BK4819_GetVoxAmp
                0x00000000       0x12 CMakeFiles/n7six.ApeX-k1.v7.6.5.dir/App/driver/bk4829.c.obj
 .text.BK4819_SetScrambleFrequencyControlWord
                0x00000000       0x1c CMakeFiles/n7six.ApeX-k1.v7.6.5.dir/App/driver/bk4829.c.obj
 .text          0x00000000        0x0 CMakeFiles/n7six.ApeX-k1.v7.6.5.dir/App/driver/py25q16.c.obj
 .data          0x00000000        0x0 CMakeFiles/n7six.ApeX-k1.v7.6.5.dir/App/driver/py25q16.c.obj
 .bss           0x00000000        0x0 CMakeFiles/n7six.ApeX-k1.v7.6.5.dir/App/driver/py25q16.c.obj
 .text          0x00000000        0x0 CMakeFiles/n7six.ApeX-k1.v7.6.5.dir/App/driver/gpio.c.obj
 .data          0x00000000        0x0 CMakeFiles/n7six.ApeX-k1.v7.6.5.dir/App/driver/gpio.c.obj
 .bss           0x00000000        0x0 CMakeFiles/n7six.ApeX-k1.v7.6.5.dir/App/driver/gpio.c.obj
 .comment       0x00000000       0x46 CMakeFiles/n7six.ApeX-k1.v7.6.5.dir/App/driver/gpio.c.obj
 .ARM.attributes
                0x00000000       0x2c CMakeFiles/n7six.ApeX-k1.v7.6.5.dir/App/driver/gpio.c.obj
 .text          0x00000000        0x0 CMakeFiles/n7six.ApeX-k1.v7.6.5.dir/App/driver/i2c.c.obj
 .data          0x00000000        0x0 CMakeFiles/n7six.ApeX-k1.v7.6.5.dir/App/driver/i2c.c.obj
 .bss           0x00000000        0x0 CMakeFiles/n7six.ApeX-k1.v7.6.5.dir/App/driver/i2c.c.obj
 .text          0x00000000        0x0 CMakeFiles/n7six.ApeX-k1.v7.6.5.dir/App/driver/keyboard.c.obj
 .data          0x00000000        0x0 CMakeFiles/n7six.ApeX-k1.v7.6.5.dir/App/driver/keyboard.c.obj
 .bss           0x00000000        0x0 CMakeFiles/n7six.ApeX-k1.v7.6.5.dir/App/driver/keyboard.c.obj
 .text          0x00000000        0x0 CMakeFiles/n7six.ApeX-k1.v7.6.5.dir/App/driver/st7565.c.obj
 .data          0x00000000        0x0 CMakeFiles/n7six.ApeX-k1.v7.6.5.dir/App/driver/st7565.c.obj
 .bss           0x00000000        0x0 CMakeFiles/n7six.ApeX-k1.v7.6.5.dir/App/driver/st7565.c.obj
 .text          0x00000000        0x0 CMakeFiles/n7six.ApeX-k1.v7.6.5.dir/App/driver/system.c.obj
 .data          0x00000000        0x0 CMakeFiles/n7six.ApeX-k1.v7.6.5.dir/App/driver/system.c.obj
 .bss           0x00000000        0x0 CMakeFiles/n7six.ApeX-k1.v7.6.5.dir/App/driver/system.c.obj
 .text.SYSTEM_ConfigureClocks
                0x00000000        0x2 CMakeFiles/n7six.ApeX-k1.v7.6.5.dir/App/driver/system.c.obj
 .text          0x00000000        0x0 CMakeFiles/n7six.ApeX-k1.v7.6.5.dir/App/driver/systick.c.obj
 .data          0x00000000        0x0 CMakeFiles/n7six.ApeX-k1.v7.6.5.dir/App/driver/systick.c.obj
 .bss           0x00000000        0x0 CMakeFiles/n7six.ApeX-k1.v7.6.5.dir/App/driver/systick.c.obj
 .text          0x00000000        0x0 CMakeFiles/n7six.ApeX-k1.v7.6.5.dir/App/app/action.c.obj
 .data          0x00000000        0x0 CMakeFiles/n7six.ApeX-k1.v7.6.5.dir/App/app/action.c.obj
 .bss           0x00000000        0x0 CMakeFiles/n7six.ApeX-k1.v7.6.5.dir/App/app/action.c.obj
 .text          0x00000000        0x0 CMakeFiles/n7six.ApeX-k1.v7.6.5.dir/App/app/app.c.obj
 .data          0x00000000        0x0 CMakeFiles/n7six.ApeX-k1.v7.6.5.dir/App/app/app.c.obj
 .bss           0x00000000        0x0 CMakeFiles/n7six.ApeX-k1.v7.6.5.dir/App/app/app.c.obj
 .text          0x00000000        0x0 CMakeFiles/n7six.ApeX-k1.v7.6.5.dir/App/app/chFrScanner.c.obj
 .data          0x00000000        0x0 CMakeFiles/n7six.ApeX-k1.v7.6.5.dir/App/app/chFrScanner.c.obj
 .bss           0x00000000        0x0 CMakeFiles/n7six.ApeX-k1.v7.6.5.dir/App/app/chFrScanner.c.obj
 .text          0x00000000        0x0 CMakeFiles/n7six.ApeX-k1.v7.6.5.dir/App/app/common.c.obj
 .data          0x00000000        0x0 CMakeFiles/n7six.ApeX-k1.v7.6.5.dir/App/app/common.c.obj
 .bss           0x00000000        0x0 CMakeFiles/n7six.ApeX-k1.v7.6.5.dir/App/app/common.c.obj
 .text          0x00000000        0x0 CMakeFiles/n7six.ApeX-k1.v7.6.5.dir/App/app/dtmf.c.obj
 .data          0x00000000        0x0 CMakeFiles/n7six.ApeX-k1.v7.6.5.dir/App/app/dtmf.c.obj
 .bss           0x00000000        0x0 CMakeFiles/n7six.ApeX-k1.v7.6.5.dir/App/app/dtmf.c.obj
 .text          0x00000000        0x0 CMakeFiles/n7six.ApeX-k1.v7.6.5.dir/App/app/generic.c.obj
 .data          0x00000000        0x0 CMakeFiles/n7six.ApeX-k1.v7.6.5.dir/App/app/generic.c.obj
 .bss           0x00000000        0x0 CMakeFiles/n7six.ApeX-k1.v7.6.5.dir/App/app/generic.c.obj
 .text          0x00000000        0x0 CMakeFiles/n7six.ApeX-k1.v7.6.5.dir/App/app/main.c.obj
 .data          0x00000000        0x0 CMakeFiles/n7six.ApeX-k1.v7.6.5.dir/App/app/main.c.obj
 .bss           0x00000000        0x0 CMakeFiles/n7six.ApeX-k1.v7.6.5.dir/App/app/main.c.obj
 .text          0x00000000        0x0 CMakeFiles/n7six.ApeX-k1.v7.6.5.dir/App/app/menu.c.obj
 .data          0x00000000        0x0 CMakeFiles/n7six.ApeX-k1.v7.6.5.dir/App/app/menu.c.obj
 .bss           0x00000000        0x0 CMakeFiles/n7six.ApeX-k1.v7.6.5.dir/App/app/menu.c.obj
 .text          0x00000000        0x0 CMakeFiles/n7six.ApeX-k1.v7.6.5.dir/App/app/scanner.c.obj
 .data          0x00000000        0x0 CMakeFiles/n7six.ApeX-k1.v7.6.5.dir/App/app/scanner.c.obj
 .bss           0x00000000        0x0 CMakeFiles/n7six.ApeX-k1.v7.6.5.dir/App/app/scanner.c.obj
 .text          0x00000000        0x0 CMakeFiles/n7six.ApeX-k1.v7.6.5.dir/App/audio.c.obj
 .data          0x00000000        0x0 CMakeFiles/n7six.ApeX-k1.v7.6.5.dir/App/audio.c.obj
 .bss           0x00000000        0x0 CMakeFiles/n7six.ApeX-k1.v7.6.5.dir/App/audio.c.obj
 .text          0x00000000        0x0 CMakeFiles/n7six.ApeX-k1.v7.6.5.dir/App/bitmaps.c.obj
 .data          0x00000000        0x0 CMakeFiles/n7six.ApeX-k1.v7.6.5.dir/App/bitmaps.c.obj
 .bss           0x00000000        0x0 CMakeFiles/n7six.ApeX-k1.v7.6.5.dir/App/bitmaps.c.obj
 .rodata.BITMAP_USB_C
                0x00000000        0x9 CMakeFiles/n7six.ApeX-k1.v7.6.5.dir/App/bitmaps.c.obj
 .text          0x00000000        0x0 CMakeFiles/n7six.ApeX-k1.v7.6.5.dir/App/board.c.obj
 .data          0x00000000        0x0 CMakeFiles/n7six.ApeX-k1.v7.6.5.dir/App/board.c.obj
 .bss           0x00000000        0x0 CMakeFiles/n7six.ApeX-k1.v7.6.5.dir/App/board.c.obj
 .text          0x00000000        0x0 CMakeFiles/n7six.ApeX-k1.v7.6.5.dir/App/dcs.c.obj
 .data          0x00000000        0x0 CMakeFiles/n7six.ApeX-k1.v7.6.5.dir/App/dcs.c.obj
 .bss           0x00000000        0x0 CMakeFiles/n7six.ApeX-k1.v7.6.5.dir/App/dcs.c.obj
 .text          0x00000000        0x0 CMakeFiles/n7six.ApeX-k1.v7.6.5.dir/App/font.c.obj
 .data          0x00000000        0x0 CMakeFiles/n7six.ApeX-k1.v7.6.5.dir/App/font.c.obj
 .bss           0x00000000        0x0 CMakeFiles/n7six.ApeX-k1.v7.6.5.dir/App/font.c.obj
 .text          0x00000000        0x0 CMakeFiles/n7six.ApeX-k1.v7.6.5.dir/App/frequencies.c.obj
 .data          0x00000000        0x0 CMakeFiles/n7six.ApeX-k1.v7.6.5.dir/App/frequencies.c.obj
 .bss           0x00000000        0x0 CMakeFiles/n7six.ApeX-k1.v7.6.5.dir/App/frequencies.c.obj
 .text          0x00000000        0x0 CMakeFiles/n7six.ApeX-k1.v7.6.5.dir/App/functions.c.obj
 .data          0x00000000        0x0 CMakeFiles/n7six.ApeX-k1.v7.6.5.dir/App/functions.c.obj
 .bss           0x00000000        0x0 CMakeFiles/n7six.ApeX-k1.v7.6.5.dir/App/functions.c.obj
 .text          0x00000000        0x0 CMakeFiles/n7six.ApeX-k1.v7.6.5.dir/App/helper/battery.c.obj
 .data          0x00000000        0x0 CMakeFiles/n7six.ApeX-k1.v7.6.5.dir/App/helper/battery.c.obj
 .bss           0x00000000        0x0 CMakeFiles/n7six.ApeX-k1.v7.6.5.dir/App/helper/battery.c.obj
 .rodata.lowBatteryPeriod
                0x00000000        0x2 CMakeFiles/n7six.ApeX-k1.v7.6.5.dir/App/helper/battery.c.obj
 .text          0x00000000        0x0 CMakeFiles/n7six.ApeX-k1.v7.6.5.dir/App/helper/boot.c.obj
 .data          0x00000000        0x0 CMakeFiles/n7six.ApeX-k1.v7.6.5.dir/App/helper/boot.c.obj
 .bss           0x00000000        0x0 CMakeFiles/n7six.ApeX-k1.v7.6.5.dir/App/helper/boot.c.obj
 .text          0x00000000        0x0 CMakeFiles/n7six.ApeX-k1.v7.6.5.dir/App/misc.c.obj
 .data          0x00000000        0x0 CMakeFiles/n7six.ApeX-k1.v7.6.5.dir/App/misc.c.obj
 .bss           0x00000000        0x0 CMakeFiles/n7six.ApeX-k1.v7.6.5.dir/App/misc.c.obj
 .bss.gVFO_RSSI
                0x00000000        0x4 CMakeFiles/n7six.ApeX-k1.v7.6.5.dir/App/misc.c.obj
 .bss.gTryCount
                0x00000000        0x1 CMakeFiles/n7six.ApeX-k1.v7.6.5.dir/App/misc.c.obj
 .rodata.gDefaultAesKey
                0x00000000       0x10 CMakeFiles/n7six.ApeX-k1.v7.6.5.dir/App/misc.c.obj
 .rodata.NOAA_countdown_3_10ms
                0x00000000        0x2 CMakeFiles/n7six.ApeX-k1.v7.6.5.dir/App/misc.c.obj
 .rodata.NOAA_countdown_2_10ms
                0x00000000        0x2 CMakeFiles/n7six.ApeX-k1.v7.6.5.dir/App/misc.c.obj
 .rodata.NOAA_countdown_10ms
                0x00000000        0x2 CMakeFiles/n7six.ApeX-k1.v7.6.5.dir/App/misc.c.obj
 .rodata.scan_pause_delay_in_7_10ms
                0x00000000        0x2 CMakeFiles/n7six.ApeX-k1.v7.6.5.dir/App/misc.c.obj
 .rodata.scan_pause_delay_in_6_10ms
                0x00000000        0x2 CMakeFiles/n7six.ApeX-k1.v7.6.5.dir/App/misc.c.obj
 .rodata.scan_pause_delay_in_4_10ms
                0x00000000        0x2 CMakeFiles/n7six.ApeX-k1.v7.6.5.dir/App/misc.c.obj
 .rodata.dual_watch_count_noaa_10ms
                0x00000000        0x2 CMakeFiles/n7six.ApeX-k1.v7.6.5.dir/App/misc.c.obj
 .rodata.dual_watch_count_after_1_10ms
                0x00000000        0x2 CMakeFiles/n7six.ApeX-k1.v7.6.5.dir/App/misc.c.obj
 .text          0x00000000        0x0 CMakeFiles/n7six.ApeX-k1.v7.6.5.dir/App/radio.c.obj
 .data          0x00000000        0x0 CMakeFiles/n7six.ApeX-k1.v7.6.5.dir/App/radio.c.obj
 .bss           0x00000000        0x0 CMakeFiles/n7six.ApeX-k1.v7.6.5.dir/App/radio.c.obj
 .text.RADIO_PrepareCssTX
                0x00000000       0x24 CMakeFiles/n7six.ApeX-k1.v7.6.5.dir/App/radio.c.obj
 .text          0x00000000        0x0 CMakeFiles/n7six.ApeX-k1.v7.6.5.dir/App/scheduler.c.obj
 .data          0x00000000        0x0 CMakeFiles/n7six.ApeX-k1.v7.6.5.dir/App/scheduler.c.obj
 .bss           0x00000000        0x0 CMakeFiles/n7six.ApeX-k1.v7.6.5.dir/App/scheduler.c.obj
 .text          0x00000000        0x0 CMakeFiles/n7six.ApeX-k1.v7.6.5.dir/App/settings.c.obj
 .data          0x00000000        0x0 CMakeFiles/n7six.ApeX-k1.v7.6.5.dir/App/settings.c.obj
 .bss           0x00000000        0x0 CMakeFiles/n7six.ApeX-k1.v7.6.5.dir/App/settings.c.obj
 .text          0x00000000        0x0 CMakeFiles/n7six.ApeX-k1.v7.6.5.dir/App/ui/battery.c.obj
 .data          0x00000000        0x0 CMakeFiles/n7six.ApeX-k1.v7.6.5.dir/App/ui/battery.c.obj
 .bss           0x00000000        0x0 CMakeFiles/n7six.ApeX-k1.v7.6.5.dir/App/ui/battery.c.obj
 .text          0x00000000        0x0 CMakeFiles/n7six.ApeX-k1.v7.6.5.dir/App/ui/helper.c.obj
 .data          0x00000000        0x0 CMakeFiles/n7six.ApeX-k1.v7.6.5.dir/App/ui/helper.c.obj
 .bss           0x00000000        0x0 CMakeFiles/n7six.ApeX-k1.v7.6.5.dir/App/ui/helper.c.obj
 .text.UI_PrintStringSmallBufferBold
                0x00000000       0x10 CMakeFiles/n7six.ApeX-k1.v7.6.5.dir/App/ui/helper.c.obj
 .text          0x00000000        0x0 CMakeFiles/n7six.ApeX-k1.v7.6.5.dir/App/ui/inputbox.c.obj
 .data          0x00000000        0x0 CMakeFiles/n7six.ApeX-k1.v7.6.5.dir/App/ui/inputbox.c.obj
 .bss           0x00000000        0x0 CMakeFiles/n7six.ApeX-k1.v7.6.5.dir/App/ui/inputbox.c.obj
 .text          0x00000000        0x0 CMakeFiles/n7six.ApeX-k1.v7.6.5.dir/App/ui/main.c.obj
 .data          0x00000000        0x0 CMakeFiles/n7six.ApeX-k1.v7.6.5.dir/App/ui/main.c.obj
 .bss           0x00000000        0x0 CMakeFiles/n7six.ApeX-k1.v7.6.5.dir/App/ui/main.c.obj
 .text          0x00000000        0x0 CMakeFiles/n7six.ApeX-k1.v7.6.5.dir/App/ui/menu.c.obj
 .data          0x00000000        0x0 CMakeFiles/n7six.ApeX-k1.v7.6.5.dir/App/ui/menu.c.obj
 .bss           0x00000000        0x0 CMakeFiles/n7six.ApeX-k1.v7.6.5.dir/App/ui/menu.c.obj
 .rodata.gSubMenu_NA
                0x00000000        0x4 CMakeFiles/n7six.ApeX-k1.v7.6.5.dir/App/ui/menu.c.obj
 .text          0x00000000        0x0 CMakeFiles/n7six.ApeX-k1.v7.6.5.dir/App/ui/scanner.c.obj
 .data          0x00000000        0x0 CMakeFiles/n7six.ApeX-k1.v7.6.5.dir/App/ui/scanner.c.obj
 .bss           0x00000000        0x0 CMakeFiles/n7six.ApeX-k1.v7.6.5.dir/App/ui/scanner.c.obj
 .text          0x00000000        0x0 CMakeFiles/n7six.ApeX-k1.v7.6.5.dir/App/ui/status.c.obj
 .data          0x00000000        0x0 CMakeFiles/n7six.ApeX-k1.v7.6.5.dir/App/ui/status.c.obj
 .bss           0x00000000        0x0 CMakeFiles/n7six.ApeX-k1.v7.6.5.dir/App/ui/status.c.obj
 .text          0x00000000        0x0 CMakeFiles/n7six.ApeX-k1.v7.6.5.dir/App/ui/ui.c.obj
 .data          0x00000000        0x0 CMakeFiles/n7six.ApeX-k1.v7.6.5.dir/App/ui/ui.c.obj
 .bss           0x00000000        0x0 CMakeFiles/n7six.ApeX-k1.v7.6.5.dir/App/ui/ui.c.obj
 .text          0x00000000        0x0 CMakeFiles/n7six.ApeX-k1.v7.6.5.dir/App/ui/welcome.c.obj
 .data          0x00000000        0x0 CMakeFiles/n7six.ApeX-k1.v7.6.5.dir/App/ui/welcome.c.obj
 .bss           0x00000000        0x0 CMakeFiles/n7six.ApeX-k1.v7.6.5.dir/App/ui/welcome.c.obj
 .text          0x00000000        0x0 CMakeFiles/n7six.ApeX-k1.v7.6.5.dir/App/version.c.obj
 .data          0x00000000        0x0 CMakeFiles/n7six.ApeX-k1.v7.6.5.dir/App/version.c.obj
 .bss           0x00000000        0x0 CMakeFiles/n7six.ApeX-k1.v7.6.5.dir/App/version.c.obj
 .text          0x00000000        0x0 CMakeFiles/n7six.ApeX-k1.v7.6.5.dir/App/main.c.obj
 .data          0x00000000        0x0 CMakeFiles/n7six.ApeX-k1.v7.6.5.dir/App/main.c.obj
 .bss           0x00000000        0x0 CMakeFiles/n7six.ApeX-k1.v7.6.5.dir/App/main.c.obj
 .text._putchar
                0x00000000       0x12 CMakeFiles/n7six.ApeX-k1.v7.6.5.dir/App/main.c.obj
 .text          0x00000000        0x0 CMakeFiles/n7six.ApeX-k1.v7.6.5.dir/App/external/printf/printf.c.obj
 .data          0x00000000        0x0 CMakeFiles/n7six.ApeX-k1.v7.6.5.dir/App/external/printf/printf.c.obj
 .bss           0x00000000        0x0 CMakeFiles/n7six.ApeX-k1.v7.6.5.dir/App/external/printf/printf.c.obj
 .text._out_char
                0x00000000        0xc CMakeFiles/n7six.ApeX-k1.v7.6.5.dir/App/external/printf/printf.c.obj
 .text._out_fct
                0x00000000        0xe CMakeFiles/n7six.ApeX-k1.v7.6.5.dir/App/external/printf/printf.c.obj
 .text.printf_  0x00000000       0x24 CMakeFiles/n7six.ApeX-k1.v7.6.5.dir/App/external/printf/printf.c.obj
 .text.snprintf_
                0x00000000       0x28 CMakeFiles/n7six.ApeX-k1.v7.6.5.dir/App/external/printf/printf.c.obj
 .text.vprintf_
                0x00000000       0x1c CMakeFiles/n7six.ApeX-k1.v7.6.5.dir/App/external/printf/printf.c.obj
 .text.vsnprintf_
                0x00000000       0x18 CMakeFiles/n7six.ApeX-k1.v7.6.5.dir/App/external/printf/printf.c.obj
 .text.fctprintf
                0x00000000       0x2c CMakeFiles/n7six.ApeX-k1.v7.6.5.dir/App/external/printf/printf.c.obj
 .text          0x00000000        0x0 CMakeFiles/n7six.ApeX-k1.v7.6.5.dir/App/driver/crc.c.obj
 .data          0x00000000        0x0 CMakeFiles/n7six.ApeX-k1.v7.6.5.dir/App/driver/crc.c.obj
 .bss           0x00000000        0x0 CMakeFiles/n7six.ApeX-k1.v7.6.5.dir/App/driver/crc.c.obj
 .text          0x00000000        0x0 CMakeFiles/n7six.ApeX-k1.v7.6.5.dir/App/driver/eeprom_compat.c.obj
 .data          0x00000000        0x0 CMakeFiles/n7six.ApeX-k1.v7.6.5.dir/App/driver/eeprom_compat.c.obj
 .bss           0x00000000        0x0 CMakeFiles/n7six.ApeX-k1.v7.6.5.dir/App/driver/eeprom_compat.c.obj
 .text          0x00000000        0x0 CMakeFiles/n7six.ApeX-k1.v7.6.5.dir/App/driver/uart.c.obj
 .data          0x00000000        0x0 CMakeFiles/n7six.ApeX-k1.v7.6.5.dir/App/driver/uart.c.obj
 .bss           0x00000000        0x0 CMakeFiles/n7six.ApeX-k1.v7.6.5.dir/App/driver/uart.c.obj
 .text.UART_LogSend
                0x00000000        0x2 CMakeFiles/n7six.ApeX-k1.v7.6.5.dir/App/driver/uart.c.obj
 .text          0x00000000        0x0 CMakeFiles/n7six.ApeX-k1.v7.6.5.dir/App/app/uart.c.obj
 .data          0x00000000        0x0 CMakeFiles/n7six.ApeX-k1.v7.6.5.dir/App/app/uart.c.obj
 .bss           0x00000000        0x0 CMakeFiles/n7six.ApeX-k1.v7.6.5.dir/App/app/uart.c.obj
 .text          0x00000000        0x0 CMakeFiles/n7six.ApeX-k1.v7.6.5.dir/App/driver/vcp.c.obj
 .data          0x00000000        0x0 CMakeFiles/n7six.ApeX-k1.v7.6.5.dir/App/driver/vcp.c.obj
 .bss           0x00000000        0x0 CMakeFiles/n7six.ApeX-k1.v7.6.5.dir/App/driver/vcp.c.obj
 .text          0x00000000        0x0 CMakeFiles/n7six.ApeX-k1.v7.6.5.dir/App/usb/usbd_cdc_if.c.obj
 .data          0x00000000        0x0 CMakeFiles/n7six.ApeX-k1.v7.6.5.dir/App/usb/usbd_cdc_if.c.obj
 .bss           0x00000000        0x0 CMakeFiles/n7six.ApeX-k1.v7.6.5.dir/App/usb/usbd_cdc_if.c.obj
 .text.cdc_acm_data_send_with_dtr
                0x00000000       0x30 CMakeFiles/n7six.ApeX-k1.v7.6.5.dir/App/usb/usbd_cdc_if.c.obj
 .data.dma_out_ep_idx
                0x00000000        0x1 CMakeFiles/n7six.ApeX-k1.v7.6.5.dir/App/usb/usbd_cdc_if.c.obj
 .data.dma_in_ep_idx
                0x00000000        0x1 CMakeFiles/n7six.ApeX-k1.v7.6.5.dir/App/usb/usbd_cdc_if.c.obj
 .text          0x00000000        0x0 CMakeFiles/n7six.ApeX-k1.v7.6.5.dir/App/driver/bk1080.c.obj
 .data          0x00000000        0x0 CMakeFiles/n7six.ApeX-k1.v7.6.5.dir/App/driver/bk1080.c.obj
 .bss           0x00000000        0x0 CMakeFiles/n7six.ApeX-k1.v7.6.5.dir/App/driver/bk1080.c.obj
 .text          0x00000000        0x0 CMakeFiles/n7six.ApeX-k1.v7.6.5.dir/App/app/fm.c.obj
 .data          0x00000000        0x0 CMakeFiles/n7six.ApeX-k1.v7.6.5.dir/App/app/fm.c.obj
 .bss           0x00000000        0x0 CMakeFiles/n7six.ApeX-k1.v7.6.5.dir/App/app/fm.c.obj
 .rodata.BUTTON_EVENT_LONG
                0x00000000        0x1 CMakeFiles/n7six.ApeX-k1.v7.6.5.dir/App/app/fm.c.obj
 .rodata.BUTTON_EVENT_SHORT
                0x00000000        0x1 CMakeFiles/n7six.ApeX-k1.v7.6.5.dir/App/app/fm.c.obj
 .rodata.BUTTON_EVENT_HELD
                0x00000000        0x1 CMakeFiles/n7six.ApeX-k1.v7.6.5.dir/App/app/fm.c.obj
 .rodata.BUTTON_EVENT_PRESSED
                0x00000000        0x1 CMakeFiles/n7six.ApeX-k1.v7.6.5.dir/App/app/fm.c.obj
 .rodata.BUTTON_STATE_HELD
                0x00000000        0x1 CMakeFiles/n7six.ApeX-k1.v7.6.5.dir/App/app/fm.c.obj
 .rodata.BUTTON_STATE_PRESSED
                0x00000000        0x1 CMakeFiles/n7six.ApeX-k1.v7.6.5.dir/App/app/fm.c.obj
 .text          0x00000000        0x0 CMakeFiles/n7six.ApeX-k1.v7.6.5.dir/App/ui/fmradio.c.obj
 .data          0x00000000        0x0 CMakeFiles/n7six.ApeX-k1.v7.6.5.dir/App/ui/fmradio.c.obj
 .bss           0x00000000        0x0 CMakeFiles/n7six.ApeX-k1.v7.6.5.dir/App/ui/fmradio.c.obj
 .text          0x00000000        0x0 CMakeFiles/n7six.ApeX-k1.v7.6.5.dir/App/app/aircopy.c.obj
 .data          0x00000000        0x0 CMakeFiles/n7six.ApeX-k1.v7.6.5.dir/App/app/aircopy.c.obj
 .bss           0x00000000        0x0 CMakeFiles/n7six.ApeX-k1.v7.6.5.dir/App/app/aircopy.c.obj
 .text          0x00000000        0x0 CMakeFiles/n7six.ApeX-k1.v7.6.5.dir/App/ui/aircopy.c.obj
 .data          0x00000000        0x0 CMakeFiles/n7six.ApeX-k1.v7.6.5.dir/App/ui/aircopy.c.obj
 .bss           0x00000000        0x0 CMakeFiles/n7six.ApeX-k1.v7.6.5.dir/App/ui/aircopy.c.obj
 .text          0x00000000        0x0 CMakeFiles/n7six.ApeX-k1.v7.6.5.dir/App/app/flashlight.c.obj
 .data          0x00000000        0x0 CMakeFiles/n7six.ApeX-k1.v7.6.5.dir/App/app/flashlight.c.obj
 .bss           0x00000000        0x0 CMakeFiles/n7six.ApeX-k1.v7.6.5.dir/App/app/flashlight.c.obj
 .text          0x00000000        0x0 CMakeFiles/n7six.ApeX-k1.v7.6.5.dir/App/app/spectrum.c.obj
 .data          0x00000000        0x0 CMakeFiles/n7six.ApeX-k1.v7.6.5.dir/App/app/spectrum.c.obj
 .bss           0x00000000        0x0 CMakeFiles/n7six.ApeX-k1.v7.6.5.dir/App/app/spectrum.c.obj
 .text.IsCenterMode
                0x00000000       0x14 CMakeFiles/n7six.ApeX-k1.v7.6.5.dir/App/app/spectrum.c.obj
 .rodata.modTypeReg47Values
                0x00000000        0x3 CMakeFiles/n7six.ApeX-k1.v7.6.5.dir/App/app/spectrum.c.obj
 .bss.waterfallUpdateCounter
                0x00000000        0x2 CMakeFiles/n7six.ApeX-k1.v7.6.5.dir/App/app/spectrum.c.obj
 .text          0x00000000        0x0 CMakeFiles/n7six.ApeX-k1.v7.6.5.dir/App/app/breakout.c.obj
 .data          0x00000000        0x0 CMakeFiles/n7six.ApeX-k1.v7.6.5.dir/App/app/breakout.c.obj
 .bss           0x00000000        0x0 CMakeFiles/n7six.ApeX-k1.v7.6.5.dir/App/app/breakout.c.obj
 .text.srand_custom
                0x00000000        0xc CMakeFiles/n7six.ApeX-k1.v7.6.5.dir/App/app/breakout.c.obj
 .text.randInt  0x00000000       0x16 CMakeFiles/n7six.ApeX-k1.v7.6.5.dir/App/app/breakout.c.obj
 .rodata.BITMAP_blockEmpty
                0x00000000        0xf CMakeFiles/n7six.ApeX-k1.v7.6.5.dir/App/app/breakout.c.obj
 .rodata.BITMAP_blockOn
                0x00000000        0xf CMakeFiles/n7six.ApeX-k1.v7.6.5.dir/App/app/breakout.c.obj
 .text          0x00000000        0x0 CMakeFiles/n7six.ApeX-k1.v7.6.5.dir/App/screenshot.c.obj
 .data          0x00000000        0x0 CMakeFiles/n7six.ApeX-k1.v7.6.5.dir/App/screenshot.c.obj
 .bss           0x00000000        0x0 CMakeFiles/n7six.ApeX-k1.v7.6.5.dir/App/screenshot.c.obj
 .text          0x00000000        0x0 CMakeFiles/n7six.ApeX-k1.v7.6.5.dir/Middlewares/CherryUSB/core/usbd_core.c.obj
 .data          0x00000000        0x0 CMakeFiles/n7six.ApeX-k1.v7.6.5.dir/Middlewares/CherryUSB/core/usbd_core.c.obj
 .bss           0x00000000        0x0 CMakeFiles/n7six.ApeX-k1.v7.6.5.dir/Middlewares/CherryUSB/core/usbd_core.c.obj
 .text.usbd_event_connect_handler
                0x00000000        0xc CMakeFiles/n7six.ApeX-k1.v7.6.5.dir/Middlewares/CherryUSB/core/usbd_core.c.obj
 .text.usbd_event_disconnect_handler
                0x00000000        0xc CMakeFiles/n7six.ApeX-k1.v7.6.5.dir/Middlewares/CherryUSB/core/usbd_core.c.obj
 .text.usbd_msosv1_desc_register
                0x00000000        0xc CMakeFiles/n7six.ApeX-k1.v7.6.5.dir/Middlewares/CherryUSB/core/usbd_core.c.obj
 .text.usbd_msosv2_desc_register
                0x00000000        0xc CMakeFiles/n7six.ApeX-k1.v7.6.5.dir/Middlewares/CherryUSB/core/usbd_core.c.obj
 .text.usbd_bos_desc_register
                0x00000000        0xc CMakeFiles/n7six.ApeX-k1.v7.6.5.dir/Middlewares/CherryUSB/core/usbd_core.c.obj
 .text.usb_device_is_configured
                0x00000000       0x10 CMakeFiles/n7six.ApeX-k1.v7.6.5.dir/Middlewares/CherryUSB/core/usbd_core.c.obj
 .text.usbd_deinitialize
                0x00000000       0x20 CMakeFiles/n7six.ApeX-k1.v7.6.5.dir/Middlewares/CherryUSB/core/usbd_core.c.obj
 .text          0x00000000        0x0 CMakeFiles/n7six.ApeX-k1.v7.6.5.dir/Middlewares/CherryUSB/port/usb_dc_py32.c.obj
 .data          0x00000000        0x0 CMakeFiles/n7six.ApeX-k1.v7.6.5.dir/Middlewares/CherryUSB/port/usb_dc_py32.c.obj
 .bss           0x00000000        0x0 CMakeFiles/n7six.ApeX-k1.v7.6.5.dir/Middlewares/CherryUSB/port/usb_dc_py32.c.obj
 .text.usbd_ep0_reset_zlp_flag
                0x00000000        0xc CMakeFiles/n7six.ApeX-k1.v7.6.5.dir/Middlewares/CherryUSB/port/usb_dc_py32.c.obj
 .text.usb_dc_low_level_deinit
                0x00000000        0x2 CMakeFiles/n7six.ApeX-k1.v7.6.5.dir/Middlewares/CherryUSB/port/usb_dc_py32.c.obj
 .text.usb_dc_deinit
                0x00000000        0x4 CMakeFiles/n7six.ApeX-k1.v7.6.5.dir/Middlewares/CherryUSB/port/usb_dc_py32.c.obj
 .text.usbd_activateremotewakeup
                0x00000000       0x10 CMakeFiles/n7six.ApeX-k1.v7.6.5.dir/Middlewares/CherryUSB/port/usb_dc_py32.c.obj
 .text.usbd_deactivateremotewakeup
                0x00000000       0x10 CMakeFiles/n7six.ApeX-k1.v7.6.5.dir/Middlewares/CherryUSB/port/usb_dc_py32.c.obj
 .text          0x00000000        0x0 CMakeFiles/n7six.ApeX-k1.v7.6.5.dir/Middlewares/CherryUSB/class/cdc/usbd_cdc.c.obj
 .data          0x00000000        0x0 CMakeFiles/n7six.ApeX-k1.v7.6.5.dir/Middlewares/CherryUSB/class/cdc/usbd_cdc.c.obj
 .bss           0x00000000        0x0 CMakeFiles/n7six.ApeX-k1.v7.6.5.dir/Middlewares/CherryUSB/class/cdc/usbd_cdc.c.obj
 .text.usbd_cdc_acm_set_dtr
                0x00000000        0x2 CMakeFiles/n7six.ApeX-k1.v7.6.5.dir/Middlewares/CherryUSB/class/cdc/usbd_cdc.c.obj
 .rodata.str1.1
                0x00000000       0x12 CMakeFiles/n7six.ApeX-k1.v7.6.5.dir/Middlewares/CherryUSB/class/cdc/usbd_cdc.c.obj
 .data.parity_name
                0x00000000       0x14 CMakeFiles/n7six.ApeX-k1.v7.6.5.dir/Middlewares/CherryUSB/class/cdc/usbd_cdc.c.obj
 .data.stop_name
                0x00000000        0xc CMakeFiles/n7six.ApeX-k1.v7.6.5.dir/Middlewares/CherryUSB/class/cdc/usbd_cdc.c.obj
 .data          0x00000000        0x0 /opt/toolchain/bin/../lib/gcc/arm-none-eabi/13.3.1/thumb/v6-m/nofp/libgcc.a(_thumb1_case_sqi.o)
 .bss           0x00000000        0x0 /opt/toolchain/bin/../lib/gcc/arm-none-eabi/13.3.1/thumb/v6-m/nofp/libgcc.a(_thumb1_case_sqi.o)
 .data          0x00000000        0x0 /opt/toolchain/bin/../lib/gcc/arm-none-eabi/13.3.1/thumb/v6-m/nofp/libgcc.a(_thumb1_case_uqi.o)
 .bss           0x00000000        0x0 /opt/toolchain/bin/../lib/gcc/arm-none-eabi/13.3.1/thumb/v6-m/nofp/libgcc.a(_thumb1_case_uqi.o)
 .data          0x00000000        0x0 /opt/toolchain/bin/../lib/gcc/arm-none-eabi/13.3.1/thumb/v6-m/nofp/libgcc.a(_thumb1_case_shi.o)
 .bss           0x00000000        0x0 /opt/toolchain/bin/../lib/gcc/arm-none-eabi/13.3.1/thumb/v6-m/nofp/libgcc.a(_thumb1_case_shi.o)
 .data          0x00000000        0x0 /opt/toolchain/bin/../lib/gcc/arm-none-eabi/13.3.1/thumb/v6-m/nofp/libgcc.a(_thumb1_case_uhi.o)
 .bss           0x00000000        0x0 /opt/toolchain/bin/../lib/gcc/arm-none-eabi/13.3.1/thumb/v6-m/nofp/libgcc.a(_thumb1_case_uhi.o)
 .data          0x00000000        0x0 /opt/toolchain/bin/../lib/gcc/arm-none-eabi/13.3.1/thumb/v6-m/nofp/libgcc.a(_udivsi3.o)
 .bss           0x00000000        0x0 /opt/toolchain/bin/../lib/gcc/arm-none-eabi/13.3.1/thumb/v6-m/nofp/libgcc.a(_udivsi3.o)
 .data          0x00000000        0x0 /opt/toolchain/bin/../lib/gcc/arm-none-eabi/13.3.1/thumb/v6-m/nofp/libgcc.a(_divsi3.o)
 .bss           0x00000000        0x0 /opt/toolchain/bin/../lib/gcc/arm-none-eabi/13.3.1/thumb/v6-m/nofp/libgcc.a(_divsi3.o)
 .data          0x00000000        0x0 /opt/toolchain/bin/../lib/gcc/arm-none-eabi/13.3.1/thumb/v6-m/nofp/libgcc.a(_dvmd_tls.o)
 .bss           0x00000000        0x0 /opt/toolchain/bin/../lib/gcc/arm-none-eabi/13.3.1/thumb/v6-m/nofp/libgcc.a(_dvmd_tls.o)
 .data          0x00000000        0x0 /opt/toolchain/bin/../lib/gcc/arm-none-eabi/13.3.1/thumb/v6-m/nofp/libgcc.a(_clzsi2.o)
 .bss           0x00000000        0x0 /opt/toolchain/bin/../lib/gcc/arm-none-eabi/13.3.1/thumb/v6-m/nofp/libgcc.a(_clzsi2.o)
 .text          0x00000000        0x0 /opt/toolchain/bin/../lib/gcc/arm-none-eabi/13.3.1/thumb/v6-m/nofp/libgcc.a(_muldi3.o)
 .data          0x00000000        0x0 /opt/toolchain/bin/../lib/gcc/arm-none-eabi/13.3.1/thumb/v6-m/nofp/libgcc.a(_muldi3.o)
 .bss           0x00000000        0x0 /opt/toolchain/bin/../lib/gcc/arm-none-eabi/13.3.1/thumb/v6-m/nofp/libgcc.a(_muldi3.o)
 .text          0x00000000        0x0 /opt/toolchain/bin/../lib/gcc/arm-none-eabi/13.3.1/../../../../arm-none-eabi/lib/thumb/v6-m/nofp/libg_nano.a(libc_a-exit.o)
 .data          0x00000000        0x0 /opt/toolchain/bin/../lib/gcc/arm-none-eabi/13.3.1/../../../../arm-none-eabi/lib/thumb/v6-m/nofp/libg_nano.a(libc_a-exit.o)
 .bss           0x00000000        0x0 /opt/toolchain/bin/../lib/gcc/arm-none-eabi/13.3.1/../../../../arm-none-eabi/lib/thumb/v6-m/nofp/libg_nano.a(libc_a-exit.o)
 .text.exit     0x00000000       0x28 /opt/toolchain/bin/../lib/gcc/arm-none-eabi/13.3.1/../../../../arm-none-eabi/lib/thumb/v6-m/nofp/libg_nano.a(libc_a-exit.o)
 .debug_frame   0x00000000       0x28 /opt/toolchain/bin/../lib/gcc/arm-none-eabi/13.3.1/../../../../arm-none-eabi/lib/thumb/v6-m/nofp/libg_nano.a(libc_a-exit.o)
 .ARM.attributes
                0x00000000       0x2c /opt/toolchain/bin/../lib/gcc/arm-none-eabi/13.3.1/../../../../arm-none-eabi/lib/thumb/v6-m/nofp/libg_nano.a(libc_a-exit.o)
 .text          0x00000000        0x0 /opt/toolchain/bin/../lib/gcc/arm-none-eabi/13.3.1/../../../../arm-none-eabi/lib/thumb/v6-m/nofp/libg_nano.a(libc_a-init.o)
 .data          0x00000000        0x0 /opt/toolchain/bin/../lib/gcc/arm-none-eabi/13.3.1/../../../../arm-none-eabi/lib/thumb/v6-m/nofp/libg_nano.a(libc_a-init.o)
 .bss           0x00000000        0x0 /opt/toolchain/bin/../lib/gcc/arm-none-eabi/13.3.1/../../../../arm-none-eabi/lib/thumb/v6-m/nofp/libg_nano.a(libc_a-init.o)
 .text          0x00000000        0x0 /opt/toolchain/bin/../lib/gcc/arm-none-eabi/13.3.1/../../../../arm-none-eabi/lib/thumb/v6-m/nofp/libg_nano.a(libc_a-memmove.o)
 .data          0x00000000        0x0 /opt/toolchain/bin/../lib/gcc/arm-none-eabi/13.3.1/../../../../arm-none-eabi/lib/thumb/v6-m/nofp/libg_nano.a(libc_a-memmove.o)
 .bss           0x00000000        0x0 /opt/toolchain/bin/../lib/gcc/arm-none-eabi/13.3.1/../../../../arm-none-eabi/lib/thumb/v6-m/nofp/libg_nano.a(libc_a-memmove.o)
 .text          0x00000000        0x0 /opt/toolchain/bin/../lib/gcc/arm-none-eabi/13.3.1/../../../../arm-none-eabi/lib/thumb/v6-m/nofp/libg_nano.a(libc_a-memset.o)
 .data          0x00000000        0x0 /opt/toolchain/bin/../lib/gcc/arm-none-eabi/13.3.1/../../../../arm-none-eabi/lib/thumb/v6-m/nofp/libg_nano.a(libc_a-memset.o)
 .bss           0x00000000        0x0 /opt/toolchain/bin/../lib/gcc/arm-none-eabi/13.3.1/../../../../arm-none-eabi/lib/thumb/v6-m/nofp/libg_nano.a(libc_a-memset.o)
 .text          0x00000000        0x0 /opt/toolchain/bin/../lib/gcc/arm-none-eabi/13.3.1/../../../../arm-none-eabi/lib/thumb/v6-m/nofp/libg_nano.a(libc_a-strcpy.o)
 .data          0x00000000        0x0 /opt/toolchain/bin/../lib/gcc/arm-none-eabi/13.3.1/../../../../arm-none-eabi/lib/thumb/v6-m/nofp/libg_nano.a(libc_a-strcpy.o)
 .bss           0x00000000        0x0 /opt/toolchain/bin/../lib/gcc/arm-none-eabi/13.3.1/../../../../arm-none-eabi/lib/thumb/v6-m/nofp/libg_nano.a(libc_a-strcpy.o)
 .text          0x00000000        0x0 /opt/toolchain/bin/../lib/gcc/arm-none-eabi/13.3.1/../../../../arm-none-eabi/lib/thumb/v6-m/nofp/libg_nano.a(libc_a-memcpy-stub.o)
 .data          0x00000000        0x0 /opt/toolchain/bin/../lib/gcc/arm-none-eabi/13.3.1/../../../../arm-none-eabi/lib/thumb/v6-m/nofp/libg_nano.a(libc_a-memcpy-stub.o)
 .bss           0x00000000        0x0 /opt/toolchain/bin/../lib/gcc/arm-none-eabi/13.3.1/../../../../arm-none-eabi/lib/thumb/v6-m/nofp/libg_nano.a(libc_a-memcpy-stub.o)
 .data          0x00000000        0x0 /opt/toolchain/bin/../lib/gcc/arm-none-eabi/13.3.1/../../../../arm-none-eabi/lib/thumb/v6-m/nofp/libg_nano.a(libc_a-strlen.o)
 .bss           0x00000000        0x0 /opt/toolchain/bin/../lib/gcc/arm-none-eabi/13.3.1/../../../../arm-none-eabi/lib/thumb/v6-m/nofp/libg_nano.a(libc_a-strlen.o)
 .text          0x00000000        0x0 /opt/toolchain/bin/../lib/gcc/arm-none-eabi/13.3.1/../../../../arm-none-eabi/lib/thumb/v6-m/nofp/libg_nano.a(libc_a-findfp.o)
 .data          0x00000000        0x0 /opt/toolchain/bin/../lib/gcc/arm-none-eabi/13.3.1/../../../../arm-none-eabi/lib/thumb/v6-m/nofp/libg_nano.a(libc_a-findfp.o)
 .bss           0x00000000        0x0 /opt/toolchain/bin/../lib/gcc/arm-none-eabi/13.3.1/../../../../arm-none-eabi/lib/thumb/v6-m/nofp/libg_nano.a(libc_a-findfp.o)
 .text.std      0x00000000       0x6c /opt/toolchain/bin/../lib/gcc/arm-none-eabi/13.3.1/../../../../arm-none-eabi/lib/thumb/v6-m/nofp/libg_nano.a(libc_a-findfp.o)
 .text.stdio_exit_handler
                0x00000000       0x1c /opt/toolchain/bin/../lib/gcc/arm-none-eabi/13.3.1/../../../../arm-none-eabi/lib/thumb/v6-m/nofp/libg_nano.a(libc_a-findfp.o)
 .text.cleanup_stdio
                0x00000000       0x3c /opt/toolchain/bin/../lib/gcc/arm-none-eabi/13.3.1/../../../../arm-none-eabi/lib/thumb/v6-m/nofp/libg_nano.a(libc_a-findfp.o)
 .text.__fp_lock
                0x00000000       0x18 /opt/toolchain/bin/../lib/gcc/arm-none-eabi/13.3.1/../../../../arm-none-eabi/lib/thumb/v6-m/nofp/libg_nano.a(libc_a-findfp.o)
 .text.__fp_unlock
                0x00000000       0x18 /opt/toolchain/bin/../lib/gcc/arm-none-eabi/13.3.1/../../../../arm-none-eabi/lib/thumb/v6-m/nofp/libg_nano.a(libc_a-findfp.o)
 .text.global_stdio_init.part.0
                0x00000000       0x3c /opt/toolchain/bin/../lib/gcc/arm-none-eabi/13.3.1/../../../../arm-none-eabi/lib/thumb/v6-m/nofp/libg_nano.a(libc_a-findfp.o)
 .text.__sfp_lock_acquire
                0x00000000       0x10 /opt/toolchain/bin/../lib/gcc/arm-none-eabi/13.3.1/../../../../arm-none-eabi/lib/thumb/v6-m/nofp/libg_nano.a(libc_a-findfp.o)
 .text.__sfp_lock_release
                0x00000000       0x10 /opt/toolchain/bin/../lib/gcc/arm-none-eabi/13.3.1/../../../../arm-none-eabi/lib/thumb/v6-m/nofp/libg_nano.a(libc_a-findfp.o)
 .text.__sfp    0x00000000       0xa8 /opt/toolchain/bin/../lib/gcc/arm-none-eabi/13.3.1/../../../../arm-none-eabi/lib/thumb/v6-m/nofp/libg_nano.a(libc_a-findfp.o)
 .text.__sinit  0x00000000       0x30 /opt/toolchain/bin/../lib/gcc/arm-none-eabi/13.3.1/../../../../arm-none-eabi/lib/thumb/v6-m/nofp/libg_nano.a(libc_a-findfp.o)
 .text.__fp_lock_all
                0x00000000       0x1c /opt/toolchain/bin/../lib/gcc/arm-none-eabi/13.3.1/../../../../arm-none-eabi/lib/thumb/v6-m/nofp/libg_nano.a(libc_a-findfp.o)
 .text.__fp_unlock_all
                0x00000000       0x1c /opt/toolchain/bin/../lib/gcc/arm-none-eabi/13.3.1/../../../../arm-none-eabi/lib/thumb/v6-m/nofp/libg_nano.a(libc_a-findfp.o)
 .data.__sglue  0x00000000        0xc /opt/toolchain/bin/../lib/gcc/arm-none-eabi/13.3.1/../../../../arm-none-eabi/lib/thumb/v6-m/nofp/libg_nano.a(libc_a-findfp.o)
 .bss.__sf      0x00000000      0x138 /opt/toolchain/bin/../lib/gcc/arm-none-eabi/13.3.1/../../../../arm-none-eabi/lib/thumb/v6-m/nofp/libg_nano.a(libc_a-findfp.o)
 .bss.__stdio_exit_handler
                0x00000000        0x4 /opt/toolchain/bin/../lib/gcc/arm-none-eabi/13.3.1/../../../../arm-none-eabi/lib/thumb/v6-m/nofp/libg_nano.a(libc_a-findfp.o)
 .debug_frame   0x00000000      0x138 /opt/toolchain/bin/../lib/gcc/arm-none-eabi/13.3.1/../../../../arm-none-eabi/lib/thumb/v6-m/nofp/libg_nano.a(libc_a-findfp.o)
 .ARM.attributes
                0x00000000       0x2c /opt/toolchain/bin/../lib/gcc/arm-none-eabi/13.3.1/../../../../arm-none-eabi/lib/thumb/v6-m/nofp/libg_nano.a(libc_a-findfp.o)
 .text          0x00000000        0x0 /opt/toolchain/bin/../lib/gcc/arm-none-eabi/13.3.1/../../../../arm-none-eabi/lib/thumb/v6-m/nofp/libg_nano.a(libc_a-strncpy.o)
 .data          0x00000000        0x0 /opt/toolchain/bin/../lib/gcc/arm-none-eabi/13.3.1/../../../../arm-none-eabi/lib/thumb/v6-m/nofp/libg_nano.a(libc_a-strncpy.o)
 .bss           0x00000000        0x0 /opt/toolchain/bin/../lib/gcc/arm-none-eabi/13.3.1/../../../../arm-none-eabi/lib/thumb/v6-m/nofp/libg_nano.a(libc_a-strncpy.o)
 .text          0x00000000        0x0 /opt/toolchain/bin/../lib/gcc/arm-none-eabi/13.3.1/../../../../arm-none-eabi/lib/thumb/v6-m/nofp/libg_nano.a(libc_a-stdio.o)
 .data          0x00000000        0x0 /opt/toolchain/bin/../lib/gcc/arm-none-eabi/13.3.1/../../../../arm-none-eabi/lib/thumb/v6-m/nofp/libg_nano.a(libc_a-stdio.o)
 .bss           0x00000000        0x0 /opt/toolchain/bin/../lib/gcc/arm-none-eabi/13.3.1/../../../../arm-none-eabi/lib/thumb/v6-m/nofp/libg_nano.a(libc_a-stdio.o)
 .text.__sread  0x00000000       0x28 /opt/toolchain/bin/../lib/gcc/arm-none-eabi/13.3.1/../../../../arm-none-eabi/lib/thumb/v6-m/nofp/libg_nano.a(libc_a-stdio.o)
 .text.__seofread
                0x00000000        0x4 /opt/toolchain/bin/../lib/gcc/arm-none-eabi/13.3.1/../../../../arm-none-eabi/lib/thumb/v6-m/nofp/libg_nano.a(libc_a-stdio.o)
 .text.__swrite
                0x00000000       0x38 /opt/toolchain/bin/../lib/gcc/arm-none-eabi/13.3.1/../../../../arm-none-eabi/lib/thumb/v6-m/nofp/libg_nano.a(libc_a-stdio.o)
 .text.__sseek  0x00000000       0x2c /opt/toolchain/bin/../lib/gcc/arm-none-eabi/13.3.1/../../../../arm-none-eabi/lib/thumb/v6-m/nofp/libg_nano.a(libc_a-stdio.o)
 .text.__sclose
                0x00000000        0xc /opt/toolchain/bin/../lib/gcc/arm-none-eabi/13.3.1/../../../../arm-none-eabi/lib/thumb/v6-m/nofp/libg_nano.a(libc_a-stdio.o)
 .debug_frame   0x00000000       0x90 /opt/toolchain/bin/../lib/gcc/arm-none-eabi/13.3.1/../../../../arm-none-eabi/lib/thumb/v6-m/nofp/libg_nano.a(libc_a-stdio.o)
 .ARM.attributes
                0x00000000       0x2c /opt/toolchain/bin/../lib/gcc/arm-none-eabi/13.3.1/../../../../arm-none-eabi/lib/thumb/v6-m/nofp/libg_nano.a(libc_a-stdio.o)
 .text          0x00000000        0x0 /opt/toolchain/bin/../lib/gcc/arm-none-eabi/13.3.1/../../../../arm-none-eabi/lib/thumb/v6-m/nofp/libg_nano.a(libc_a-lseekr.o)
 .data          0x00000000        0x0 /opt/toolchain/bin/../lib/gcc/arm-none-eabi/13.3.1/../../../../arm-none-eabi/lib/thumb/v6-m/nofp/libg_nano.a(libc_a-lseekr.o)
 .bss           0x00000000        0x0 /opt/toolchain/bin/../lib/gcc/arm-none-eabi/13.3.1/../../../../arm-none-eabi/lib/thumb/v6-m/nofp/libg_nano.a(libc_a-lseekr.o)
 .text._lseek_r
                0x00000000       0x28 /opt/toolchain/bin/../lib/gcc/arm-none-eabi/13.3.1/../../../../arm-none-eabi/lib/thumb/v6-m/nofp/libg_nano.a(libc_a-lseekr.o)
 .debug_frame   0x00000000       0x2c /opt/toolchain/bin/../lib/gcc/arm-none-eabi/13.3.1/../../../../arm-none-eabi/lib/thumb/v6-m/nofp/libg_nano.a(libc_a-lseekr.o)
 .ARM.attributes
                0x00000000       0x2c /opt/toolchain/bin/../lib/gcc/arm-none-eabi/13.3.1/../../../../arm-none-eabi/lib/thumb/v6-m/nofp/libg_nano.a(libc_a-lseekr.o)
 .text          0x00000000        0x0 /opt/toolchain/bin/../lib/gcc/arm-none-eabi/13.3.1/../../../../arm-none-eabi/lib/thumb/v6-m/nofp/libg_nano.a(libc_a-readr.o)
 .data          0x00000000        0x0 /opt/toolchain/bin/../lib/gcc/arm-none-eabi/13.3.1/../../../../arm-none-eabi/lib/thumb/v6-m/nofp/libg_nano.a(libc_a-readr.o)
 .bss           0x00000000        0x0 /opt/toolchain/bin/../lib/gcc/arm-none-eabi/13.3.1/../../../../arm-none-eabi/lib/thumb/v6-m/nofp/libg_nano.a(libc_a-readr.o)
 .text._read_r  0x00000000       0x28 /opt/toolchain/bin/../lib/gcc/arm-none-eabi/13.3.1/../../../../arm-none-eabi/lib/thumb/v6-m/nofp/libg_nano.a(libc_a-readr.o)
 .debug_frame   0x00000000       0x2c /opt/toolchain/bin/../lib/gcc/arm-none-eabi/13.3.1/../../../../arm-none-eabi/lib/thumb/v6-m/nofp/libg_nano.a(libc_a-readr.o)
 .ARM.attributes
                0x00000000       0x2c /opt/toolchain/bin/../lib/gcc/arm-none-eabi/13.3.1/../../../../arm-none-eabi/lib/thumb/v6-m/nofp/libg_nano.a(libc_a-readr.o)
 .text          0x00000000        0x0 /opt/toolchain/bin/../lib/gcc/arm-none-eabi/13.3.1/../../../../arm-none-eabi/lib/thumb/v6-m/nofp/libg_nano.a(libc_a-fwalk.o)
 .data          0x00000000        0x0 /opt/toolchain/bin/../lib/gcc/arm-none-eabi/13.3.1/../../../../arm-none-eabi/lib/thumb/v6-m/nofp/libg_nano.a(libc_a-fwalk.o)
 .bss           0x00000000        0x0 /opt/toolchain/bin/../lib/gcc/arm-none-eabi/13.3.1/../../../../arm-none-eabi/lib/thumb/v6-m/nofp/libg_nano.a(libc_a-fwalk.o)
 .text._fwalk_sglue
                0x00000000       0x38 /opt/toolchain/bin/../lib/gcc/arm-none-eabi/13.3.1/../../../../arm-none-eabi/lib/thumb/v6-m/nofp/libg_nano.a(libc_a-fwalk.o)
 .debug_frame   0x00000000       0x34 /opt/toolchain/bin/../lib/gcc/arm-none-eabi/13.3.1/../../../../arm-none-eabi/lib/thumb/v6-m/nofp/libg_nano.a(libc_a-fwalk.o)
 .ARM.attributes
                0x00000000       0x2c /opt/toolchain/bin/../lib/gcc/arm-none-eabi/13.3.1/../../../../arm-none-eabi/lib/thumb/v6-m/nofp/libg_nano.a(libc_a-fwalk.o)
 .text          0x00000000        0x0 /opt/toolchain/bin/../lib/gcc/arm-none-eabi/13.3.1/../../../../arm-none-eabi/lib/thumb/v6-m/nofp/libg_nano.a(libc_a-memcmp.o)
 .data          0x00000000        0x0 /opt/toolchain/bin/../lib/gcc/arm-none-eabi/13.3.1/../../../../arm-none-eabi/lib/thumb/v6-m/nofp/libg_nano.a(libc_a-memcmp.o)
 .bss           0x00000000        0x0 /opt/toolchain/bin/../lib/gcc/arm-none-eabi/13.3.1/../../../../arm-none-eabi/lib/thumb/v6-m/nofp/libg_nano.a(libc_a-memcmp.o)
 .text          0x00000000        0x0 /opt/toolchain/bin/../lib/gcc/arm-none-eabi/13.3.1/../../../../arm-none-eabi/lib/thumb/v6-m/nofp/libg_nano.a(libc_a-writer.o)
 .data          0x00000000        0x0 /opt/toolchain/bin/../lib/gcc/arm-none-eabi/13.3.1/../../../../arm-none-eabi/lib/thumb/v6-m/nofp/libg_nano.a(libc_a-writer.o)
 .bss           0x00000000        0x0 /opt/toolchain/bin/../lib/gcc/arm-none-eabi/13.3.1/../../../../arm-none-eabi/lib/thumb/v6-m/nofp/libg_nano.a(libc_a-writer.o)
 .text._write_r
                0x00000000       0x28 /opt/toolchain/bin/../lib/gcc/arm-none-eabi/13.3.1/../../../../arm-none-eabi/lib/thumb/v6-m/nofp/libg_nano.a(libc_a-writer.o)
 .debug_frame   0x00000000       0x2c /opt/toolchain/bin/../lib/gcc/arm-none-eabi/13.3.1/../../../../arm-none-eabi/lib/thumb/v6-m/nofp/libg_nano.a(libc_a-writer.o)
 .ARM.attributes
                0x00000000       0x2c /opt/toolchain/bin/../lib/gcc/arm-none-eabi/13.3.1/../../../../arm-none-eabi/lib/thumb/v6-m/nofp/libg_nano.a(libc_a-writer.o)
 .text          0x00000000        0x0 /opt/toolchain/bin/../lib/gcc/arm-none-eabi/13.3.1/../../../../arm-none-eabi/lib/thumb/v6-m/nofp/libg_nano.a(libc_a-lock.o)
 .data          0x00000000        0x0 /opt/toolchain/bin/../lib/gcc/arm-none-eabi/13.3.1/../../../../arm-none-eabi/lib/thumb/v6-m/nofp/libg_nano.a(libc_a-lock.o)
 .bss           0x00000000        0x0 /opt/toolchain/bin/../lib/gcc/arm-none-eabi/13.3.1/../../../../arm-none-eabi/lib/thumb/v6-m/nofp/libg_nano.a(libc_a-lock.o)
 .text.__retarget_lock_init
                0x00000000        0x2 /opt/toolchain/bin/../lib/gcc/arm-none-eabi/13.3.1/../../../../arm-none-eabi/lib/thumb/v6-m/nofp/libg_nano.a(libc_a-lock.o)
 .text.__retarget_lock_init_recursive
                0x00000000        0x2 /opt/toolchain/bin/../lib/gcc/arm-none-eabi/13.3.1/../../../../arm-none-eabi/lib/thumb/v6-m/nofp/libg_nano.a(libc_a-lock.o)
 .text.__retarget_lock_close
                0x00000000        0x2 /opt/toolchain/bin/../lib/gcc/arm-none-eabi/13.3.1/../../../../arm-none-eabi/lib/thumb/v6-m/nofp/libg_nano.a(libc_a-lock.o)
 .text.__retarget_lock_close_recursive
                0x00000000        0x2 /opt/toolchain/bin/../lib/gcc/arm-none-eabi/13.3.1/../../../../arm-none-eabi/lib/thumb/v6-m/nofp/libg_nano.a(libc_a-lock.o)
 .text.__retarget_lock_acquire
                0x00000000        0x2 /opt/toolchain/bin/../lib/gcc/arm-none-eabi/13.3.1/../../../../arm-none-eabi/lib/thumb/v6-m/nofp/libg_nano.a(libc_a-lock.o)
 .text.__retarget_lock_acquire_recursive
                0x00000000        0x2 /opt/toolchain/bin/../lib/gcc/arm-none-eabi/13.3.1/../../../../arm-none-eabi/lib/thumb/v6-m/nofp/libg_nano.a(libc_a-lock.o)
 .text.__retarget_lock_try_acquire
                0x00000000        0x4 /opt/toolchain/bin/../lib/gcc/arm-none-eabi/13.3.1/../../../../arm-none-eabi/lib/thumb/v6-m/nofp/libg_nano.a(libc_a-lock.o)
 .text.__retarget_lock_try_acquire_recursive
                0x00000000        0x4 /opt/toolchain/bin/../lib/gcc/arm-none-eabi/13.3.1/../../../../arm-none-eabi/lib/thumb/v6-m/nofp/libg_nano.a(libc_a-lock.o)
 .text.__retarget_lock_release
                0x00000000        0x2 /opt/toolchain/bin/../lib/gcc/arm-none-eabi/13.3.1/../../../../arm-none-eabi/lib/thumb/v6-m/nofp/libg_nano.a(libc_a-lock.o)
 .text.__retarget_lock_release_recursive
                0x00000000        0x2 /opt/toolchain/bin/../lib/gcc/arm-none-eabi/13.3.1/../../../../arm-none-eabi/lib/thumb/v6-m/nofp/libg_nano.a(libc_a-lock.o)
 .bss.__lock___arc4random_mutex
                0x00000000        0x1 /opt/toolchain/bin/../lib/gcc/arm-none-eabi/13.3.1/../../../../arm-none-eabi/lib/thumb/v6-m/nofp/libg_nano.a(libc_a-lock.o)
 .bss.__lock___dd_hash_mutex
                0x00000000        0x1 /opt/toolchain/bin/../lib/gcc/arm-none-eabi/13.3.1/../../../../arm-none-eabi/lib/thumb/v6-m/nofp/libg_nano.a(libc_a-lock.o)
 .bss.__lock___tz_mutex
                0x00000000        0x1 /opt/toolchain/bin/../lib/gcc/arm-none-eabi/13.3.1/../../../../arm-none-eabi/lib/thumb/v6-m/nofp/libg_nano.a(libc_a-lock.o)
 .bss.__lock___env_recursive_mutex
                0x00000000        0x1 /opt/toolchain/bin/../lib/gcc/arm-none-eabi/13.3.1/../../../../arm-none-eabi/lib/thumb/v6-m/nofp/libg_nano.a(libc_a-lock.o)
 .bss.__lock___malloc_recursive_mutex
                0x00000000        0x1 /opt/toolchain/bin/../lib/gcc/arm-none-eabi/13.3.1/../../../../arm-none-eabi/lib/thumb/v6-m/nofp/libg_nano.a(libc_a-lock.o)
 .bss.__lock___at_quick_exit_mutex
                0x00000000        0x1 /opt/toolchain/bin/../lib/gcc/arm-none-eabi/13.3.1/../../../../arm-none-eabi/lib/thumb/v6-m/nofp/libg_nano.a(libc_a-lock.o)
 .bss.__lock___atexit_recursive_mutex
                0x00000000        0x1 /opt/toolchain/bin/../lib/gcc/arm-none-eabi/13.3.1/../../../../arm-none-eabi/lib/thumb/v6-m/nofp/libg_nano.a(libc_a-lock.o)
 .bss.__lock___sfp_recursive_mutex
                0x00000000        0x1 /opt/toolchain/bin/../lib/gcc/arm-none-eabi/13.3.1/../../../../arm-none-eabi/lib/thumb/v6-m/nofp/libg_nano.a(libc_a-lock.o)
 .debug_frame   0x00000000       0xb0 /opt/toolchain/bin/../lib/gcc/arm-none-eabi/13.3.1/../../../../arm-none-eabi/lib/thumb/v6-m/nofp/libg_nano.a(libc_a-lock.o)
 .ARM.attributes
                0x00000000       0x2c /opt/toolchain/bin/../lib/gcc/arm-none-eabi/13.3.1/../../../../arm-none-eabi/lib/thumb/v6-m/nofp/libg_nano.a(libc_a-lock.o)
 .text          0x00000000        0x0 /opt/toolchain/bin/../lib/gcc/arm-none-eabi/13.3.1/../../../../arm-none-eabi/lib/thumb/v6-m/nofp/libg_nano.a(libc_a-fflush.o)
 .data          0x00000000        0x0 /opt/toolchain/bin/../lib/gcc/arm-none-eabi/13.3.1/../../../../arm-none-eabi/lib/thumb/v6-m/nofp/libg_nano.a(libc_a-fflush.o)
 .bss           0x00000000        0x0 /opt/toolchain/bin/../lib/gcc/arm-none-eabi/13.3.1/../../../../arm-none-eabi/lib/thumb/v6-m/nofp/libg_nano.a(libc_a-fflush.o)
 .text.__sflush_r
                0x00000000      0x10c /opt/toolchain/bin/../lib/gcc/arm-none-eabi/13.3.1/../../../../arm-none-eabi/lib/thumb/v6-m/nofp/libg_nano.a(libc_a-fflush.o)
 .text._fflush_r
                0x00000000       0x56 /opt/toolchain/bin/../lib/gcc/arm-none-eabi/13.3.1/../../../../arm-none-eabi/lib/thumb/v6-m/nofp/libg_nano.a(libc_a-fflush.o)
 .text.fflush   0x00000000       0x30 /opt/toolchain/bin/../lib/gcc/arm-none-eabi/13.3.1/../../../../arm-none-eabi/lib/thumb/v6-m/nofp/libg_nano.a(libc_a-fflush.o)
 .debug_frame   0x00000000       0x68 /opt/toolchain/bin/../lib/gcc/arm-none-eabi/13.3.1/../../../../arm-none-eabi/lib/thumb/v6-m/nofp/libg_nano.a(libc_a-fflush.o)
 .ARM.attributes
                0x00000000       0x2c /opt/toolchain/bin/../lib/gcc/arm-none-eabi/13.3.1/../../../../arm-none-eabi/lib/thumb/v6-m/nofp/libg_nano.a(libc_a-fflush.o)
 .text          0x00000000        0x0 /opt/toolchain/bin/../lib/gcc/arm-none-eabi/13.3.1/../../../../arm-none-eabi/lib/thumb/v6-m/nofp/libg_nano.a(libc_a-mallocr.o)
 .data          0x00000000        0x0 /opt/toolchain/bin/../lib/gcc/arm-none-eabi/13.3.1/../../../../arm-none-eabi/lib/thumb/v6-m/nofp/libg_nano.a(libc_a-mallocr.o)
 .bss           0x00000000        0x0 /opt/toolchain/bin/../lib/gcc/arm-none-eabi/13.3.1/../../../../arm-none-eabi/lib/thumb/v6-m/nofp/libg_nano.a(libc_a-mallocr.o)
 .text.sbrk_aligned
                0x00000000       0x44 /opt/toolchain/bin/../lib/gcc/arm-none-eabi/13.3.1/../../../../arm-none-eabi/lib/thumb/v6-m/nofp/libg_nano.a(libc_a-mallocr.o)
 .text._malloc_r
                0x00000000      0x100 /opt/toolchain/bin/../lib/gcc/arm-none-eabi/13.3.1/../../../../arm-none-eabi/lib/thumb/v6-m/nofp/libg_nano.a(libc_a-mallocr.o)
 .bss.__malloc_sbrk_start
                0x00000000        0x4 /opt/toolchain/bin/../lib/gcc/arm-none-eabi/13.3.1/../../../../arm-none-eabi/lib/thumb/v6-m/nofp/libg_nano.a(libc_a-mallocr.o)
 .bss.__malloc_free_list
                0x00000000        0x4 /opt/toolchain/bin/../lib/gcc/arm-none-eabi/13.3.1/../../../../arm-none-eabi/lib/thumb/v6-m/nofp/libg_nano.a(libc_a-mallocr.o)
 .debug_frame   0x00000000       0x50 /opt/toolchain/bin/../lib/gcc/arm-none-eabi/13.3.1/../../../../arm-none-eabi/lib/thumb/v6-m/nofp/libg_nano.a(libc_a-mallocr.o)
 .ARM.attributes
                0x00000000       0x2c /opt/toolchain/bin/../lib/gcc/arm-none-eabi/13.3.1/../../../../arm-none-eabi/lib/thumb/v6-m/nofp/libg_nano.a(libc_a-mallocr.o)
 .text          0x00000000        0x0 /opt/toolchain/bin/../lib/gcc/arm-none-eabi/13.3.1/../../../../arm-none-eabi/lib/thumb/v6-m/nofp/libg_nano.a(libc_a-closer.o)
 .data          0x00000000        0x0 /opt/toolchain/bin/../lib/gcc/arm-none-eabi/13.3.1/../../../../arm-none-eabi/lib/thumb/v6-m/nofp/libg_nano.a(libc_a-closer.o)
 .bss           0x00000000        0x0 /opt/toolchain/bin/../lib/gcc/arm-none-eabi/13.3.1/../../../../arm-none-eabi/lib/thumb/v6-m/nofp/libg_nano.a(libc_a-closer.o)
 .text._close_r
                0x00000000       0x24 /opt/toolchain/bin/../lib/gcc/arm-none-eabi/13.3.1/../../../../arm-none-eabi/lib/thumb/v6-m/nofp/libg_nano.a(libc_a-closer.o)
 .debug_frame   0x00000000       0x2c /opt/toolchain/bin/../lib/gcc/arm-none-eabi/13.3.1/../../../../arm-none-eabi/lib/thumb/v6-m/nofp/libg_nano.a(libc_a-closer.o)
 .ARM.attributes
                0x00000000       0x2c /opt/toolchain/bin/../lib/gcc/arm-none-eabi/13.3.1/../../../../arm-none-eabi/lib/thumb/v6-m/nofp/libg_nano.a(libc_a-closer.o)
 .text          0x00000000        0x0 /opt/toolchain/bin/../lib/gcc/arm-none-eabi/13.3.1/../../../../arm-none-eabi/lib/thumb/v6-m/nofp/libg_nano.a(libc_a-reent.o)
 .data          0x00000000        0x0 /opt/toolchain/bin/../lib/gcc/arm-none-eabi/13.3.1/../../../../arm-none-eabi/lib/thumb/v6-m/nofp/libg_nano.a(libc_a-reent.o)
 .bss           0x00000000        0x0 /opt/toolchain/bin/../lib/gcc/arm-none-eabi/13.3.1/../../../../arm-none-eabi/lib/thumb/v6-m/nofp/libg_nano.a(libc_a-reent.o)
 .text._reclaim_reent
                0x00000000       0xd4 /opt/toolchain/bin/../lib/gcc/arm-none-eabi/13.3.1/../../../../arm-none-eabi/lib/thumb/v6-m/nofp/libg_nano.a(libc_a-reent.o)
 .bss.errno     0x00000000        0x4 /opt/toolchain/bin/../lib/gcc/arm-none-eabi/13.3.1/../../../../arm-none-eabi/lib/thumb/v6-m/nofp/libg_nano.a(libc_a-reent.o)
 .debug_frame   0x00000000       0x2c /opt/toolchain/bin/../lib/gcc/arm-none-eabi/13.3.1/../../../../arm-none-eabi/lib/thumb/v6-m/nofp/libg_nano.a(libc_a-reent.o)
 .ARM.attributes
                0x00000000       0x2c /opt/toolchain/bin/../lib/gcc/arm-none-eabi/13.3.1/../../../../arm-none-eabi/lib/thumb/v6-m/nofp/libg_nano.a(libc_a-reent.o)
 .text          0x00000000        0x0 /opt/toolchain/bin/../lib/gcc/arm-none-eabi/13.3.1/../../../../arm-none-eabi/lib/thumb/v6-m/nofp/libg_nano.a(libc_a-impure.o)
 .data          0x00000000        0x0 /opt/toolchain/bin/../lib/gcc/arm-none-eabi/13.3.1/../../../../arm-none-eabi/lib/thumb/v6-m/nofp/libg_nano.a(libc_a-impure.o)
 .bss           0x00000000        0x0 /opt/toolchain/bin/../lib/gcc/arm-none-eabi/13.3.1/../../../../arm-none-eabi/lib/thumb/v6-m/nofp/libg_nano.a(libc_a-impure.o)
 .data._impure_ptr
                0x00000000        0x4 /opt/toolchain/bin/../lib/gcc/arm-none-eabi/13.3.1/../../../../arm-none-eabi/lib/thumb/v6-m/nofp/libg_nano.a(libc_a-impure.o)
 .data._impure_data
                0x00000000       0x4c /opt/toolchain/bin/../lib/gcc/arm-none-eabi/13.3.1/../../../../arm-none-eabi/lib/thumb/v6-m/nofp/libg_nano.a(libc_a-impure.o)
 .ARM.attributes
                0x00000000       0x2c /opt/toolchain/bin/../lib/gcc/arm-none-eabi/13.3.1/../../../../arm-none-eabi/lib/thumb/v6-m/nofp/libg_nano.a(libc_a-impure.o)
 .text          0x00000000        0x0 /opt/toolchain/bin/../lib/gcc/arm-none-eabi/13.3.1/../../../../arm-none-eabi/lib/thumb/v6-m/nofp/libg_nano.a(libc_a-mlock.o)
 .data          0x00000000        0x0 /opt/toolchain/bin/../lib/gcc/arm-none-eabi/13.3.1/../../../../arm-none-eabi/lib/thumb/v6-m/nofp/libg_nano.a(libc_a-mlock.o)
 .bss           0x00000000        0x0 /opt/toolchain/bin/../lib/gcc/arm-none-eabi/13.3.1/../../../../arm-none-eabi/lib/thumb/v6-m/nofp/libg_nano.a(libc_a-mlock.o)
 .text.__malloc_lock
                0x00000000       0x10 /opt/toolchain/bin/../lib/gcc/arm-none-eabi/13.3.1/../../../../arm-none-eabi/lib/thumb/v6-m/nofp/libg_nano.a(libc_a-mlock.o)
 .text.__malloc_unlock
                0x00000000       0x10 /opt/toolchain/bin/../lib/gcc/arm-none-eabi/13.3.1/../../../../arm-none-eabi/lib/thumb/v6-m/nofp/libg_nano.a(libc_a-mlock.o)
 .debug_frame   0x00000000       0x40 /opt/toolchain/bin/../lib/gcc/arm-none-eabi/13.3.1/../../../../arm-none-eabi/lib/thumb/v6-m/nofp/libg_nano.a(libc_a-mlock.o)
 .ARM.attributes
                0x00000000       0x2c /opt/toolchain/bin/../lib/gcc/arm-none-eabi/13.3.1/../../../../arm-none-eabi/lib/thumb/v6-m/nofp/libg_nano.a(libc_a-mlock.o)
 .text          0x00000000        0x0 /opt/toolchain/bin/../lib/gcc/arm-none-eabi/13.3.1/../../../../arm-none-eabi/lib/thumb/v6-m/nofp/libg_nano.a(libc_a-sbrkr.o)
 .data          0x00000000        0x0 /opt/toolchain/bin/../lib/gcc/arm-none-eabi/13.3.1/../../../../arm-none-eabi/lib/thumb/v6-m/nofp/libg_nano.a(libc_a-sbrkr.o)
 .bss           0x00000000        0x0 /opt/toolchain/bin/../lib/gcc/arm-none-eabi/13.3.1/../../../../arm-none-eabi/lib/thumb/v6-m/nofp/libg_nano.a(libc_a-sbrkr.o)
 .text._sbrk_r  0x00000000       0x24 /opt/toolchain/bin/../lib/gcc/arm-none-eabi/13.3.1/../../../../arm-none-eabi/lib/thumb/v6-m/nofp/libg_nano.a(libc_a-sbrkr.o)
 .debug_frame   0x00000000       0x2c /opt/toolchain/bin/../lib/gcc/arm-none-eabi/13.3.1/../../../../arm-none-eabi/lib/thumb/v6-m/nofp/libg_nano.a(libc_a-sbrkr.o)
 .ARM.attributes
                0x00000000       0x2c /opt/toolchain/bin/../lib/gcc/arm-none-eabi/13.3.1/../../../../arm-none-eabi/lib/thumb/v6-m/nofp/libg_nano.a(libc_a-sbrkr.o)
 .text          0x00000000        0x0 /opt/toolchain/bin/../lib/gcc/arm-none-eabi/13.3.1/../../../../arm-none-eabi/lib/thumb/v6-m/nofp/libg_nano.a(libc_a-freer.o)
 .data          0x00000000        0x0 /opt/toolchain/bin/../lib/gcc/arm-none-eabi/13.3.1/../../../../arm-none-eabi/lib/thumb/v6-m/nofp/libg_nano.a(libc_a-freer.o)
 .bss           0x00000000        0x0 /opt/toolchain/bin/../lib/gcc/arm-none-eabi/13.3.1/../../../../arm-none-eabi/lib/thumb/v6-m/nofp/libg_nano.a(libc_a-freer.o)
 .text._free_r  0x00000000       0x94 /opt/toolchain/bin/../lib/gcc/arm-none-eabi/13.3.1/../../../../arm-none-eabi/lib/thumb/v6-m/nofp/libg_nano.a(libc_a-freer.o)
 .debug_frame   0x00000000       0x2c /opt/toolchain/bin/../lib/gcc/arm-none-eabi/13.3.1/../../../../arm-none-eabi/lib/thumb/v6-m/nofp/libg_nano.a(libc_a-freer.o)
 .ARM.attributes
                0x00000000       0x2c /opt/toolchain/bin/../lib/gcc/arm-none-eabi/13.3.1/../../../../arm-none-eabi/lib/thumb/v6-m/nofp/libg_nano.a(libc_a-freer.o)
 .text          0x00000000        0x0 /opt/toolchain/bin/../lib/gcc/arm-none-eabi/13.3.1/thumb/v6-m/nofp/crtend.o
 .data          0x00000000        0x0 /opt/toolchain/bin/../lib/gcc/arm-none-eabi/13.3.1/thumb/v6-m/nofp/crtend.o
 .bss           0x00000000        0x0 /opt/toolchain/bin/../lib/gcc/arm-none-eabi/13.3.1/thumb/v6-m/nofp/crtend.o
 .rodata.all_implied_fbits
                0x00000000       0x24 /opt/toolchain/bin/../lib/gcc/arm-none-eabi/13.3.1/thumb/v6-m/nofp/crtend.o
 .eh_frame      0x00000000        0x4 /opt/toolchain/bin/../lib/gcc/arm-none-eabi/13.3.1/thumb/v6-m/nofp/crtend.o
 .text          0x00000000        0x0 /opt/toolchain/bin/../lib/gcc/arm-none-eabi/13.3.1/thumb/v6-m/nofp/crtn.o
 .data          0x00000000        0x0 /opt/toolchain/bin/../lib/gcc/arm-none-eabi/13.3.1/thumb/v6-m/nofp/crtn.o
 .bss           0x00000000        0x0 /opt/toolchain/bin/../lib/gcc/arm-none-eabi/13.3.1/thumb/v6-m/nofp/crtn.o

Memory Configuration

Name             Origin             Length             Attributes
RAM              0x20000000         0x00004000         xrw
FLASH            0x08002800         0x0001d800         xr
*default*        0x00000000         0xffffffff

Linker script and memory map

LOAD /opt/toolchain/bin/../lib/gcc/arm-none-eabi/13.3.1/thumb/v6-m/nofp/crti.o
LOAD /opt/toolchain/bin/../lib/gcc/arm-none-eabi/13.3.1/thumb/v6-m/nofp/crtbegin.o
LOAD /opt/toolchain/bin/../lib/gcc/arm-none-eabi/13.3.1/../../../../arm-none-eabi/lib/thumb/v6-m/nofp/crt0.o
LOAD CMakeFiles/n7six.ApeX-k1.v7.6.5.dir/Core/Src/main.c.obj
LOAD CMakeFiles/n7six.ApeX-k1.v7.6.5.dir/Core/Src/py32f071_it.c.obj
LOAD CMakeFiles/n7six.ApeX-k1.v7.6.5.dir/Core/Src/system_py32f071.c.obj
LOAD CMakeFiles/n7six.ApeX-k1.v7.6.5.dir/Core/startup_py32f071xx.s.obj
LOAD CMakeFiles/n7six.ApeX-k1.v7.6.5.dir/Drivers/PY32F071_HAL_Driver/Src/py32f071_ll_rcc.c.obj
LOAD CMakeFiles/n7six.ApeX-k1.v7.6.5.dir/Drivers/PY32F071_HAL_Driver/Src/py32f071_ll_pwr.c.obj
LOAD CMakeFiles/n7six.ApeX-k1.v7.6.5.dir/Drivers/PY32F071_HAL_Driver/Src/py32f071_ll_dma.c.obj
LOAD CMakeFiles/n7six.ApeX-k1.v7.6.5.dir/Drivers/PY32F071_HAL_Driver/Src/py32f071_ll_gpio.c.obj
LOAD CMakeFiles/n7six.ApeX-k1.v7.6.5.dir/Drivers/PY32F071_HAL_Driver/Src/py32f071_ll_utils.c.obj
LOAD CMakeFiles/n7six.ApeX-k1.v7.6.5.dir/Drivers/PY32F071_HAL_Driver/Src/py32f071_ll_adc.c.obj
LOAD CMakeFiles/n7six.ApeX-k1.v7.6.5.dir/Drivers/PY32F071_HAL_Driver/Src/py32f071_ll_comp.c.obj
LOAD CMakeFiles/n7six.ApeX-k1.v7.6.5.dir/Drivers/PY32F071_HAL_Driver/Src/py32f071_ll_crc.c.obj
LOAD CMakeFiles/n7six.ApeX-k1.v7.6.5.dir/Drivers/PY32F071_HAL_Driver/Src/py32f071_ll_dac.c.obj
LOAD CMakeFiles/n7six.ApeX-k1.v7.6.5.dir/Drivers/PY32F071_HAL_Driver/Src/py32f071_ll_exti.c.obj
LOAD CMakeFiles/n7six.ApeX-k1.v7.6.5.dir/Drivers/PY32F071_HAL_Driver/Src/py32f071_ll_i2c.c.obj
LOAD CMakeFiles/n7six.ApeX-k1.v7.6.5.dir/Drivers/PY32F071_HAL_Driver/Src/py32f071_ll_rtc.c.obj
LOAD CMakeFiles/n7six.ApeX-k1.v7.6.5.dir/Drivers/PY32F071_HAL_Driver/Src/py32f071_ll_spi.c.obj
LOAD CMakeFiles/n7six.ApeX-k1.v7.6.5.dir/Drivers/PY32F071_HAL_Driver/Src/py32f071_ll_tim.c.obj
LOAD CMakeFiles/n7six.ApeX-k1.v7.6.5.dir/Drivers/PY32F071_HAL_Driver/Src/py32f071_ll_lptim.c.obj
LOAD CMakeFiles/n7six.ApeX-k1.v7.6.5.dir/Drivers/PY32F071_HAL_Driver/Src/py32f071_ll_usart.c.obj
LOAD CMakeFiles/n7six.ApeX-k1.v7.6.5.dir/App/driver/backlight.c.obj
LOAD CMakeFiles/n7six.ApeX-k1.v7.6.5.dir/App/driver/bk4829.c.obj
LOAD CMakeFiles/n7six.ApeX-k1.v7.6.5.dir/App/driver/py25q16.c.obj
LOAD CMakeFiles/n7six.ApeX-k1.v7.6.5.dir/App/driver/gpio.c.obj
LOAD CMakeFiles/n7six.ApeX-k1.v7.6.5.dir/App/driver/i2c.c.obj
LOAD CMakeFiles/n7six.ApeX-k1.v7.6.5.dir/App/driver/keyboard.c.obj
LOAD CMakeFiles/n7six.ApeX-k1.v7.6.5.dir/App/driver/st7565.c.obj
LOAD CMakeFiles/n7six.ApeX-k1.v7.6.5.dir/App/driver/system.c.obj
LOAD CMakeFiles/n7six.ApeX-k1.v7.6.5.dir/App/driver/systick.c.obj
LOAD CMakeFiles/n7six.ApeX-k1.v7.6.5.dir/App/app/action.c.obj
LOAD CMakeFiles/n7six.ApeX-k1.v7.6.5.dir/App/app/app.c.obj
LOAD CMakeFiles/n7six.ApeX-k1.v7.6.5.dir/App/app/chFrScanner.c.obj
LOAD CMakeFiles/n7six.ApeX-k1.v7.6.5.dir/App/app/common.c.obj
LOAD CMakeFiles/n7six.ApeX-k1.v7.6.5.dir/App/app/dtmf.c.obj
LOAD CMakeFiles/n7six.ApeX-k1.v7.6.5.dir/App/app/generic.c.obj
LOAD CMakeFiles/n7six.ApeX-k1.v7.6.5.dir/App/app/main.c.obj
LOAD CMakeFiles/n7six.ApeX-k1.v7.6.5.dir/App/app/menu.c.obj
LOAD CMakeFiles/n7six.ApeX-k1.v7.6.5.dir/App/app/scanner.c.obj
LOAD CMakeFiles/n7six.ApeX-k1.v7.6.5.dir/App/audio.c.obj
LOAD CMakeFiles/n7six.ApeX-k1.v7.6.5.dir/App/bitmaps.c.obj
LOAD CMakeFiles/n7six.ApeX-k1.v7.6.5.dir/App/board.c.obj
LOAD CMakeFiles/n7six.ApeX-k1.v7.6.5.dir/App/dcs.c.obj
LOAD CMakeFiles/n7six.ApeX-k1.v7.6.5.dir/App/font.c.obj
LOAD CMakeFiles/n7six.ApeX-k1.v7.6.5.dir/App/frequencies.c.obj
LOAD CMakeFiles/n7six.ApeX-k1.v7.6.5.dir/App/functions.c.obj
LOAD CMakeFiles/n7six.ApeX-k1.v7.6.5.dir/App/helper/battery.c.obj
LOAD CMakeFiles/n7six.ApeX-k1.v7.6.5.dir/App/helper/boot.c.obj
LOAD CMakeFiles/n7six.ApeX-k1.v7.6.5.dir/App/misc.c.obj
LOAD CMakeFiles/n7six.ApeX-k1.v7.6.5.dir/App/radio.c.obj
LOAD CMakeFiles/n7six.ApeX-k1.v7.6.5.dir/App/scheduler.c.obj
LOAD CMakeFiles/n7six.ApeX-k1.v7.6.5.dir/App/settings.c.obj
LOAD CMakeFiles/n7six.ApeX-k1.v7.6.5.dir/App/ui/battery.c.obj
LOAD CMakeFiles/n7six.ApeX-k1.v7.6.5.dir/App/ui/helper.c.obj
LOAD CMakeFiles/n7six.ApeX-k1.v7.6.5.dir/App/ui/inputbox.c.obj
LOAD CMakeFiles/n7six.ApeX-k1.v7.6.5.dir/App/ui/main.c.obj
LOAD CMakeFiles/n7six.ApeX-k1.v7.6.5.dir/App/ui/menu.c.obj
LOAD CMakeFiles/n7six.ApeX-k1.v7.6.5.dir/App/ui/scanner.c.obj
LOAD CMakeFiles/n7six.ApeX-k1.v7.6.5.dir/App/ui/status.c.obj
LOAD CMakeFiles/n7six.ApeX-k1.v7.6.5.dir/App/ui/ui.c.obj
LOAD CMakeFiles/n7six.ApeX-k1.v7.6.5.dir/App/ui/welcome.c.obj
LOAD CMakeFiles/n7six.ApeX-k1.v7.6.5.dir/App/version.c.obj
LOAD CMakeFiles/n7six.ApeX-k1.v7.6.5.dir/App/main.c.obj
LOAD CMakeFiles/n7six.ApeX-k1.v7.6.5.dir/App/external/printf/printf.c.obj
LOAD CMakeFiles/n7six.ApeX-k1.v7.6.5.dir/App/driver/crc.c.obj
LOAD CMakeFiles/n7six.ApeX-k1.v7.6.5.dir/App/driver/eeprom_compat.c.obj
LOAD CMakeFiles/n7six.ApeX-k1.v7.6.5.dir/App/driver/uart.c.obj
LOAD CMakeFiles/n7six.ApeX-k1.v7.6.5.dir/App/app/uart.c.obj
LOAD CMakeFiles/n7six.ApeX-k1.v7.6.5.dir/App/driver/vcp.c.obj
LOAD CMakeFiles/n7six.ApeX-k1.v7.6.5.dir/App/usb/usbd_cdc_if.c.obj
LOAD CMakeFiles/n7six.ApeX-k1.v7.6.5.dir/App/driver/bk1080.c.obj
LOAD CMakeFiles/n7six.ApeX-k1.v7.6.5.dir/App/app/fm.c.obj
LOAD CMakeFiles/n7six.ApeX-k1.v7.6.5.dir/App/ui/fmradio.c.obj
LOAD CMakeFiles/n7six.ApeX-k1.v7.6.5.dir/App/app/aircopy.c.obj
LOAD CMakeFiles/n7six.ApeX-k1.v7.6.5.dir/App/ui/aircopy.c.obj
LOAD CMakeFiles/n7six.ApeX-k1.v7.6.5.dir/App/app/flashlight.c.obj
LOAD CMakeFiles/n7six.ApeX-k1.v7.6.5.dir/App/app/spectrum.c.obj
LOAD CMakeFiles/n7six.ApeX-k1.v7.6.5.dir/App/app/breakout.c.obj
LOAD CMakeFiles/n7six.ApeX-k1.v7.6.5.dir/App/screenshot.c.obj
LOAD CMakeFiles/n7six.ApeX-k1.v7.6.5.dir/Middlewares/CherryUSB/core/usbd_core.c.obj
LOAD CMakeFiles/n7six.ApeX-k1.v7.6.5.dir/Middlewares/CherryUSB/port/usb_dc_py32.c.obj
LOAD CMakeFiles/n7six.ApeX-k1.v7.6.5.dir/Middlewares/CherryUSB/class/cdc/usbd_cdc.c.obj
LOAD /opt/toolchain/bin/../lib/gcc/arm-none-eabi/13.3.1/../../../../arm-none-eabi/lib/thumb/v6-m/nofp/libm.a
START GROUP
LOAD /opt/toolchain/bin/../lib/gcc/arm-none-eabi/13.3.1/thumb/v6-m/nofp/libgcc.a
LOAD /opt/toolchain/bin/../lib/gcc/arm-none-eabi/13.3.1/../../../../arm-none-eabi/lib/thumb/v6-m/nofp/libg_nano.a
LOAD /opt/toolchain/bin/../lib/gcc/arm-none-eabi/13.3.1/../../../../arm-none-eabi/lib/thumb/v6-m/nofp/libc_nano.a
END GROUP
START GROUP
LOAD /opt/toolchain/bin/../lib/gcc/arm-none-eabi/13.3.1/thumb/v6-m/nofp/libgcc.a
LOAD /opt/toolchain/bin/../lib/gcc/arm-none-eabi/13.3.1/../../../../arm-none-eabi/lib/thumb/v6-m/nofp/libc_nano.a
END GROUP
LOAD /opt/toolchain/bin/../lib/gcc/arm-none-eabi/13.3.1/thumb/v6-m/nofp/crtend.o
LOAD /opt/toolchain/bin/../lib/gcc/arm-none-eabi/13.3.1/thumb/v6-m/nofp/crtn.o
                0x20004000                        _estack = (ORIGIN (RAM) + LENGTH (RAM))
                0x00000200                        _Min_Heap_Size = 0x200
                0x00000400                        _Min_Stack_Size = 0x400

.isr_vector     0x08002800       0xc0
                0x08002800                        . = ALIGN (0x4)
 *(.isr_vector)
 .isr_vector    0x08002800       0xc0 CMakeFiles/n7six.ApeX-k1.v7.6.5.dir/Core/startup_py32f071xx.s.obj
                0x08002800                g_pfnVectors
                0x080028c0                        . = ALIGN (0x4)

.text           0x080028c0    0x12718
                0x080028c0                        . = ALIGN (0x4)
 *(.text)
 .text          0x080028c0       0x14 /opt/toolchain/bin/../lib/gcc/arm-none-eabi/13.3.1/thumb/v6-m/nofp/libgcc.a(_thumb1_case_sqi.o)
                0x080028c0                __gnu_thumb1_case_sqi
 .text          0x080028d4       0x14 /opt/toolchain/bin/../lib/gcc/arm-none-eabi/13.3.1/thumb/v6-m/nofp/libgcc.a(_thumb1_case_uqi.o)
                0x080028d4                __gnu_thumb1_case_uqi
 .text          0x080028e8       0x14 /opt/toolchain/bin/../lib/gcc/arm-none-eabi/13.3.1/thumb/v6-m/nofp/libgcc.a(_thumb1_case_shi.o)
                0x080028e8                __gnu_thumb1_case_shi
 .text          0x080028fc       0x14 /opt/toolchain/bin/../lib/gcc/arm-none-eabi/13.3.1/thumb/v6-m/nofp/libgcc.a(_thumb1_case_uhi.o)
                0x080028fc                __gnu_thumb1_case_uhi
 .text          0x08002910      0x114 /opt/toolchain/bin/../lib/gcc/arm-none-eabi/13.3.1/thumb/v6-m/nofp/libgcc.a(_udivsi3.o)
                0x08002910                __udivsi3
                0x08002910                __aeabi_uidiv
                0x08002a1c                __aeabi_uidivmod
 .text          0x08002a24      0x1d4 /opt/toolchain/bin/../lib/gcc/arm-none-eabi/13.3.1/thumb/v6-m/nofp/libgcc.a(_divsi3.o)
                0x08002a24                __aeabi_idiv
                0x08002a24                __divsi3
                0x08002bf0                __aeabi_idivmod
 .text          0x08002bf8        0x4 /opt/toolchain/bin/../lib/gcc/arm-none-eabi/13.3.1/thumb/v6-m/nofp/libgcc.a(_dvmd_tls.o)
                0x08002bf8                __aeabi_ldiv0
                0x08002bf8                __aeabi_idiv0
 .text          0x08002bfc       0x3c /opt/toolchain/bin/../lib/gcc/arm-none-eabi/13.3.1/thumb/v6-m/nofp/libgcc.a(_clzsi2.o)
                0x08002bfc                __clzsi2
 .text          0x08002c38        0xe /opt/toolchain/bin/../lib/gcc/arm-none-eabi/13.3.1/../../../../arm-none-eabi/lib/thumb/v6-m/nofp/libg_nano.a(libc_a-strlen.o)
                0x08002c38                strlen
 *(.text*)
 *fill*         0x08002c46        0x2 
 .text.deregister_tm_clones
                0x08002c48       0x20 /opt/toolchain/bin/../lib/gcc/arm-none-eabi/13.3.1/thumb/v6-m/nofp/crtbegin.o
 .text.register_tm_clones
                0x08002c68       0x28 /opt/toolchain/bin/../lib/gcc/arm-none-eabi/13.3.1/thumb/v6-m/nofp/crtbegin.o
 .text.__do_global_dtors_aux
                0x08002c90       0x2c /opt/toolchain/bin/../lib/gcc/arm-none-eabi/13.3.1/thumb/v6-m/nofp/crtbegin.o
 .text.frame_dummy
                0x08002cbc       0x24 /opt/toolchain/bin/../lib/gcc/arm-none-eabi/13.3.1/thumb/v6-m/nofp/crtbegin.o
 .text.startup.main
                0x08002ce0       0x3c CMakeFiles/n7six.ApeX-k1.v7.6.5.dir/Core/Src/main.c.obj
                0x08002ce0                main
 .text.NMI_Handler
                0x08002d1c        0x2 CMakeFiles/n7six.ApeX-k1.v7.6.5.dir/Core/Src/py32f071_it.c.obj
                0x08002d1c                NMI_Handler
 .text.HardFault_Handler
                0x08002d1e        0x2 CMakeFiles/n7six.ApeX-k1.v7.6.5.dir/Core/Src/py32f071_it.c.obj
                0x08002d1e                HardFault_Handler
 .text.SVC_Handler
                0x08002d20        0x2 CMakeFiles/n7six.ApeX-k1.v7.6.5.dir/Core/Src/py32f071_it.c.obj
                0x08002d20                SVC_Handler
 .text.PendSV_Handler
                0x08002d22        0x2 CMakeFiles/n7six.ApeX-k1.v7.6.5.dir/Core/Src/py32f071_it.c.obj
                0x08002d22                PendSV_Handler
 .text.SystemInit
                0x08002d24       0x10 CMakeFiles/n7six.ApeX-k1.v7.6.5.dir/Core/Src/system_py32f071.c.obj
                0x08002d24                SystemInit
 .text.Reset_Handler
                0x08002d34       0x50 CMakeFiles/n7six.ApeX-k1.v7.6.5.dir/Core/startup_py32f071xx.s.obj
                0x08002d34                Reset_Handler
 .text.Default_Handler
                0x08002d84        0x2 CMakeFiles/n7six.ApeX-k1.v7.6.5.dir/Core/startup_py32f071xx.s.obj
                0x08002d84                TIM1_CC_IRQHandler
                0x08002d84                PVD_IRQHandler
                0x08002d84                I2C1_IRQHandler
                0x08002d84                SPI1_IRQHandler
                0x08002d84                EXTI2_3_IRQHandler
                0x08002d84                I2C2_IRQHandler
                0x08002d84                TIM17_IRQHandler
                0x08002d84                USART3_IRQHandler
                0x08002d84                RTC_IRQHandler
                0x08002d84                LCD_IRQHandler
                0x08002d84                TIM16_IRQHandler
                0x08002d84                TIM3_IRQHandler
                0x08002d84                EXTI4_15_IRQHandler
                0x08002d84                RCC_IRQHandler
                0x08002d84                DMA1_Channel1_IRQHandler
                0x08002d84                Default_Handler
                0x08002d84                TIM14_IRQHandler
                0x08002d84                TIM7_IRQHandler
                0x08002d84                TIM15_IRQHandler
                0x08002d84                EXTI0_1_IRQHandler
                0x08002d84                SPI2_IRQHandler
                0x08002d84                WWDG_IRQHandler
                0x08002d84                TIM2_IRQHandler
                0x08002d84                DMA1_Channel2_3_IRQHandler
                0x08002d84                ADC_COMP_IRQHandler
                0x08002d84                USART2_IRQHandler
                0x08002d84                TIM6_LPTIM1_DAC_IRQHandler
                0x08002d84                FLASH_IRQHandler
                0x08002d84                USART1_IRQHandler
                0x08002d84                TIM1_BRK_UP_TRG_COM_IRQHandler
 *fill*         0x08002d86        0x2 
 .text.RCC_GetHCLKClockFreq
                0x08002d88       0x20 CMakeFiles/n7six.ApeX-k1.v7.6.5.dir/Drivers/PY32F071_HAL_Driver/Src/py32f071_ll_rcc.c.obj
                0x08002d88                RCC_GetHCLKClockFreq
 .text.RCC_GetPCLK1ClockFreq
                0x08002da8       0x20 CMakeFiles/n7six.ApeX-k1.v7.6.5.dir/Drivers/PY32F071_HAL_Driver/Src/py32f071_ll_rcc.c.obj
                0x08002da8                RCC_GetPCLK1ClockFreq
 .text.RCC_PLL_GetFreqDomain_SYS
                0x08002dc8       0x38 CMakeFiles/n7six.ApeX-k1.v7.6.5.dir/Drivers/PY32F071_HAL_Driver/Src/py32f071_ll_rcc.c.obj
                0x08002dc8                RCC_PLL_GetFreqDomain_SYS
 .text.RCC_GetSystemClockFreq
                0x08002e00       0x50 CMakeFiles/n7six.ApeX-k1.v7.6.5.dir/Drivers/PY32F071_HAL_Driver/Src/py32f071_ll_rcc.c.obj
                0x08002e00                RCC_GetSystemClockFreq
 .text.LL_RCC_GetSystemClocksFreq
                0x08002e50       0x18 CMakeFiles/n7six.ApeX-k1.v7.6.5.dir/Drivers/PY32F071_HAL_Driver/Src/py32f071_ll_rcc.c.obj
                0x08002e50                LL_RCC_GetSystemClocksFreq
 .text.LL_DMA_Init
                0x08002e68       0x4c CMakeFiles/n7six.ApeX-k1.v7.6.5.dir/Drivers/PY32F071_HAL_Driver/Src/py32f071_ll_dma.c.obj
                0x08002e68                LL_DMA_Init
 .text.LL_DMA_StructInit
                0x08002eb4       0x18 CMakeFiles/n7six.ApeX-k1.v7.6.5.dir/Drivers/PY32F071_HAL_Driver/Src/py32f071_ll_dma.c.obj
                0x08002eb4                LL_DMA_StructInit
 .text.LL_GPIO_Init
                0x08002ecc       0xa4 CMakeFiles/n7six.ApeX-k1.v7.6.5.dir/Drivers/PY32F071_HAL_Driver/Src/py32f071_ll_gpio.c.obj
                0x08002ecc                LL_GPIO_Init
 .text.LL_GPIO_StructInit
                0x08002f70       0x18 CMakeFiles/n7six.ApeX-k1.v7.6.5.dir/Drivers/PY32F071_HAL_Driver/Src/py32f071_ll_gpio.c.obj
                0x08002f70                LL_GPIO_StructInit
 .text.LL_SetSystemCoreClock
                0x08002f88        0xc CMakeFiles/n7six.ApeX-k1.v7.6.5.dir/Drivers/PY32F071_HAL_Driver/Src/py32f071_ll_utils.c.obj
                0x08002f88                LL_SetSystemCoreClock
 .text.LL_SPI_Init
                0x08002f94       0x68 CMakeFiles/n7six.ApeX-k1.v7.6.5.dir/Drivers/PY32F071_HAL_Driver/Src/py32f071_ll_spi.c.obj
                0x08002f94                LL_SPI_Init
 .text.LL_SPI_StructInit
                0x08002ffc       0x1a CMakeFiles/n7six.ApeX-k1.v7.6.5.dir/Drivers/PY32F071_HAL_Driver/Src/py32f071_ll_spi.c.obj
                0x08002ffc                LL_SPI_StructInit
 *fill*         0x08003016        0x2 
 .text.LL_USART_Init
                0x08003018       0xe4 CMakeFiles/n7six.ApeX-k1.v7.6.5.dir/Drivers/PY32F071_HAL_Driver/Src/py32f071_ll_usart.c.obj
                0x08003018                LL_USART_Init
 .text.LL_USART_StructInit
                0x080030fc       0x18 CMakeFiles/n7six.ApeX-k1.v7.6.5.dir/Drivers/PY32F071_HAL_Driver/Src/py32f071_ll_usart.c.obj
                0x080030fc                LL_USART_StructInit
 .text.BACKLIGHT_Sound
                0x08003114       0x28 CMakeFiles/n7six.ApeX-k1.v7.6.5.dir/App/driver/backlight.c.obj
 .text.BACKLIGHT_InitHardware
                0x0800313c       0xc4 CMakeFiles/n7six.ApeX-k1.v7.6.5.dir/App/driver/backlight.c.obj
                0x0800313c                BACKLIGHT_InitHardware
 .text.BACKLIGHT_IsOn
                0x08003200        0xc CMakeFiles/n7six.ApeX-k1.v7.6.5.dir/App/driver/backlight.c.obj
                0x08003200                BACKLIGHT_IsOn
 .text.BACKLIGHT_SetBrightness
                0x0800320c       0xbc CMakeFiles/n7six.ApeX-k1.v7.6.5.dir/App/driver/backlight.c.obj
                0x0800320c                BACKLIGHT_SetBrightness
 .text.BACKLIGHT_TurnOff
                0x080032c8       0x24 CMakeFiles/n7six.ApeX-k1.v7.6.5.dir/App/driver/backlight.c.obj
                0x080032c8                BACKLIGHT_TurnOff
 .text.BACKLIGHT_TurnOn
                0x080032ec       0x8c CMakeFiles/n7six.ApeX-k1.v7.6.5.dir/App/driver/backlight.c.obj
                0x080032ec                BACKLIGHT_TurnOn
 .text.BK4819_WriteU8
                0x08003378       0x54 CMakeFiles/n7six.ApeX-k1.v7.6.5.dir/App/driver/bk4829.c.obj
                0x08003378                BK4819_WriteU8
 .text.BK4819_ReadRegister
                0x080033cc       0x98 CMakeFiles/n7six.ApeX-k1.v7.6.5.dir/App/driver/bk4829.c.obj
                0x080033cc                BK4819_ReadRegister
 .text.BK4819_WriteU16
                0x08003464       0x54 CMakeFiles/n7six.ApeX-k1.v7.6.5.dir/App/driver/bk4829.c.obj
                0x08003464                BK4819_WriteU16
 .text.BK4819_WriteRegister
                0x080034b8       0x4c CMakeFiles/n7six.ApeX-k1.v7.6.5.dir/App/driver/bk4829.c.obj
                0x080034b8                BK4819_WriteRegister
 .text.BK4819_Init
                0x08003504      0x1d0 CMakeFiles/n7six.ApeX-k1.v7.6.5.dir/App/driver/bk4829.c.obj
                0x08003504                BK4819_Init
 .text.BK4819_SetAGC
                0x080036d4       0x30 CMakeFiles/n7six.ApeX-k1.v7.6.5.dir/App/driver/bk4829.c.obj
                0x080036d4                BK4819_SetAGC
 .text.BK4819_InitAGC
                0x08003704       0x64 CMakeFiles/n7six.ApeX-k1.v7.6.5.dir/App/driver/bk4829.c.obj
                0x08003704                BK4819_InitAGC
 .text.BK4819_ToggleGpioOut
                0x08003768       0x2c CMakeFiles/n7six.ApeX-k1.v7.6.5.dir/App/driver/bk4829.c.obj
                0x08003768                BK4819_ToggleGpioOut
 .text.BK4819_SetCDCSSCodeWord
                0x08003794       0x38 CMakeFiles/n7six.ApeX-k1.v7.6.5.dir/App/driver/bk4829.c.obj
                0x08003794                BK4819_SetCDCSSCodeWord
 .text.BK4819_SetCTCSSFrequency
                0x080037cc       0x48 CMakeFiles/n7six.ApeX-k1.v7.6.5.dir/App/driver/bk4829.c.obj
                0x080037cc                BK4819_SetCTCSSFrequency
 .text.BK4819_SetTailDetection
                0x08003814       0x24 CMakeFiles/n7six.ApeX-k1.v7.6.5.dir/App/driver/bk4829.c.obj
                0x08003814                BK4819_SetTailDetection
 .text.BK4819_EnableVox
                0x08003838       0x48 CMakeFiles/n7six.ApeX-k1.v7.6.5.dir/App/driver/bk4829.c.obj
                0x08003838                BK4819_EnableVox
 .text.BK4819_SetFilterBandwidth
                0x08003880       0x1c CMakeFiles/n7six.ApeX-k1.v7.6.5.dir/App/driver/bk4829.c.obj
                0x08003880                BK4819_SetFilterBandwidth
 .text.BK4819_SetupPowerAmplifier
                0x0800389c       0x20 CMakeFiles/n7six.ApeX-k1.v7.6.5.dir/App/driver/bk4829.c.obj
                0x0800389c                BK4819_SetupPowerAmplifier
 .text.BK4819_SetFrequency
                0x080038bc       0x16 CMakeFiles/n7six.ApeX-k1.v7.6.5.dir/App/driver/bk4829.c.obj
                0x080038bc                BK4819_SetFrequency
 *fill*         0x080038d2        0x2 
 .text.BK4819_SetAF
                0x080038d4       0x14 CMakeFiles/n7six.ApeX-k1.v7.6.5.dir/App/driver/bk4829.c.obj
                0x080038d4                BK4819_SetAF
 .text.BK4819_SetRegValue
                0x080038e8       0x2e CMakeFiles/n7six.ApeX-k1.v7.6.5.dir/App/driver/bk4829.c.obj
                0x080038e8                BK4819_SetRegValue
 *fill*         0x08003916        0x2 
 .text.BK4819_RX_TurnOn
                0x08003918       0x24 CMakeFiles/n7six.ApeX-k1.v7.6.5.dir/App/driver/bk4829.c.obj
                0x08003918                BK4819_RX_TurnOn
 .text.BK4819_SetupSquelch
                0x0800393c       0x56 CMakeFiles/n7six.ApeX-k1.v7.6.5.dir/App/driver/bk4829.c.obj
                0x0800393c                BK4819_SetupSquelch
 *fill*         0x08003992        0x2 
 .text.BK4819_PickRXFilterPathBasedOnFrequency
                0x08003994       0x30 CMakeFiles/n7six.ApeX-k1.v7.6.5.dir/App/driver/bk4829.c.obj
                0x08003994                BK4819_PickRXFilterPathBasedOnFrequency
 .text.BK4819_DisableScramble
                0x080039c4       0x1e CMakeFiles/n7six.ApeX-k1.v7.6.5.dir/App/driver/bk4829.c.obj
                0x080039c4                BK4819_DisableScramble
 *fill*         0x080039e2        0x2 
 .text.BK4819_SetCompander
                0x080039e4       0x54 CMakeFiles/n7six.ApeX-k1.v7.6.5.dir/App/driver/bk4829.c.obj
                0x080039e4                BK4819_SetCompander
 .text.BK4819_DisableVox
                0x08003a38       0x16 CMakeFiles/n7six.ApeX-k1.v7.6.5.dir/App/driver/bk4829.c.obj
                0x08003a38                BK4819_DisableVox
 .text.BK4819_DisableDTMF
                0x08003a4e        0xc CMakeFiles/n7six.ApeX-k1.v7.6.5.dir/App/driver/bk4829.c.obj
                0x08003a4e                BK4819_DisableDTMF
 *fill*         0x08003a5a        0x2 
 .text.BK4819_EnableDTMF
                0x08003a5c       0x1c CMakeFiles/n7six.ApeX-k1.v7.6.5.dir/App/driver/bk4829.c.obj
                0x08003a5c                BK4819_EnableDTMF
 .text.BK4819_EnterTxMute
                0x08003a78       0x10 CMakeFiles/n7six.ApeX-k1.v7.6.5.dir/App/driver/bk4829.c.obj
                0x08003a78                BK4819_EnterTxMute
 .text.BK4819_PlayTone
                0x08003a88       0x58 CMakeFiles/n7six.ApeX-k1.v7.6.5.dir/App/driver/bk4829.c.obj
                0x08003a88                BK4819_PlayTone
 .text.BK4819_ExitTxMute
                0x08003ae0       0x10 CMakeFiles/n7six.ApeX-k1.v7.6.5.dir/App/driver/bk4829.c.obj
                0x08003ae0                BK4819_ExitTxMute
 .text.BK4819_Sleep
                0x08003af0       0x16 CMakeFiles/n7six.ApeX-k1.v7.6.5.dir/App/driver/bk4829.c.obj
                0x08003af0                BK4819_Sleep
 *fill*         0x08003b06        0x2 
 .text.BK4819_TurnsOffTones_TurnsOnRX
                0x08003b08       0x2c CMakeFiles/n7six.ApeX-k1.v7.6.5.dir/App/driver/bk4829.c.obj
                0x08003b08                BK4819_TurnsOffTones_TurnsOnRX
 .text.BK4819_SetupAircopy
                0x08003b34       0x44 CMakeFiles/n7six.ApeX-k1.v7.6.5.dir/App/driver/bk4829.c.obj
                0x08003b34                BK4819_SetupAircopy
 .text.BK4819_Idle
                0x08003b78        0xc CMakeFiles/n7six.ApeX-k1.v7.6.5.dir/App/driver/bk4829.c.obj
                0x08003b78                BK4819_Idle
 .text.BK4819_ResetFSK
                0x08003b84       0x1e CMakeFiles/n7six.ApeX-k1.v7.6.5.dir/App/driver/bk4829.c.obj
                0x08003b84                BK4819_ResetFSK
 .text.BK4819_ExitBypass
                0x08003ba2       0x20 CMakeFiles/n7six.ApeX-k1.v7.6.5.dir/App/driver/bk4829.c.obj
                0x08003ba2                BK4819_ExitBypass
 *fill*         0x08003bc2        0x2 
 .text.BK4819_TxOn_Beep
                0x08003bc4       0x38 CMakeFiles/n7six.ApeX-k1.v7.6.5.dir/App/driver/bk4829.c.obj
                0x08003bc4                BK4819_TxOn_Beep
 .text.BK4819_PrepareTransmit
                0x08003bfc       0x10 CMakeFiles/n7six.ApeX-k1.v7.6.5.dir/App/driver/bk4829.c.obj
                0x08003bfc                BK4819_PrepareTransmit
 .text.BK4819_ExitSubAu
                0x08003c0c        0xc CMakeFiles/n7six.ApeX-k1.v7.6.5.dir/App/driver/bk4829.c.obj
                0x08003c0c                BK4819_ExitSubAu
 .text.BK4819_Conditional_RX_TurnOn_and_GPIO6_Enable
                0x08003c18       0x1c CMakeFiles/n7six.ApeX-k1.v7.6.5.dir/App/driver/bk4829.c.obj
                0x08003c18                BK4819_Conditional_RX_TurnOn_and_GPIO6_Enable
 .text.BK4819_ExitDTMF_TX
                0x08003c34       0x30 CMakeFiles/n7six.ApeX-k1.v7.6.5.dir/App/driver/bk4829.c.obj
                0x08003c34                BK4819_ExitDTMF_TX
 .text.BK4819_EnableTXLink
                0x08003c64       0x10 CMakeFiles/n7six.ApeX-k1.v7.6.5.dir/App/driver/bk4829.c.obj
                0x08003c64                BK4819_EnableTXLink
 .text.BK4819_PlaySingleTone
                0x08003c74       0x94 CMakeFiles/n7six.ApeX-k1.v7.6.5.dir/App/driver/bk4829.c.obj
                0x08003c74                BK4819_PlaySingleTone
 .text.BK4819_EnterDTMF_TX
                0x08003d08       0x2c CMakeFiles/n7six.ApeX-k1.v7.6.5.dir/App/driver/bk4829.c.obj
                0x08003d08                BK4819_EnterDTMF_TX
 .text.BK4819_PlayDTMF
                0x08003d34       0x7c CMakeFiles/n7six.ApeX-k1.v7.6.5.dir/App/driver/bk4829.c.obj
                0x08003d34                BK4819_PlayDTMF
 .text.BK4819_PlayDTMFString
                0x08003db0       0x5a CMakeFiles/n7six.ApeX-k1.v7.6.5.dir/App/driver/bk4829.c.obj
                0x08003db0                BK4819_PlayDTMFString
 *fill*         0x08003e0a        0x2 
 .text.BK4819_TransmitTone
                0x08003e0c       0x48 CMakeFiles/n7six.ApeX-k1.v7.6.5.dir/App/driver/bk4829.c.obj
                0x08003e0c                BK4819_TransmitTone
 .text.BK4819_GenTail
                0x08003e54       0x40 CMakeFiles/n7six.ApeX-k1.v7.6.5.dir/App/driver/bk4829.c.obj
                0x08003e54                BK4819_GenTail
 .text.BK4819_PlayCDCSSTail
                0x08003e94       0x18 CMakeFiles/n7six.ApeX-k1.v7.6.5.dir/App/driver/bk4829.c.obj
                0x08003e94                BK4819_PlayCDCSSTail
 .text.BK4819_PlayCTCSSTail
                0x08003eac       0x18 CMakeFiles/n7six.ApeX-k1.v7.6.5.dir/App/driver/bk4829.c.obj
                0x08003eac                BK4819_PlayCTCSSTail
 .text.BK4819_GetRSSI
                0x08003ec4        0xe CMakeFiles/n7six.ApeX-k1.v7.6.5.dir/App/driver/bk4829.c.obj
                0x08003ec4                BK4819_GetRSSI
 .text.BK4819_GetRSSI_dBm
                0x08003ed2        0xe CMakeFiles/n7six.ApeX-k1.v7.6.5.dir/App/driver/bk4829.c.obj
                0x08003ed2                BK4819_GetRSSI_dBm
 .text.BK4819_GetVoiceAmplitudeOut
                0x08003ee0        0xa CMakeFiles/n7six.ApeX-k1.v7.6.5.dir/App/driver/bk4829.c.obj
                0x08003ee0                BK4819_GetVoiceAmplitudeOut
 *fill*         0x08003eea        0x2 
 .text.BK4819_GetFrequencyScanResult
                0x08003eec       0x30 CMakeFiles/n7six.ApeX-k1.v7.6.5.dir/App/driver/bk4829.c.obj
                0x08003eec                BK4819_GetFrequencyScanResult
 .text.BK4819_GetCxCSSScanResult
                0x08003f1c       0x58 CMakeFiles/n7six.ApeX-k1.v7.6.5.dir/App/driver/bk4829.c.obj
                0x08003f1c                BK4819_GetCxCSSScanResult
 .text.BK4819_DisableFrequencyScan
                0x08003f74        0xe CMakeFiles/n7six.ApeX-k1.v7.6.5.dir/App/driver/bk4829.c.obj
                0x08003f74                BK4819_DisableFrequencyScan
 *fill*         0x08003f82        0x2 
 .text.BK4819_EnableFrequencyScan
                0x08003f84       0x10 CMakeFiles/n7six.ApeX-k1.v7.6.5.dir/App/driver/bk4829.c.obj
                0x08003f84                BK4819_EnableFrequencyScan
 .text.BK4819_SetScanFrequency
                0x08003f94       0x16 CMakeFiles/n7six.ApeX-k1.v7.6.5.dir/App/driver/bk4829.c.obj
                0x08003f94                BK4819_SetScanFrequency
 .text.BK4819_Disable
                0x08003faa        0x8 CMakeFiles/n7six.ApeX-k1.v7.6.5.dir/App/driver/bk4829.c.obj
                0x08003faa                BK4819_Disable
 .text.BK4819_StopScan
                0x08003fb2        0xc CMakeFiles/n7six.ApeX-k1.v7.6.5.dir/App/driver/bk4829.c.obj
                0x08003fb2                BK4819_StopScan
 .text.BK4819_GetDTMF_5TONE_Code
                0x08003fbe        0xe CMakeFiles/n7six.ApeX-k1.v7.6.5.dir/App/driver/bk4829.c.obj
                0x08003fbe                BK4819_GetDTMF_5TONE_Code
 .text.BK4819_GetCDCSSCodeType
                0x08003fcc        0xe CMakeFiles/n7six.ApeX-k1.v7.6.5.dir/App/driver/bk4829.c.obj
                0x08003fcc                BK4819_GetCDCSSCodeType
 .text.BK4819_GetCTCType
                0x08003fda        0xe CMakeFiles/n7six.ApeX-k1.v7.6.5.dir/App/driver/bk4829.c.obj
                0x08003fda                BK4819_GetCTCType
 .text.BK4819_SendFSKData
                0x08003fe8       0x7c CMakeFiles/n7six.ApeX-k1.v7.6.5.dir/App/driver/bk4829.c.obj
                0x08003fe8                BK4819_SendFSKData
 .text.BK4819_PrepareFSKReceive
                0x08004064       0x40 CMakeFiles/n7six.ApeX-k1.v7.6.5.dir/App/driver/bk4829.c.obj
                0x08004064                BK4819_PrepareFSKReceive
 .text.BK4819_PlayRogerMDC
                0x080040a4       0x78 CMakeFiles/n7six.ApeX-k1.v7.6.5.dir/App/driver/bk4829.c.obj
                0x080040a4                BK4819_PlayRogerMDC
 .text.BK4819_PlayRoger
                0x0800411c       0x80 CMakeFiles/n7six.ApeX-k1.v7.6.5.dir/App/driver/bk4829.c.obj
                0x0800411c                BK4819_PlayRoger
 .text.BK4819_PlayDTMFEx
                0x0800419c       0x3c CMakeFiles/n7six.ApeX-k1.v7.6.5.dir/App/driver/bk4829.c.obj
                0x0800419c                BK4819_PlayDTMFEx
 .text.SPI_WriteByte
                0x080041d8       0x20 CMakeFiles/n7six.ApeX-k1.v7.6.5.dir/App/driver/py25q16.c.obj
 .text.WriteAddr
                0x080041f8       0x1c CMakeFiles/n7six.ApeX-k1.v7.6.5.dir/App/driver/py25q16.c.obj
 .text.WaitWIP  0x08004214       0x30 CMakeFiles/n7six.ApeX-k1.v7.6.5.dir/App/driver/py25q16.c.obj
 .text.SectorErase
                0x08004244       0x2e CMakeFiles/n7six.ApeX-k1.v7.6.5.dir/App/driver/py25q16.c.obj
 *fill*         0x08004272        0x2 
 .text.SectorProgram
                0x08004274      0x12c CMakeFiles/n7six.ApeX-k1.v7.6.5.dir/App/driver/py25q16.c.obj
 .text.PY25Q16_Init
                0x080043a0       0xf0 CMakeFiles/n7six.ApeX-k1.v7.6.5.dir/App/driver/py25q16.c.obj
                0x080043a0                PY25Q16_Init
 .text.PY25Q16_ReadBuffer
                0x08004490       0xf4 CMakeFiles/n7six.ApeX-k1.v7.6.5.dir/App/driver/py25q16.c.obj
                0x08004490                PY25Q16_ReadBuffer
 .text.PY25Q16_WriteBuffer
                0x08004584       0xdc CMakeFiles/n7six.ApeX-k1.v7.6.5.dir/App/driver/py25q16.c.obj
                0x08004584                PY25Q16_WriteBuffer
 .text.PY25Q16_SectorErase
                0x08004660       0x2c CMakeFiles/n7six.ApeX-k1.v7.6.5.dir/App/driver/py25q16.c.obj
                0x08004660                PY25Q16_SectorErase
 .text.DMA1_Channel4_5_6_7_IRQHandler
                0x0800468c       0x64 CMakeFiles/n7six.ApeX-k1.v7.6.5.dir/App/driver/py25q16.c.obj
                0x0800468c                DMA1_Channel4_5_6_7_IRQHandler
 .text.I2C_Start
                0x080046f0       0x30 CMakeFiles/n7six.ApeX-k1.v7.6.5.dir/App/driver/i2c.c.obj
                0x080046f0                I2C_Start
 .text.I2C_Stop
                0x08004720       0x30 CMakeFiles/n7six.ApeX-k1.v7.6.5.dir/App/driver/i2c.c.obj
                0x08004720                I2C_Stop
 .text.I2C_Read
                0x08004750       0x98 CMakeFiles/n7six.ApeX-k1.v7.6.5.dir/App/driver/i2c.c.obj
                0x08004750                I2C_Read
 .text.I2C_Write
                0x080047e8       0xa4 CMakeFiles/n7six.ApeX-k1.v7.6.5.dir/App/driver/i2c.c.obj
                0x080047e8                I2C_Write
 .text.I2C_ReadBuffer
                0x0800488c       0x3e CMakeFiles/n7six.ApeX-k1.v7.6.5.dir/App/driver/i2c.c.obj
                0x0800488c                I2C_ReadBuffer
 .text.I2C_WriteBuffer
                0x080048ca       0x20 CMakeFiles/n7six.ApeX-k1.v7.6.5.dir/App/driver/i2c.c.obj
                0x080048ca                I2C_WriteBuffer
 *fill*         0x080048ea        0x2 
 .text.KEYBOARD_Poll
                0x080048ec       0x8c CMakeFiles/n7six.ApeX-k1.v7.6.5.dir/App/driver/keyboard.c.obj
                0x080048ec                KEYBOARD_Poll
 .text.SPI_WriteByte.isra.0
                0x08004978       0x1c CMakeFiles/n7six.ApeX-k1.v7.6.5.dir/App/driver/st7565.c.obj
 .text.map      0x08004994       0x1c CMakeFiles/n7six.ApeX-k1.v7.6.5.dir/App/driver/st7565.c.obj
                0x08004994                map
 .text.ST7565_Gauge
                0x080049b0       0x50 CMakeFiles/n7six.ApeX-k1.v7.6.5.dir/App/driver/st7565.c.obj
                0x080049b0                ST7565_Gauge
 .text.ST7565_HardwareReset
                0x08004a00        0x2 CMakeFiles/n7six.ApeX-k1.v7.6.5.dir/App/driver/st7565.c.obj
                0x08004a00                ST7565_HardwareReset
 .text.ST7565_SelectColumnAndLine
                0x08004a02       0x28 CMakeFiles/n7six.ApeX-k1.v7.6.5.dir/App/driver/st7565.c.obj
                0x08004a02                ST7565_SelectColumnAndLine
 .text.DrawLine
                0x08004a2a       0x30 CMakeFiles/n7six.ApeX-k1.v7.6.5.dir/App/driver/st7565.c.obj
 *fill*         0x08004a5a        0x2 
 .text.ST7565_DrawLine
                0x08004a5c       0x18 CMakeFiles/n7six.ApeX-k1.v7.6.5.dir/App/driver/st7565.c.obj
                0x08004a5c                ST7565_DrawLine
 .text.ST7565_WriteByte
                0x08004a74       0x10 CMakeFiles/n7six.ApeX-k1.v7.6.5.dir/App/driver/st7565.c.obj
                0x08004a74                ST7565_WriteByte
 .text.ST7565_BlitScreen
                0x08004a84       0x5c CMakeFiles/n7six.ApeX-k1.v7.6.5.dir/App/driver/st7565.c.obj
 .text.ST7565_BlitFullScreen
                0x08004ae0        0xa CMakeFiles/n7six.ApeX-k1.v7.6.5.dir/App/driver/st7565.c.obj
                0x08004ae0                ST7565_BlitFullScreen
 .text.ST7565_BlitLine
                0x08004aea        0xc CMakeFiles/n7six.ApeX-k1.v7.6.5.dir/App/driver/st7565.c.obj
                0x08004aea                ST7565_BlitLine
 .text.ST7565_BlitStatusLine
                0x08004af6        0xa CMakeFiles/n7six.ApeX-k1.v7.6.5.dir/App/driver/st7565.c.obj
                0x08004af6                ST7565_BlitStatusLine
 .text.ST7565_FillScreen
                0x08004b00       0x54 CMakeFiles/n7six.ApeX-k1.v7.6.5.dir/App/driver/st7565.c.obj
                0x08004b00                ST7565_FillScreen
 .text.ST7565_Cmd
                0x08004b54       0x34 CMakeFiles/n7six.ApeX-k1.v7.6.5.dir/App/driver/st7565.c.obj
 .text.ST7565_FixInterfGlitch
                0x08004b88       0x24 CMakeFiles/n7six.ApeX-k1.v7.6.5.dir/App/driver/st7565.c.obj
                0x08004b88                ST7565_FixInterfGlitch
 .text.ST7565_ContrastAndInv
                0x08004bac       0x28 CMakeFiles/n7six.ApeX-k1.v7.6.5.dir/App/driver/st7565.c.obj
                0x08004bac                ST7565_ContrastAndInv
 .text.ST7565_Init
                0x08004bd4      0x10c CMakeFiles/n7six.ApeX-k1.v7.6.5.dir/App/driver/st7565.c.obj
                0x08004bd4                ST7565_Init
 .text.ST7565_ShutDown
                0x08004ce0       0x24 CMakeFiles/n7six.ApeX-k1.v7.6.5.dir/App/driver/st7565.c.obj
                0x08004ce0                ST7565_ShutDown
 .text.SYSTEM_DelayMs
                0x08004d04        0xe CMakeFiles/n7six.ApeX-k1.v7.6.5.dir/App/driver/system.c.obj
                0x08004d04                SYSTEM_DelayMs
 *fill*         0x08004d12        0x2 
 .text.SYSTICK_Init
                0x08004d14       0x40 CMakeFiles/n7six.ApeX-k1.v7.6.5.dir/App/driver/systick.c.obj
                0x08004d14                SYSTICK_Init
 .text.SYSTICK_DelayUs
                0x08004d54       0x34 CMakeFiles/n7six.ApeX-k1.v7.6.5.dir/App/driver/systick.c.obj
                0x08004d54                SYSTICK_DelayUs
 .text.ACTION_Power
                0x08004d88       0x34 CMakeFiles/n7six.ApeX-k1.v7.6.5.dir/App/app/action.c.obj
                0x08004d88                ACTION_Power
 .text.ACTION_SwitchDemodul
                0x08004dbc       0x24 CMakeFiles/n7six.ApeX-k1.v7.6.5.dir/App/app/action.c.obj
                0x08004dbc                ACTION_SwitchDemodul
 .text.ACTION_Vox
                0x08004de0       0x28 CMakeFiles/n7six.ApeX-k1.v7.6.5.dir/App/app/action.c.obj
                0x08004de0                ACTION_Vox
 .text.ACTION_Ptt
                0x08004e08       0x10 CMakeFiles/n7six.ApeX-k1.v7.6.5.dir/App/app/action.c.obj
                0x08004e08                ACTION_Ptt
 .text.ACTION_Power_High
                0x08004e18       0x1c CMakeFiles/n7six.ApeX-k1.v7.6.5.dir/App/app/action.c.obj
                0x08004e18                ACTION_Power_High
 .text.ACTION_Remove_Offset
                0x08004e34       0x1c CMakeFiles/n7six.ApeX-k1.v7.6.5.dir/App/app/action.c.obj
                0x08004e34                ACTION_Remove_Offset
 .text.ACTION_BackLight
                0x08004e50       0x28 CMakeFiles/n7six.ApeX-k1.v7.6.5.dir/App/app/action.c.obj
                0x08004e50                ACTION_BackLight
 .text.ACTION_Mute
                0x08004e78       0x60 CMakeFiles/n7six.ApeX-k1.v7.6.5.dir/App/app/action.c.obj
                0x08004e78                ACTION_Mute
 .text.ACTION_Monitor
                0x08004ed8       0x88 CMakeFiles/n7six.ApeX-k1.v7.6.5.dir/App/app/action.c.obj
                0x08004ed8                ACTION_Monitor
 .text.ACTION_FM
                0x08004f60       0x64 CMakeFiles/n7six.ApeX-k1.v7.6.5.dir/App/app/action.c.obj
                0x08004f60                ACTION_FM
 .text.ACTION_Wn
                0x08004fc4       0x5c CMakeFiles/n7six.ApeX-k1.v7.6.5.dir/App/app/action.c.obj
                0x08004fc4                ACTION_Wn
 .text.ACTION_1750
                0x08005020       0x48 CMakeFiles/n7six.ApeX-k1.v7.6.5.dir/App/app/action.c.obj
 .text.ACTION_Scan
                0x08005068      0x148 CMakeFiles/n7six.ApeX-k1.v7.6.5.dir/App/app/action.c.obj
                0x08005068                ACTION_Scan
 .text.ACTION_ScanRestart
                0x080051b0        0xa CMakeFiles/n7six.ApeX-k1.v7.6.5.dir/App/app/action.c.obj
 *fill*         0x080051ba        0x2 
 .text.ACTION_Handle
                0x080051bc       0xd0 CMakeFiles/n7six.ApeX-k1.v7.6.5.dir/App/app/action.c.obj
                0x080051bc                ACTION_Handle
 .text.ACTION_Update
                0x0800528c       0x20 CMakeFiles/n7six.ApeX-k1.v7.6.5.dir/App/app/action.c.obj
                0x0800528c                ACTION_Update
 .text.ACTION_RxMode
                0x080052ac       0x34 CMakeFiles/n7six.ApeX-k1.v7.6.5.dir/App/app/action.c.obj
                0x080052ac                ACTION_RxMode
 .text.ACTION_MainOnly
                0x080052e0       0x40 CMakeFiles/n7six.ApeX-k1.v7.6.5.dir/App/app/action.c.obj
                0x080052e0                ACTION_MainOnly
 .text.ACTION_BackLightOnDemand
                0x08005320       0x4c CMakeFiles/n7six.ApeX-k1.v7.6.5.dir/App/app/action.c.obj
                0x08005320                ACTION_BackLightOnDemand
 .text.DualwatchAlternate
                0x0800536c       0x58 CMakeFiles/n7six.ApeX-k1.v7.6.5.dir/App/app/app.c.obj
 .text.HandleReceive
                0x080053c4      0x1f4 CMakeFiles/n7six.ApeX-k1.v7.6.5.dir/App/app/app.c.obj
 .text.CheckForIncoming
                0x080055b8       0x9c CMakeFiles/n7six.ApeX-k1.v7.6.5.dir/App/app/app.c.obj
 .text.HandlePowerSave
                0x08005654       0x14 CMakeFiles/n7six.ApeX-k1.v7.6.5.dir/App/app/app.c.obj
 .text.APP_StartListening
                0x08005668      0x11c CMakeFiles/n7six.ApeX-k1.v7.6.5.dir/App/app/app.c.obj
                0x08005668                APP_StartListening
 .text.HandleIncoming
                0x08005784       0xa4 CMakeFiles/n7six.ApeX-k1.v7.6.5.dir/App/app/app.c.obj
 .text.APP_SetFreqByStepAndLimits
                0x08005828       0x2c CMakeFiles/n7six.ApeX-k1.v7.6.5.dir/App/app/app.c.obj
                0x08005828                APP_SetFreqByStepAndLimits
 .text.APP_SetFrequencyByStep
                0x08005854       0x1c CMakeFiles/n7six.ApeX-k1.v7.6.5.dir/App/app/app.c.obj
                0x08005854                APP_SetFrequencyByStep
 .text.APP_EndTransmission
                0x08005870       0x28 CMakeFiles/n7six.ApeX-k1.v7.6.5.dir/App/app/app.c.obj
                0x08005870                APP_EndTransmission
 .text.cancelUserInputModes
                0x08005898       0x7c CMakeFiles/n7six.ApeX-k1.v7.6.5.dir/App/app/app.c.obj
                0x08005898                cancelUserInputModes
 .text.ProcessKey
                0x08005914      0x678 CMakeFiles/n7six.ApeX-k1.v7.6.5.dir/App/app/app.c.obj
 .text.APP_Update
                0x08005f8c      0x508 CMakeFiles/n7six.ApeX-k1.v7.6.5.dir/App/app/app.c.obj
                0x08005f8c                APP_Update
 .text.APP_TimeSlice10ms
                0x08006494      0x624 CMakeFiles/n7six.ApeX-k1.v7.6.5.dir/App/app/app.c.obj
                0x08006494                APP_TimeSlice10ms
 .text.APP_TimeSlice500ms
                0x08006ab8      0x478 CMakeFiles/n7six.ApeX-k1.v7.6.5.dir/App/app/app.c.obj
                0x08006ab8                APP_TimeSlice500ms
 .text.NextMemChannel
                0x08006f30      0x118 CMakeFiles/n7six.ApeX-k1.v7.6.5.dir/App/app/chFrScanner.c.obj
 .text.NextFreqChannel
                0x08007048       0x60 CMakeFiles/n7six.ApeX-k1.v7.6.5.dir/App/app/chFrScanner.c.obj
 .text.CHFRSCANNER_Start
                0x080070a8       0xb4 CMakeFiles/n7six.ApeX-k1.v7.6.5.dir/App/app/chFrScanner.c.obj
                0x080070a8                CHFRSCANNER_Start
 .text.CHFRSCANNER_ContinueScanning
                0x0800715c       0x6c CMakeFiles/n7six.ApeX-k1.v7.6.5.dir/App/app/chFrScanner.c.obj
                0x0800715c                CHFRSCANNER_ContinueScanning
 .text.CHFRSCANNER_Found
                0x080071c8       0x78 CMakeFiles/n7six.ApeX-k1.v7.6.5.dir/App/app/chFrScanner.c.obj
                0x080071c8                CHFRSCANNER_Found
 .text.CHFRSCANNER_Stop
                0x08007240       0xb4 CMakeFiles/n7six.ApeX-k1.v7.6.5.dir/App/app/chFrScanner.c.obj
                0x08007240                CHFRSCANNER_Stop
 .text.COMMON_KeypadLockToggle
                0x080072f4       0x30 CMakeFiles/n7six.ApeX-k1.v7.6.5.dir/App/app/common.c.obj
                0x080072f4                COMMON_KeypadLockToggle
 .text.COMMON_SwitchVFOs
                0x08007324       0x54 CMakeFiles/n7six.ApeX-k1.v7.6.5.dir/App/app/common.c.obj
                0x08007324                COMMON_SwitchVFOs
 .text.COMMON_SwitchVFOMode
                0x08007378       0x50 CMakeFiles/n7six.ApeX-k1.v7.6.5.dir/App/app/common.c.obj
                0x08007378                COMMON_SwitchVFOMode
 .text.DTMF_SendEndOfTransmission
                0x080073c8       0xa4 CMakeFiles/n7six.ApeX-k1.v7.6.5.dir/App/app/dtmf.c.obj
                0x080073c8                DTMF_SendEndOfTransmission
 .text.DTMF_ValidateCodes
                0x0800746c       0x50 CMakeFiles/n7six.ApeX-k1.v7.6.5.dir/App/app/dtmf.c.obj
                0x0800746c                DTMF_ValidateCodes
 .text.DTMF_GetCharacter
                0x080074bc       0x20 CMakeFiles/n7six.ApeX-k1.v7.6.5.dir/App/app/dtmf.c.obj
                0x080074bc                DTMF_GetCharacter
 .text.DTMF_clear_input_box
                0x080074dc       0x24 CMakeFiles/n7six.ApeX-k1.v7.6.5.dir/App/app/dtmf.c.obj
                0x080074dc                DTMF_clear_input_box
 .text.DTMF_Append
                0x08007500       0x34 CMakeFiles/n7six.ApeX-k1.v7.6.5.dir/App/app/dtmf.c.obj
                0x08007500                DTMF_Append
 .text.DTMF_Reply
                0x08007534       0xb8 CMakeFiles/n7six.ApeX-k1.v7.6.5.dir/App/app/dtmf.c.obj
                0x08007534                DTMF_Reply
 .text.GENERIC_Key_F
                0x080075ec       0x9c CMakeFiles/n7six.ApeX-k1.v7.6.5.dir/App/app/generic.c.obj
                0x080075ec                GENERIC_Key_F
 .text.GENERIC_Key_PTT
                0x08007688      0x18c CMakeFiles/n7six.ApeX-k1.v7.6.5.dir/App/app/generic.c.obj
                0x08007688                GENERIC_Key_PTT
 .text.processFKeyFunction
                0x08007814      0x378 CMakeFiles/n7six.ApeX-k1.v7.6.5.dir/App/app/main.c.obj
 .text.MAIN_Key_UP_DOWN.part.0
                0x08007b8c       0xe8 CMakeFiles/n7six.ApeX-k1.v7.6.5.dir/App/app/main.c.obj
 .text.channelMove
                0x08007c74       0x60 CMakeFiles/n7six.ApeX-k1.v7.6.5.dir/App/app/main.c.obj
                0x08007c74                channelMove
 .text.channelMoveSwitch
                0x08007cd4       0x68 CMakeFiles/n7six.ApeX-k1.v7.6.5.dir/App/app/main.c.obj
                0x08007cd4                channelMoveSwitch
 .text.MAIN_ProcessKeys
                0x08007d3c      0x5c0 CMakeFiles/n7six.ApeX-k1.v7.6.5.dir/App/app/main.c.obj
                0x08007d3c                MAIN_ProcessKeys
 .text.MENU_StartCssScan
                0x080082fc       0x24 CMakeFiles/n7six.ApeX-k1.v7.6.5.dir/App/app/menu.c.obj
                0x080082fc                MENU_StartCssScan
 .text.MENU_StopCssScan
                0x08008320       0x20 CMakeFiles/n7six.ApeX-k1.v7.6.5.dir/App/app/menu.c.obj
                0x08008320                MENU_StopCssScan
 .text.MENU_GetLimits
                0x08008340       0xe4 CMakeFiles/n7six.ApeX-k1.v7.6.5.dir/App/app/menu.c.obj
                0x08008340                MENU_GetLimits
 .text.MENU_Key_UP_DOWN
                0x08008424      0x1c8 CMakeFiles/n7six.ApeX-k1.v7.6.5.dir/App/app/menu.c.obj
 .text.MENU_AcceptSetting
                0x080085ec      0x5bc CMakeFiles/n7six.ApeX-k1.v7.6.5.dir/App/app/menu.c.obj
                0x080085ec                MENU_AcceptSetting
 .text.MENU_ShowCurrentSetting
                0x08008ba8      0x408 CMakeFiles/n7six.ApeX-k1.v7.6.5.dir/App/app/menu.c.obj
                0x08008ba8                MENU_ShowCurrentSetting
 .text.MENU_CssScanFound
                0x08008fb0       0x3c CMakeFiles/n7six.ApeX-k1.v7.6.5.dir/App/app/menu.c.obj
                0x08008fb0                MENU_CssScanFound
 .text.MENU_ProcessKeys
                0x08008fec      0x550 CMakeFiles/n7six.ApeX-k1.v7.6.5.dir/App/app/menu.c.obj
                0x08008fec                MENU_ProcessKeys
 .text.SCANNER_Key_UP_DOWN
                0x0800953c       0x68 CMakeFiles/n7six.ApeX-k1.v7.6.5.dir/App/app/scanner.c.obj
 .text.SCANNER_Start
                0x080095a4      0x108 CMakeFiles/n7six.ApeX-k1.v7.6.5.dir/App/app/scanner.c.obj
                0x080095a4                SCANNER_Start
 .text.SCANNER_IsScanning
                0x080096ac       0x20 CMakeFiles/n7six.ApeX-k1.v7.6.5.dir/App/app/scanner.c.obj
                0x080096ac                SCANNER_IsScanning
 .text.SCANNER_Stop
                0x080096cc       0x50 CMakeFiles/n7six.ApeX-k1.v7.6.5.dir/App/app/scanner.c.obj
                0x080096cc                SCANNER_Stop
 .text.SCANNER_ProcessKeys
                0x0800971c      0x2bc CMakeFiles/n7six.ApeX-k1.v7.6.5.dir/App/app/scanner.c.obj
                0x0800971c                SCANNER_ProcessKeys
 .text.SCANNER_TimeSlice10ms
                0x080099d8      0x184 CMakeFiles/n7six.ApeX-k1.v7.6.5.dir/App/app/scanner.c.obj
                0x080099d8                SCANNER_TimeSlice10ms
 .text.SCANNER_TimeSlice500ms
                0x08009b5c       0x48 CMakeFiles/n7six.ApeX-k1.v7.6.5.dir/App/app/scanner.c.obj
                0x08009b5c                SCANNER_TimeSlice500ms
 .text.AUDIO_PlayBeep
                0x08009ba4      0x178 CMakeFiles/n7six.ApeX-k1.v7.6.5.dir/App/audio.c.obj
                0x08009ba4                AUDIO_PlayBeep
 .text.BOARD_GPIO_Init
                0x08009d1c       0xbc CMakeFiles/n7six.ApeX-k1.v7.6.5.dir/App/board.c.obj
                0x08009d1c                BOARD_GPIO_Init
 .text.BOARD_ADC_Init
                0x08009dd8      0x1bc CMakeFiles/n7six.ApeX-k1.v7.6.5.dir/App/board.c.obj
                0x08009dd8                BOARD_ADC_Init
 .text.BOARD_ADC_GetBatteryInfo
                0x08009f94       0x2c CMakeFiles/n7six.ApeX-k1.v7.6.5.dir/App/board.c.obj
                0x08009f94                BOARD_ADC_GetBatteryInfo
 .text.BOARD_Init
                0x08009fc0       0x20 CMakeFiles/n7six.ApeX-k1.v7.6.5.dir/App/board.c.obj
                0x08009fc0                BOARD_Init
 .text.DCS_GetGolayCodeWord
                0x08009fe0       0x4c CMakeFiles/n7six.ApeX-k1.v7.6.5.dir/App/dcs.c.obj
                0x08009fe0                DCS_GetGolayCodeWord
 .text.DCS_GetCdcssCode
                0x0800a02c       0x5c CMakeFiles/n7six.ApeX-k1.v7.6.5.dir/App/dcs.c.obj
                0x0800a02c                DCS_GetCdcssCode
 .text.DCS_GetCtcssCode
                0x0800a088       0x2c CMakeFiles/n7six.ApeX-k1.v7.6.5.dir/App/dcs.c.obj
                0x0800a088                DCS_GetCtcssCode
 .text.FREQUENCY_GetStepIdxFromSortedIdx
                0x0800a0b4        0xc CMakeFiles/n7six.ApeX-k1.v7.6.5.dir/App/frequencies.c.obj
                0x0800a0b4                FREQUENCY_GetStepIdxFromSortedIdx
 .text.FREQUENCY_GetSortedIdxFromStepIdx
                0x0800a0c0       0x1c CMakeFiles/n7six.ApeX-k1.v7.6.5.dir/App/frequencies.c.obj
                0x0800a0c0                FREQUENCY_GetSortedIdxFromStepIdx
 .text.FREQUENCY_GetBand
                0x0800a0dc       0x1c CMakeFiles/n7six.ApeX-k1.v7.6.5.dir/App/frequencies.c.obj
                0x0800a0dc                FREQUENCY_GetBand
 .text.FREQUENCY_CalculateOutputPower
                0x0800a0f8       0x36 CMakeFiles/n7six.ApeX-k1.v7.6.5.dir/App/frequencies.c.obj
                0x0800a0f8                FREQUENCY_CalculateOutputPower
 *fill*         0x0800a12e        0x2 
 .text.FREQUENCY_RoundToStep
                0x0800a130       0x64 CMakeFiles/n7six.ApeX-k1.v7.6.5.dir/App/frequencies.c.obj
                0x0800a130                FREQUENCY_RoundToStep
 .text.TX_freq_check
                0x0800a194      0x1a4 CMakeFiles/n7six.ApeX-k1.v7.6.5.dir/App/frequencies.c.obj
                0x0800a194                TX_freq_check
 .text.RX_freq_check
                0x0800a338       0x34 CMakeFiles/n7six.ApeX-k1.v7.6.5.dir/App/frequencies.c.obj
                0x0800a338                RX_freq_check
 .text.FUNCTION_IsRx
                0x0800a36c       0x18 CMakeFiles/n7six.ApeX-k1.v7.6.5.dir/App/functions.c.obj
                0x0800a36c                FUNCTION_IsRx
 .text.FUNCTION_Init
                0x0800a384       0x90 CMakeFiles/n7six.ApeX-k1.v7.6.5.dir/App/functions.c.obj
                0x0800a384                FUNCTION_Init
 .text.FUNCTION_Foreground
                0x0800a414       0x44 CMakeFiles/n7six.ApeX-k1.v7.6.5.dir/App/functions.c.obj
                0x0800a414                FUNCTION_Foreground
 .text.FUNCTION_PowerSave
                0x0800a458       0x80 CMakeFiles/n7six.ApeX-k1.v7.6.5.dir/App/functions.c.obj
                0x0800a458                FUNCTION_PowerSave
 .text.FUNCTION_Transmit
                0x0800a4d8       0xd0 CMakeFiles/n7six.ApeX-k1.v7.6.5.dir/App/functions.c.obj
                0x0800a4d8                FUNCTION_Transmit
 .text.FUNCTION_Select
                0x0800a5a8       0xd0 CMakeFiles/n7six.ApeX-k1.v7.6.5.dir/App/functions.c.obj
                0x0800a5a8                FUNCTION_Select
 .text.BATTERY_VoltsToPercent
                0x0800a678       0x7c CMakeFiles/n7six.ApeX-k1.v7.6.5.dir/App/helper/battery.c.obj
                0x0800a678                BATTERY_VoltsToPercent
 .text.BATTERY_GetReadings
                0x0800a6f4      0x154 CMakeFiles/n7six.ApeX-k1.v7.6.5.dir/App/helper/battery.c.obj
                0x0800a6f4                BATTERY_GetReadings
 .text.BATTERY_TimeSlice500ms
                0x0800a848       0xb4 CMakeFiles/n7six.ApeX-k1.v7.6.5.dir/App/helper/battery.c.obj
                0x0800a848                BATTERY_TimeSlice500ms
 .text.BOOT_GetMode
                0x0800a8fc       0x74 CMakeFiles/n7six.ApeX-k1.v7.6.5.dir/App/helper/boot.c.obj
                0x0800a8fc                BOOT_GetMode
 .text.BOOT_ProcessMode
                0x0800a970       0x9c CMakeFiles/n7six.ApeX-k1.v7.6.5.dir/App/helper/boot.c.obj
                0x0800a970                BOOT_ProcessMode
 .text.FUNCTION_NOP
                0x0800aa0c        0x2 CMakeFiles/n7six.ApeX-k1.v7.6.5.dir/App/misc.c.obj
                0x0800aa0c                FUNCTION_NOP
 *fill*         0x0800aa0e        0x2 
 .text.NUMBER_AddWithWraparound
                0x0800aa10       0x20 CMakeFiles/n7six.ApeX-k1.v7.6.5.dir/App/misc.c.obj
                0x0800aa10                NUMBER_AddWithWraparound
 .text.StrToUL  0x0800aa30       0x2a CMakeFiles/n7six.ApeX-k1.v7.6.5.dir/App/misc.c.obj
                0x0800aa30                StrToUL
 *fill*         0x0800aa5a        0x2 
 .text.RADIO_SelectCurrentVfo
                0x0800aa5c       0x2c CMakeFiles/n7six.ApeX-k1.v7.6.5.dir/App/radio.c.obj
 .text.RADIO_CheckValidChannel
                0x0800aa88       0x88 CMakeFiles/n7six.ApeX-k1.v7.6.5.dir/App/radio.c.obj
                0x0800aa88                RADIO_CheckValidChannel
 .text.RADIO_FindNextChannel
                0x0800ab10       0x3c CMakeFiles/n7six.ApeX-k1.v7.6.5.dir/App/radio.c.obj
                0x0800ab10                RADIO_FindNextChannel
 .text.RADIO_ConfigureSquelchAndOutputPower
                0x0800ab4c      0x1d4 CMakeFiles/n7six.ApeX-k1.v7.6.5.dir/App/radio.c.obj
                0x0800ab4c                RADIO_ConfigureSquelchAndOutputPower
 .text.RADIO_InitInfo
                0x0800ad20       0x6c CMakeFiles/n7six.ApeX-k1.v7.6.5.dir/App/radio.c.obj
                0x0800ad20                RADIO_InitInfo
 .text.RADIO_ApplyOffset
                0x0800ad8c       0x1c CMakeFiles/n7six.ApeX-k1.v7.6.5.dir/App/radio.c.obj
                0x0800ad8c                RADIO_ApplyOffset
 .text.RADIO_ConfigureChannel
                0x0800ada8      0x3c8 CMakeFiles/n7six.ApeX-k1.v7.6.5.dir/App/radio.c.obj
                0x0800ada8                RADIO_ConfigureChannel
 .text.RADIO_SelectVfos
                0x0800b170       0x44 CMakeFiles/n7six.ApeX-k1.v7.6.5.dir/App/radio.c.obj
                0x0800b170                RADIO_SelectVfos
 .text.RADIO_SetTxParameters
                0x0800b1b4       0xe4 CMakeFiles/n7six.ApeX-k1.v7.6.5.dir/App/radio.c.obj
                0x0800b1b4                RADIO_SetTxParameters
 .text.RADIO_SetupAGC
                0x0800b298       0x38 CMakeFiles/n7six.ApeX-k1.v7.6.5.dir/App/radio.c.obj
                0x0800b298                RADIO_SetupAGC
 .text.RADIO_SetupRegisters
                0x0800b2d0      0x204 CMakeFiles/n7six.ApeX-k1.v7.6.5.dir/App/radio.c.obj
                0x0800b2d0                RADIO_SetupRegisters
 .text.RADIO_SetModulation
                0x0800b4d4      0x110 CMakeFiles/n7six.ApeX-k1.v7.6.5.dir/App/radio.c.obj
                0x0800b4d4                RADIO_SetModulation
 .text.RADIO_SetVfoState
                0x0800b5e4       0x4c CMakeFiles/n7six.ApeX-k1.v7.6.5.dir/App/radio.c.obj
                0x0800b5e4                RADIO_SetVfoState
 .text.RADIO_PrepareTX
                0x0800b630      0x140 CMakeFiles/n7six.ApeX-k1.v7.6.5.dir/App/radio.c.obj
                0x0800b630                RADIO_PrepareTX
 .text.RADIO_SendCssTail
                0x0800b770       0x28 CMakeFiles/n7six.ApeX-k1.v7.6.5.dir/App/radio.c.obj
                0x0800b770                RADIO_SendCssTail
 .text.RADIO_SendEndOfTransmission
                0x0800b798       0x24 CMakeFiles/n7six.ApeX-k1.v7.6.5.dir/App/radio.c.obj
                0x0800b798                RADIO_SendEndOfTransmission
 .text.SysTick_Handler
                0x0800b7bc      0x228 CMakeFiles/n7six.ApeX-k1.v7.6.5.dir/App/scheduler.c.obj
                0x0800b7bc                SysTick_Handler
 .text.SETTINGS_InitEEPROM
                0x0800b9e4      0x5e0 CMakeFiles/n7six.ApeX-k1.v7.6.5.dir/App/settings.c.obj
                0x0800b9e4                SETTINGS_InitEEPROM
 .text.SETTINGS_LoadCalibration
                0x0800bfc4      0x168 CMakeFiles/n7six.ApeX-k1.v7.6.5.dir/App/settings.c.obj
                0x0800bfc4                SETTINGS_LoadCalibration
 .text.SETTINGS_FetchChannelFrequency
                0x0800c12c       0x10 CMakeFiles/n7six.ApeX-k1.v7.6.5.dir/App/settings.c.obj
                0x0800c12c                SETTINGS_FetchChannelFrequency
 .text.SETTINGS_FetchChannelName
                0x0800c13c       0x52 CMakeFiles/n7six.ApeX-k1.v7.6.5.dir/App/settings.c.obj
                0x0800c13c                SETTINGS_FetchChannelName
 *fill*         0x0800c18e        0x2 
 .text.SETTINGS_FactoryReset
                0x0800c190       0xdc CMakeFiles/n7six.ApeX-k1.v7.6.5.dir/App/settings.c.obj
                0x0800c190                SETTINGS_FactoryReset
 .text.SETTINGS_SaveFM
                0x0800c26c       0x58 CMakeFiles/n7six.ApeX-k1.v7.6.5.dir/App/settings.c.obj
                0x0800c26c                SETTINGS_SaveFM
 .text.SETTINGS_SaveVfoIndices
                0x0800c2c4       0x3c CMakeFiles/n7six.ApeX-k1.v7.6.5.dir/App/settings.c.obj
                0x0800c2c4                SETTINGS_SaveVfoIndices
 .text.SETTINGS_SaveSettings
                0x0800c300      0x368 CMakeFiles/n7six.ApeX-k1.v7.6.5.dir/App/settings.c.obj
                0x0800c300                SETTINGS_SaveSettings
 .text.SETTINGS_SaveBatteryCalibration
                0x0800c668       0x14 CMakeFiles/n7six.ApeX-k1.v7.6.5.dir/App/settings.c.obj
                0x0800c668                SETTINGS_SaveBatteryCalibration
 .text.SETTINGS_SaveChannelName
                0x0800c67c       0x44 CMakeFiles/n7six.ApeX-k1.v7.6.5.dir/App/settings.c.obj
                0x0800c67c                SETTINGS_SaveChannelName
 .text.SETTINGS_UpdateChannel
                0x0800c6c0       0xc4 CMakeFiles/n7six.ApeX-k1.v7.6.5.dir/App/settings.c.obj
                0x0800c6c0                SETTINGS_UpdateChannel
 .text.SETTINGS_SaveChannel
                0x0800c784       0xd0 CMakeFiles/n7six.ApeX-k1.v7.6.5.dir/App/settings.c.obj
                0x0800c784                SETTINGS_SaveChannel
 .text.SETTINGS_WriteBuildOptions
                0x0800c854       0x28 CMakeFiles/n7six.ApeX-k1.v7.6.5.dir/App/settings.c.obj
                0x0800c854                SETTINGS_WriteBuildOptions
 .text.SETTINGS_WriteCurrentState
                0x0800c87c       0x48 CMakeFiles/n7six.ApeX-k1.v7.6.5.dir/App/settings.c.obj
                0x0800c87c                SETTINGS_WriteCurrentState
 .text.SETTINGS_ResetTxLock
                0x0800c8c4       0x46 CMakeFiles/n7six.ApeX-k1.v7.6.5.dir/App/settings.c.obj
                0x0800c8c4                SETTINGS_ResetTxLock
 *fill*         0x0800c90a        0x2 
 .text.UI_DrawBattery
                0x0800c90c       0x50 CMakeFiles/n7six.ApeX-k1.v7.6.5.dir/App/ui/battery.c.obj
                0x0800c90c                UI_DrawBattery
 .text.UI_DisplayBattery
                0x0800c95c       0x1c CMakeFiles/n7six.ApeX-k1.v7.6.5.dir/App/ui/battery.c.obj
                0x0800c95c                UI_DisplayBattery
 .text.UI_GenerateChannelString
                0x0800c978       0x4c CMakeFiles/n7six.ApeX-k1.v7.6.5.dir/App/ui/helper.c.obj
                0x0800c978                UI_GenerateChannelString
 .text.UI_GenerateChannelStringEx
                0x0800c9c4       0x60 CMakeFiles/n7six.ApeX-k1.v7.6.5.dir/App/ui/helper.c.obj
                0x0800c9c4                UI_GenerateChannelStringEx
 .text.UI_PrintStringBuffer
                0x0800ca24       0x4c CMakeFiles/n7six.ApeX-k1.v7.6.5.dir/App/ui/helper.c.obj
                0x0800ca24                UI_PrintStringBuffer
 .text.UI_PrintString
                0x0800ca70       0x90 CMakeFiles/n7six.ApeX-k1.v7.6.5.dir/App/ui/helper.c.obj
                0x0800ca70                UI_PrintString
 .text.UI_PrintStringSmall
                0x0800cb00       0x40 CMakeFiles/n7six.ApeX-k1.v7.6.5.dir/App/ui/helper.c.obj
                0x0800cb00                UI_PrintStringSmall
 .text.UI_PrintStringSmallNormal
                0x0800cb40       0x14 CMakeFiles/n7six.ApeX-k1.v7.6.5.dir/App/ui/helper.c.obj
                0x0800cb40                UI_PrintStringSmallNormal
 .text.UI_PrintStringSmallBold
                0x0800cb54       0x14 CMakeFiles/n7six.ApeX-k1.v7.6.5.dir/App/ui/helper.c.obj
                0x0800cb54                UI_PrintStringSmallBold
 .text.UI_PrintStringSmallBufferNormal
                0x0800cb68       0x10 CMakeFiles/n7six.ApeX-k1.v7.6.5.dir/App/ui/helper.c.obj
                0x0800cb68                UI_PrintStringSmallBufferNormal
 .text.UI_DisplayFrequency
                0x0800cb78       0xcc CMakeFiles/n7six.ApeX-k1.v7.6.5.dir/App/ui/helper.c.obj
                0x0800cb78                UI_DisplayFrequency
 .text.UI_DrawPixelBuffer
                0x0800cc44       0x2e CMakeFiles/n7six.ApeX-k1.v7.6.5.dir/App/ui/helper.c.obj
                0x0800cc44                UI_DrawPixelBuffer
 *fill*         0x0800cc72        0x2 
 .text.PutPixel
                0x0800cc74       0x18 CMakeFiles/n7six.ApeX-k1.v7.6.5.dir/App/ui/helper.c.obj
                0x0800cc74                PutPixel
 .text.PutPixelStatus
                0x0800cc8c       0x18 CMakeFiles/n7six.ApeX-k1.v7.6.5.dir/App/ui/helper.c.obj
                0x0800cc8c                PutPixelStatus
 .text.GUI_DisplaySmallest
                0x0800cca4       0x7c CMakeFiles/n7six.ApeX-k1.v7.6.5.dir/App/ui/helper.c.obj
                0x0800cca4                GUI_DisplaySmallest
 .text.UI_DrawLineBuffer
                0x0800cd20       0x94 CMakeFiles/n7six.ApeX-k1.v7.6.5.dir/App/ui/helper.c.obj
                0x0800cd20                UI_DrawLineBuffer
 .text.UI_DrawRectangleBuffer
                0x0800cdb4       0x54 CMakeFiles/n7six.ApeX-k1.v7.6.5.dir/App/ui/helper.c.obj
                0x0800cdb4                UI_DrawRectangleBuffer
 .text.UI_DisplayClear
                0x0800ce08       0x14 CMakeFiles/n7six.ApeX-k1.v7.6.5.dir/App/ui/helper.c.obj
                0x0800ce08                UI_DisplayClear
 .text.UI_DisplayPopup
                0x0800ce1c       0x2c CMakeFiles/n7six.ApeX-k1.v7.6.5.dir/App/ui/helper.c.obj
                0x0800ce1c                UI_DisplayPopup
 .text.INPUTBOX_Append
                0x0800ce48       0x30 CMakeFiles/n7six.ApeX-k1.v7.6.5.dir/App/ui/inputbox.c.obj
                0x0800ce48                INPUTBOX_Append
 .text.INPUTBOX_GetAscii
                0x0800ce78       0x28 CMakeFiles/n7six.ApeX-k1.v7.6.5.dir/App/ui/inputbox.c.obj
                0x0800ce78                INPUTBOX_GetAscii
 .text.isMainOnly
                0x0800cea0       0x18 CMakeFiles/n7six.ApeX-k1.v7.6.5.dir/App/ui/main.c.obj
 .text.DrawLevelBar
                0x0800ceb8       0x88 CMakeFiles/n7six.ApeX-k1.v7.6.5.dir/App/ui/main.c.obj
 .text.log2_approx
                0x0800cf40       0x10 CMakeFiles/n7six.ApeX-k1.v7.6.5.dir/App/ui/main.c.obj
                0x0800cf40                log2_approx
 .text.UI_DisplayAudioBar
                0x0800cf50       0xd8 CMakeFiles/n7six.ApeX-k1.v7.6.5.dir/App/ui/main.c.obj
                0x0800cf50                UI_DisplayAudioBar
 .text.DisplayRSSIBar
                0x0800d028      0x1e4 CMakeFiles/n7six.ApeX-k1.v7.6.5.dir/App/ui/main.c.obj
                0x0800d028                DisplayRSSIBar
 .text.UI_MAIN_TimeSlice500ms
                0x0800d20c       0xa4 CMakeFiles/n7six.ApeX-k1.v7.6.5.dir/App/ui/main.c.obj
                0x0800d20c                UI_MAIN_TimeSlice500ms
 .text.UI_DisplayMain
                0x0800d2b0      0xcec CMakeFiles/n7six.ApeX-k1.v7.6.5.dir/App/ui/main.c.obj
                0x0800d2b0                UI_DisplayMain
 .text.UI_MENU_GetCurrentMenuId
                0x0800df9c       0x1c CMakeFiles/n7six.ApeX-k1.v7.6.5.dir/App/ui/menu.c.obj
                0x0800df9c                UI_MENU_GetCurrentMenuId
 .text.UI_MENU_GetMenuIdx
                0x0800dfb8       0x20 CMakeFiles/n7six.ApeX-k1.v7.6.5.dir/App/ui/menu.c.obj
                0x0800dfb8                UI_MENU_GetMenuIdx
 .text.UI_DisplayMenu
                0x0800dfd8      0xb04 CMakeFiles/n7six.ApeX-k1.v7.6.5.dir/App/ui/menu.c.obj
                0x0800dfd8                UI_DisplayMenu
 .text.UI_DisplayScanner
                0x0800eadc      0x194 CMakeFiles/n7six.ApeX-k1.v7.6.5.dir/App/ui/scanner.c.obj
                0x0800eadc                UI_DisplayScanner
 .text.convertTime.constprop.0
                0x0800ec70       0x64 CMakeFiles/n7six.ApeX-k1.v7.6.5.dir/App/ui/status.c.obj
 .text.UI_DisplayStatus
                0x0800ecd4      0x2b4 CMakeFiles/n7six.ApeX-k1.v7.6.5.dir/App/ui/status.c.obj
                0x0800ecd4                UI_DisplayStatus
 .text.GUI_DisplayScreen
                0x0800ef88       0x1c CMakeFiles/n7six.ApeX-k1.v7.6.5.dir/App/ui/ui.c.obj
                0x0800ef88                GUI_DisplayScreen
 .text.GUI_SelectNextDisplay
                0x0800efa4       0x7c CMakeFiles/n7six.ApeX-k1.v7.6.5.dir/App/ui/ui.c.obj
                0x0800efa4                GUI_SelectNextDisplay
 .text.UI_DisplayReleaseKeys
                0x0800f020       0x48 CMakeFiles/n7six.ApeX-k1.v7.6.5.dir/App/ui/welcome.c.obj
                0x0800f020                UI_DisplayReleaseKeys
 .text.UI_DisplayWelcome
                0x0800f068      0x190 CMakeFiles/n7six.ApeX-k1.v7.6.5.dir/App/ui/welcome.c.obj
                0x0800f068                UI_DisplayWelcome
 .text.Main     0x0800f1f8      0x344 CMakeFiles/n7six.ApeX-k1.v7.6.5.dir/App/main.c.obj
                0x0800f1f8                Main
 .text._out_buffer
                0x0800f53c        0x8 CMakeFiles/n7six.ApeX-k1.v7.6.5.dir/App/external/printf/printf.c.obj
 .text._out_null
                0x0800f544        0x2 CMakeFiles/n7six.ApeX-k1.v7.6.5.dir/App/external/printf/printf.c.obj
 .text._ntoa_long
                0x0800f546      0x1c2 CMakeFiles/n7six.ApeX-k1.v7.6.5.dir/App/external/printf/printf.c.obj
 .text._vsnprintf
                0x0800f708      0x42c CMakeFiles/n7six.ApeX-k1.v7.6.5.dir/App/external/printf/printf.c.obj
 .text.sprintf_
                0x0800fb34       0x28 CMakeFiles/n7six.ApeX-k1.v7.6.5.dir/App/external/printf/printf.c.obj
                0x0800fb34                sprintf_
 .text.CRC_Init
                0x0800fb5c        0x2 CMakeFiles/n7six.ApeX-k1.v7.6.5.dir/App/driver/crc.c.obj
                0x0800fb5c                CRC_Init
 *fill*         0x0800fb5e        0x2 
 .text.CRC_Calculate
                0x0800fb60       0x3c CMakeFiles/n7six.ApeX-k1.v7.6.5.dir/App/driver/crc.c.obj
                0x0800fb60                CRC_Calculate
 .text.AddrTranslate
                0x0800fb9c       0x70 CMakeFiles/n7six.ApeX-k1.v7.6.5.dir/App/driver/eeprom_compat.c.obj
 .text.EEPROM_ReadBuffer
                0x0800fc0c       0x52 CMakeFiles/n7six.ApeX-k1.v7.6.5.dir/App/driver/eeprom_compat.c.obj
                0x0800fc0c                EEPROM_ReadBuffer
 .text.EEPROM_WriteBuffer
                0x0800fc5e       0x4a CMakeFiles/n7six.ApeX-k1.v7.6.5.dir/App/driver/eeprom_compat.c.obj
                0x0800fc5e                EEPROM_WriteBuffer
 .text.UART_Init
                0x0800fca8      0x130 CMakeFiles/n7six.ApeX-k1.v7.6.5.dir/App/driver/uart.c.obj
                0x0800fca8                UART_Init
 .text.UART_Send
                0x0800fdd8       0x20 CMakeFiles/n7six.ApeX-k1.v7.6.5.dir/App/driver/uart.c.obj
                0x0800fdd8                UART_Send
 .text.UART_IsCableConnected
                0x0800fdf8       0x24 CMakeFiles/n7six.ApeX-k1.v7.6.5.dir/App/driver/uart.c.obj
                0x0800fdf8                UART_IsCableConnected
 .text.SendReply
                0x0800fe1c       0xd0 CMakeFiles/n7six.ApeX-k1.v7.6.5.dir/App/app/uart.c.obj
 .text.UART_IsCommandAvailable
                0x0800feec      0x184 CMakeFiles/n7six.ApeX-k1.v7.6.5.dir/App/app/uart.c.obj
                0x0800feec                UART_IsCommandAvailable
 .text.UART_HandleCommand
                0x08010070      0x1fc CMakeFiles/n7six.ApeX-k1.v7.6.5.dir/App/app/uart.c.obj
                0x08010070                UART_HandleCommand
 .text.VCP_Init
                0x0801026c       0x74 CMakeFiles/n7six.ApeX-k1.v7.6.5.dir/App/driver/vcp.c.obj
                0x0801026c                VCP_Init
 .text.usbd_cdc_acm_bulk_out
                0x080102e0       0x68 CMakeFiles/n7six.ApeX-k1.v7.6.5.dir/App/usb/usbd_cdc_if.c.obj
                0x080102e0                usbd_cdc_acm_bulk_out
 .text.usbd_cdc_acm_bulk_in
                0x08010348       0x28 CMakeFiles/n7six.ApeX-k1.v7.6.5.dir/App/usb/usbd_cdc_if.c.obj
                0x08010348                usbd_cdc_acm_bulk_in
 .text.usbd_configure_done_callback
                0x08010370       0x14 CMakeFiles/n7six.ApeX-k1.v7.6.5.dir/App/usb/usbd_cdc_if.c.obj
                0x08010370                usbd_configure_done_callback
 .text.cdc_acm_init
                0x08010384       0x60 CMakeFiles/n7six.ApeX-k1.v7.6.5.dir/App/usb/usbd_cdc_if.c.obj
                0x08010384                cdc_acm_init
 .text.usbd_cdc_acm_set_dtr
                0x080103e4       0x14 CMakeFiles/n7six.ApeX-k1.v7.6.5.dir/App/usb/usbd_cdc_if.c.obj
                0x080103e4                usbd_cdc_acm_set_dtr
 .text.cdc_acm_data_send_with_dtr_async
                0x080103f8       0x12 CMakeFiles/n7six.ApeX-k1.v7.6.5.dir/App/usb/usbd_cdc_if.c.obj
                0x080103f8                cdc_acm_data_send_with_dtr_async
 .text.BK1080_ReadRegister
                0x0801040a       0x30 CMakeFiles/n7six.ApeX-k1.v7.6.5.dir/App/driver/bk1080.c.obj
                0x0801040a                BK1080_ReadRegister
 .text.BK1080_WriteRegister
                0x0801043a       0x30 CMakeFiles/n7six.ApeX-k1.v7.6.5.dir/App/driver/bk1080.c.obj
                0x0801043a                BK1080_WriteRegister
 *fill*         0x0801046a        0x2 
 .text.BK1080_Init0
                0x0801046c       0x10 CMakeFiles/n7six.ApeX-k1.v7.6.5.dir/App/driver/bk1080.c.obj
                0x0801046c                BK1080_Init0
 .text.BK1080_Mute
                0x0801047c       0x1c CMakeFiles/n7six.ApeX-k1.v7.6.5.dir/App/driver/bk1080.c.obj
                0x0801047c                BK1080_Mute
 .text.BK1080_SetFrequency
                0x08010498       0x50 CMakeFiles/n7six.ApeX-k1.v7.6.5.dir/App/driver/bk1080.c.obj
                0x08010498                BK1080_SetFrequency
 .text.BK1080_Init
                0x080104e8       0x98 CMakeFiles/n7six.ApeX-k1.v7.6.5.dir/App/driver/bk1080.c.obj
                0x080104e8                BK1080_Init
 .text.BK1080_GetFrequencyDeviation
                0x08010580       0x1c CMakeFiles/n7six.ApeX-k1.v7.6.5.dir/App/driver/bk1080.c.obj
                0x08010580                BK1080_GetFrequencyDeviation
 .text.BK1080_GetFreqLoLimit
                0x0801059c       0x10 CMakeFiles/n7six.ApeX-k1.v7.6.5.dir/App/driver/bk1080.c.obj
                0x0801059c                BK1080_GetFreqLoLimit
 .text.BK1080_GetFreqHiLimit
                0x080105ac       0x10 CMakeFiles/n7six.ApeX-k1.v7.6.5.dir/App/driver/bk1080.c.obj
                0x080105ac                BK1080_GetFreqHiLimit
 .text.FM_CheckValidChannel
                0x080105bc       0x3c CMakeFiles/n7six.ApeX-k1.v7.6.5.dir/App/app/fm.c.obj
                0x080105bc                FM_CheckValidChannel
 .text.FM_FindNextChannel
                0x080105f8       0x34 CMakeFiles/n7six.ApeX-k1.v7.6.5.dir/App/app/fm.c.obj
                0x080105f8                FM_FindNextChannel
 .text.FM_ConfigureChannelState
                0x0801062c       0x3c CMakeFiles/n7six.ApeX-k1.v7.6.5.dir/App/app/fm.c.obj
                0x0801062c                FM_ConfigureChannelState
 .text.Key_FUNC
                0x08010668       0xa8 CMakeFiles/n7six.ApeX-k1.v7.6.5.dir/App/app/fm.c.obj
 .text.FM_TurnOff
                0x08010710       0x58 CMakeFiles/n7six.ApeX-k1.v7.6.5.dir/App/app/fm.c.obj
                0x08010710                FM_TurnOff
 .text.FM_EraseChannels
                0x08010768       0x1c CMakeFiles/n7six.ApeX-k1.v7.6.5.dir/App/app/fm.c.obj
                0x08010768                FM_EraseChannels
 .text.FM_Tune  0x08010784       0xb4 CMakeFiles/n7six.ApeX-k1.v7.6.5.dir/App/app/fm.c.obj
                0x08010784                FM_Tune
 .text.Key_UP_DOWN
                0x08010838      0x104 CMakeFiles/n7six.ApeX-k1.v7.6.5.dir/App/app/fm.c.obj
 .text.FM_PlayAndUpdate
                0x0801093c       0x68 CMakeFiles/n7six.ApeX-k1.v7.6.5.dir/App/app/fm.c.obj
                0x0801093c                FM_PlayAndUpdate
 .text.FM_CheckFrequencyLock
                0x080109a4       0x94 CMakeFiles/n7six.ApeX-k1.v7.6.5.dir/App/app/fm.c.obj
                0x080109a4                FM_CheckFrequencyLock
 .text.FM_ProcessKeys
                0x08010a38      0x2ac CMakeFiles/n7six.ApeX-k1.v7.6.5.dir/App/app/fm.c.obj
                0x08010a38                FM_ProcessKeys
 .text.FM_Play  0x08010ce4       0xb4 CMakeFiles/n7six.ApeX-k1.v7.6.5.dir/App/app/fm.c.obj
                0x08010ce4                FM_Play
 .text.FM_Start
                0x08010d98       0x68 CMakeFiles/n7six.ApeX-k1.v7.6.5.dir/App/app/fm.c.obj
                0x08010d98                FM_Start
 .text.UI_DisplayFM
                0x08010e00      0x1d0 CMakeFiles/n7six.ApeX-k1.v7.6.5.dir/App/ui/fmradio.c.obj
                0x08010e00                UI_DisplayFM
 .text.AIRCOPY_clear
                0x08010fd0       0x18 CMakeFiles/n7six.ApeX-k1.v7.6.5.dir/App/app/aircopy.c.obj
 .text.AIRCOPY_SendMessage
                0x08010fe8       0xb4 CMakeFiles/n7six.ApeX-k1.v7.6.5.dir/App/app/aircopy.c.obj
                0x08010fe8                AIRCOPY_SendMessage
 .text.AIRCOPY_StorePacket
                0x0801109c       0xe0 CMakeFiles/n7six.ApeX-k1.v7.6.5.dir/App/app/aircopy.c.obj
                0x0801109c                AIRCOPY_StorePacket
 .text.AIRCOPY_ProcessKeys
                0x0801117c      0x158 CMakeFiles/n7six.ApeX-k1.v7.6.5.dir/App/app/aircopy.c.obj
                0x0801117c                AIRCOPY_ProcessKeys
 .text.UI_DisplayAircopy
                0x080112d4      0x1f8 CMakeFiles/n7six.ApeX-k1.v7.6.5.dir/App/ui/aircopy.c.obj
                0x080112d4                UI_DisplayAircopy
 .text.FlashlightTimeSlice
                0x080114cc       0xa4 CMakeFiles/n7six.ApeX-k1.v7.6.5.dir/App/app/flashlight.c.obj
                0x080114cc                FlashlightTimeSlice
 .text.ACTION_FlashLight
                0x08011570       0x38 CMakeFiles/n7six.ApeX-k1.v7.6.5.dir/App/app/flashlight.c.obj
                0x08011570                ACTION_FlashLight
 .text.FastRandom
                0x080115a8       0x20 CMakeFiles/n7six.ApeX-k1.v7.6.5.dir/App/app/spectrum.c.obj
 .text.Rssi2DBm
                0x080115c8       0x1c CMakeFiles/n7six.ApeX-k1.v7.6.5.dir/App/app/spectrum.c.obj
 .text.ResetScanStats
                0x080115e4       0x14 CMakeFiles/n7six.ApeX-k1.v7.6.5.dir/App/app/spectrum.c.obj
 .text.UpdatePeakInfo
                0x080115f8       0x90 CMakeFiles/n7six.ApeX-k1.v7.6.5.dir/App/app/spectrum.c.obj
 .text.MapMeasurementToDisplay
                0x08011688       0x20 CMakeFiles/n7six.ApeX-k1.v7.6.5.dir/App/app/spectrum.c.obj
 .text.GetCentroidFrequency
                0x080116a8       0x94 CMakeFiles/n7six.ApeX-k1.v7.6.5.dir/App/app/spectrum.c.obj
 .text.SetRssiHistory
                0x0801173c       0x28 CMakeFiles/n7six.ApeX-k1.v7.6.5.dir/App/app/spectrum.c.obj
 .text.ToggleListeningBW
                0x08011764       0x20 CMakeFiles/n7six.ApeX-k1.v7.6.5.dir/App/app/spectrum.c.obj
 .text.GetRegMenuValue
                0x08011784       0x20 CMakeFiles/n7six.ApeX-k1.v7.6.5.dir/App/app/spectrum.c.obj
 .text.RestoreRegisters
                0x080117a4       0x2c CMakeFiles/n7six.ApeX-k1.v7.6.5.dir/App/app/spectrum.c.obj
 .text.SetF     0x080117d0       0x30 CMakeFiles/n7six.ApeX-k1.v7.6.5.dir/App/app/spectrum.c.obj
 .text.TuneToPeak
                0x08011800       0x28 CMakeFiles/n7six.ApeX-k1.v7.6.5.dir/App/app/spectrum.c.obj
 .text.ResetBlacklist
                0x08011828       0x3c CMakeFiles/n7six.ApeX-k1.v7.6.5.dir/App/app/spectrum.c.obj
 .text.ToggleBacklight
                0x08011864       0x20 CMakeFiles/n7six.ApeX-k1.v7.6.5.dir/App/app/spectrum.c.obj
 .text.DrawF    0x08011884       0xfc CMakeFiles/n7six.ApeX-k1.v7.6.5.dir/App/app/spectrum.c.obj
 .text.SetBandLed.part.0.constprop.0
                0x08011980       0x3c CMakeFiles/n7six.ApeX-k1.v7.6.5.dir/App/app/spectrum.c.obj
 .text.UpdateDBMax
                0x080119bc       0x70 CMakeFiles/n7six.ApeX-k1.v7.6.5.dir/App/app/spectrum.c.obj
 .text.SYSTEM_DelayUs
                0x08011a2c       0x12 CMakeFiles/n7six.ApeX-k1.v7.6.5.dir/App/app/spectrum.c.obj
                0x08011a2c                SYSTEM_DelayUs
 .text.DrawLine
                0x08011a3e       0x8c CMakeFiles/n7six.ApeX-k1.v7.6.5.dir/App/app/spectrum.c.obj
                0x08011a3e                DrawLine
 *fill*         0x08011aca        0x2 
 .text.LockAGC  0x08011acc       0x24 CMakeFiles/n7six.ApeX-k1.v7.6.5.dir/App/app/spectrum.c.obj
                0x08011acc                LockAGC
 .text.SetRegMenuValue
                0x08011af0       0x78 CMakeFiles/n7six.ApeX-k1.v7.6.5.dir/App/app/spectrum.c.obj
 .text.IsPeakOverLevel
                0x08011b68       0x1c CMakeFiles/n7six.ApeX-k1.v7.6.5.dir/App/app/spectrum.c.obj
                0x08011b68                IsPeakOverLevel
 .text.GetScanStep
                0x08011b84       0x14 CMakeFiles/n7six.ApeX-k1.v7.6.5.dir/App/app/spectrum.c.obj
                0x08011b84                GetScanStep
 .text.GetStepsCount
                0x08011b98       0x38 CMakeFiles/n7six.ApeX-k1.v7.6.5.dir/App/app/spectrum.c.obj
                0x08011b98                GetStepsCount
 .text.GetDisplayWidth
                0x08011bd0       0x38 CMakeFiles/n7six.ApeX-k1.v7.6.5.dir/App/app/spectrum.c.obj
 .text.UpdateWaterfall
                0x08011c08       0xf4 CMakeFiles/n7six.ApeX-k1.v7.6.5.dir/App/app/spectrum.c.obj
 .text.SpecIdxToX
                0x08011cfc       0x1e CMakeFiles/n7six.ApeX-k1.v7.6.5.dir/App/app/spectrum.c.obj
 .text.GetBW    0x08011d1a       0x10 CMakeFiles/n7six.ApeX-k1.v7.6.5.dir/App/app/spectrum.c.obj
                0x08011d1a                GetBW
 *fill*         0x08011d2a        0x2 
 .text.GetFStart
                0x08011d2c       0x38 CMakeFiles/n7six.ApeX-k1.v7.6.5.dir/App/app/spectrum.c.obj
                0x08011d2c                GetFStart
 .text.InitScan
                0x08011d64       0x24 CMakeFiles/n7six.ApeX-k1.v7.6.5.dir/App/app/spectrum.c.obj
 .text.GetFEnd  0x08011d88       0x3c CMakeFiles/n7six.ApeX-k1.v7.6.5.dir/App/app/spectrum.c.obj
                0x08011d88                GetFEnd
 .text.GetBWRegValueForScan
                0x08011dc4       0x14 CMakeFiles/n7six.ApeX-k1.v7.6.5.dir/App/app/spectrum.c.obj
                0x08011dc4                GetBWRegValueForScan
 .text.ToggleRX
                0x08011dd8      0x128 CMakeFiles/n7six.ApeX-k1.v7.6.5.dir/App/app/spectrum.c.obj
 .text.GetRssi  0x08011f00       0x1e CMakeFiles/n7six.ApeX-k1.v7.6.5.dir/App/app/spectrum.c.obj
                0x08011f00                GetRssi
 *fill*         0x08011f1e        0x2 
 .text.Measure  0x08011f20       0x20 CMakeFiles/n7six.ApeX-k1.v7.6.5.dir/App/app/spectrum.c.obj
 .text.RelaunchScan
                0x08011f40       0x30 CMakeFiles/n7six.ApeX-k1.v7.6.5.dir/App/app/spectrum.c.obj
 .text.ToggleModulation
                0x08011f70       0x2c CMakeFiles/n7six.ApeX-k1.v7.6.5.dir/App/app/spectrum.c.obj
 .text.UpdateFreqChangeStep
                0x08011f9c       0x80 CMakeFiles/n7six.ApeX-k1.v7.6.5.dir/App/app/spectrum.c.obj
 .text.UpdateCurrentFreq
                0x0801201c       0x6c CMakeFiles/n7six.ApeX-k1.v7.6.5.dir/App/app/spectrum.c.obj
 .text.SetState
                0x08012088       0x3c CMakeFiles/n7six.ApeX-k1.v7.6.5.dir/App/app/spectrum.c.obj
                0x08012088                SetState
 .text.FreqInput
                0x080120c4       0x3c CMakeFiles/n7six.ApeX-k1.v7.6.5.dir/App/app/spectrum.c.obj
 .text.UpdateFreqInput
                0x08012100      0x19c CMakeFiles/n7six.ApeX-k1.v7.6.5.dir/App/app/spectrum.c.obj
 .text.Rssi2PX  0x0801229c       0x74 CMakeFiles/n7six.ApeX-k1.v7.6.5.dir/App/app/spectrum.c.obj
                0x0801229c                Rssi2PX
 .text.Rssi2Y   0x08012310       0x12 CMakeFiles/n7six.ApeX-k1.v7.6.5.dir/App/app/spectrum.c.obj
                0x08012310                Rssi2Y
 *fill*         0x08012322        0x2 
 .text.RenderSpectrum
                0x08012324      0x5d0 CMakeFiles/n7six.ApeX-k1.v7.6.5.dir/App/app/spectrum.c.obj
 .text.UpdateRssiTriggerLevel
                0x080128f4       0x30 CMakeFiles/n7six.ApeX-k1.v7.6.5.dir/App/app/spectrum.c.obj
                0x080128f4                UpdateRssiTriggerLevel
 .text.OnKeyDownStill
                0x08012924      0x114 CMakeFiles/n7six.ApeX-k1.v7.6.5.dir/App/app/spectrum.c.obj
                0x08012924                OnKeyDownStill
 .text.APP_RunSpectrum
                0x08012a38      0xe00 CMakeFiles/n7six.ApeX-k1.v7.6.5.dir/App/app/spectrum.c.obj
                0x08012a38                APP_RunSpectrum
 .text.HandleUserInput.isra.0
                0x08013838       0xec CMakeFiles/n7six.ApeX-k1.v7.6.5.dir/App/app/breakout.c.obj
 .text.rand_custom
                0x08013924       0x20 CMakeFiles/n7six.ApeX-k1.v7.6.5.dir/App/app/breakout.c.obj
                0x08013924                rand_custom
 .text.reset    0x08013944       0x20 CMakeFiles/n7six.ApeX-k1.v7.6.5.dir/App/app/breakout.c.obj
                0x08013944                reset
 .text.playBeep
                0x08013964       0x24 CMakeFiles/n7six.ApeX-k1.v7.6.5.dir/App/app/breakout.c.obj
                0x08013964                playBeep
 .text.drawScore
                0x08013988       0x8c CMakeFiles/n7six.ApeX-k1.v7.6.5.dir/App/app/breakout.c.obj
                0x08013988                drawScore
 .text.initBall
                0x08013a14       0x54 CMakeFiles/n7six.ApeX-k1.v7.6.5.dir/App/app/breakout.c.obj
                0x08013a14                initBall
 .text.initWall
                0x08013a68       0x68 CMakeFiles/n7six.ApeX-k1.v7.6.5.dir/App/app/breakout.c.obj
                0x08013a68                initWall
 .text.drawWall
                0x08013ad0      0x144 CMakeFiles/n7six.ApeX-k1.v7.6.5.dir/App/app/breakout.c.obj
                0x08013ad0                drawWall
 .text.initRacket
                0x08013c14       0x4c CMakeFiles/n7six.ApeX-k1.v7.6.5.dir/App/app/breakout.c.obj
                0x08013c14                initRacket
 .text.drawBall
                0x08013c60      0x1bc CMakeFiles/n7six.ApeX-k1.v7.6.5.dir/App/app/breakout.c.obj
                0x08013c60                drawBall
 .text.drawRacket
                0x08013e1c       0x94 CMakeFiles/n7six.ApeX-k1.v7.6.5.dir/App/app/breakout.c.obj
                0x08013e1c                drawRacket
 .text.APP_RunBreakout
                0x08013eb0       0xf4 CMakeFiles/n7six.ApeX-k1.v7.6.5.dir/App/app/breakout.c.obj
                0x08013eb0                APP_RunBreakout
 .text.getScreenShot
                0x08013fa4      0x1a4 CMakeFiles/n7six.ApeX-k1.v7.6.5.dir/App/screenshot.c.obj
                0x08013fa4                getScreenShot
 .text.usbd_class_event_notify_handler
                0x08014148       0x24 CMakeFiles/n7six.ApeX-k1.v7.6.5.dir/Middlewares/CherryUSB/core/usbd_core.c.obj
 .text.usbd_set_endpoint
                0x0801416c       0x2c CMakeFiles/n7six.ApeX-k1.v7.6.5.dir/Middlewares/CherryUSB/core/usbd_core.c.obj
 .text.usbd_setup_request_handler.constprop.0
                0x08014198      0x380 CMakeFiles/n7six.ApeX-k1.v7.6.5.dir/Middlewares/CherryUSB/core/usbd_core.c.obj
 .text.usbd_event_resume_handler
                0x08014518        0xc CMakeFiles/n7six.ApeX-k1.v7.6.5.dir/Middlewares/CherryUSB/core/usbd_core.c.obj
                0x08014518                usbd_event_resume_handler
 .text.usbd_event_suspend_handler
                0x08014524        0xc CMakeFiles/n7six.ApeX-k1.v7.6.5.dir/Middlewares/CherryUSB/core/usbd_core.c.obj
                0x08014524                usbd_event_suspend_handler
 .text.usbd_event_reset_handler
                0x08014530       0x38 CMakeFiles/n7six.ApeX-k1.v7.6.5.dir/Middlewares/CherryUSB/core/usbd_core.c.obj
                0x08014530                usbd_event_reset_handler
 .text.usbd_event_ep0_setup_complete_handler
                0x08014568       0x94 CMakeFiles/n7six.ApeX-k1.v7.6.5.dir/Middlewares/CherryUSB/core/usbd_core.c.obj
                0x08014568                usbd_event_ep0_setup_complete_handler
 .text.usbd_event_ep_in_complete_handler
                0x080145fc       0x58 CMakeFiles/n7six.ApeX-k1.v7.6.5.dir/Middlewares/CherryUSB/core/usbd_core.c.obj
                0x080145fc                usbd_event_ep_in_complete_handler
 .text.usbd_event_ep_out_complete_handler
                0x08014654       0x64 CMakeFiles/n7six.ApeX-k1.v7.6.5.dir/Middlewares/CherryUSB/core/usbd_core.c.obj
                0x08014654                usbd_event_ep_out_complete_handler
 .text.usbd_desc_register
                0x080146b8       0x14 CMakeFiles/n7six.ApeX-k1.v7.6.5.dir/Middlewares/CherryUSB/core/usbd_core.c.obj
                0x080146b8                usbd_desc_register
 .text.usbd_add_interface
                0x080146cc       0x2c CMakeFiles/n7six.ApeX-k1.v7.6.5.dir/Middlewares/CherryUSB/core/usbd_core.c.obj
                0x080146cc                usbd_add_interface
 .text.usbd_add_endpoint
                0x080146f8       0x2c CMakeFiles/n7six.ApeX-k1.v7.6.5.dir/Middlewares/CherryUSB/core/usbd_core.c.obj
                0x080146f8                usbd_add_endpoint
 .text.usbd_initialize
                0x08014724        0x8 CMakeFiles/n7six.ApeX-k1.v7.6.5.dir/Middlewares/CherryUSB/core/usbd_core.c.obj
                0x08014724                usbd_initialize
 .text.pyusb_write_packet
                0x0801472c       0x20 CMakeFiles/n7six.ApeX-k1.v7.6.5.dir/Middlewares/CherryUSB/port/usb_dc_py32.c.obj
 .text.usbd_ep0_set_zlp_flag
                0x0801474c        0xc CMakeFiles/n7six.ApeX-k1.v7.6.5.dir/Middlewares/CherryUSB/port/usb_dc_py32.c.obj
                0x0801474c                usbd_ep0_set_zlp_flag
 .text.usb_dc_low_level_init
                0x08014758        0x2 CMakeFiles/n7six.ApeX-k1.v7.6.5.dir/Middlewares/CherryUSB/port/usb_dc_py32.c.obj
                0x08014758                usb_dc_low_level_init
 *fill*         0x0801475a        0x2 
 .text.usb_dc_init
                0x0801475c       0x20 CMakeFiles/n7six.ApeX-k1.v7.6.5.dir/Middlewares/CherryUSB/port/usb_dc_py32.c.obj
                0x0801475c                usb_dc_init
 .text.usbd_set_address
                0x0801477c       0x18 CMakeFiles/n7six.ApeX-k1.v7.6.5.dir/Middlewares/CherryUSB/port/usb_dc_py32.c.obj
                0x0801477c                usbd_set_address
 .text.usbd_ep_open
                0x08014794      0x124 CMakeFiles/n7six.ApeX-k1.v7.6.5.dir/Middlewares/CherryUSB/port/usb_dc_py32.c.obj
                0x08014794                usbd_ep_open
 .text.usbd_ep_close
                0x080148b8        0x4 CMakeFiles/n7six.ApeX-k1.v7.6.5.dir/Middlewares/CherryUSB/port/usb_dc_py32.c.obj
                0x080148b8                usbd_ep_close
 .text.usbd_ep_set_stall
                0x080148bc       0x4c CMakeFiles/n7six.ApeX-k1.v7.6.5.dir/Middlewares/CherryUSB/port/usb_dc_py32.c.obj
                0x080148bc                usbd_ep_set_stall
 .text.usbd_ep_clear_stall
                0x08014908       0x50 CMakeFiles/n7six.ApeX-k1.v7.6.5.dir/Middlewares/CherryUSB/port/usb_dc_py32.c.obj
                0x08014908                usbd_ep_clear_stall
 .text.usbd_ep_is_stalled
                0x08014958       0x34 CMakeFiles/n7six.ApeX-k1.v7.6.5.dir/Middlewares/CherryUSB/port/usb_dc_py32.c.obj
                0x08014958                usbd_ep_is_stalled
 .text.usbd_ep_start_write
                0x0801498c      0x10c CMakeFiles/n7six.ApeX-k1.v7.6.5.dir/Middlewares/CherryUSB/port/usb_dc_py32.c.obj
                0x0801498c                usbd_ep_start_write
 .text.usbd_ep_start_read
                0x08014a98       0x94 CMakeFiles/n7six.ApeX-k1.v7.6.5.dir/Middlewares/CherryUSB/port/usb_dc_py32.c.obj
                0x08014a98                usbd_ep_start_read
 .text.USB_IRQHandler
                0x08014b2c      0x2a8 CMakeFiles/n7six.ApeX-k1.v7.6.5.dir/Middlewares/CherryUSB/port/usb_dc_py32.c.obj
                0x08014b2c                USB_IRQHandler
 .text.cdc_notify_handler
                0x08014dd4        0x2 CMakeFiles/n7six.ApeX-k1.v7.6.5.dir/Middlewares/CherryUSB/class/cdc/usbd_cdc.c.obj
 *fill*         0x08014dd6        0x2 
 .text.usbd_cdc_acm_init_intf
                0x08014dd8       0x18 CMakeFiles/n7six.ApeX-k1.v7.6.5.dir/Middlewares/CherryUSB/class/cdc/usbd_cdc.c.obj
                0x08014dd8                usbd_cdc_acm_init_intf
 .text.usbd_cdc_acm_set_line_coding
                0x08014df0        0x2 CMakeFiles/n7six.ApeX-k1.v7.6.5.dir/Middlewares/CherryUSB/class/cdc/usbd_cdc.c.obj
                0x08014df0                usbd_cdc_acm_set_line_coding
 .text.usbd_cdc_acm_get_line_coding
                0x08014df2       0x1c CMakeFiles/n7six.ApeX-k1.v7.6.5.dir/Middlewares/CherryUSB/class/cdc/usbd_cdc.c.obj
                0x08014df2                usbd_cdc_acm_get_line_coding
 .text.usbd_cdc_acm_set_rts
                0x08014e0e        0x2 CMakeFiles/n7six.ApeX-k1.v7.6.5.dir/Middlewares/CherryUSB/class/cdc/usbd_cdc.c.obj
                0x08014e0e                usbd_cdc_acm_set_rts
 .text.cdc_acm_class_interface_request_handler
                0x08014e10       0x70 CMakeFiles/n7six.ApeX-k1.v7.6.5.dir/Middlewares/CherryUSB/class/cdc/usbd_cdc.c.obj
 .text.__muldi3
                0x08014e80       0x5c /opt/toolchain/bin/../lib/gcc/arm-none-eabi/13.3.1/thumb/v6-m/nofp/libgcc.a(_muldi3.o)
                0x08014e80                __aeabi_lmul
                0x08014e80                __muldi3
 .text.__libc_init_array
                0x08014edc       0x48 /opt/toolchain/bin/../lib/gcc/arm-none-eabi/13.3.1/../../../../arm-none-eabi/lib/thumb/v6-m/nofp/libg_nano.a(libc_a-init.o)
                0x08014edc                __libc_init_array
 .text.memmove  0x08014f24       0x24 /opt/toolchain/bin/../lib/gcc/arm-none-eabi/13.3.1/../../../../arm-none-eabi/lib/thumb/v6-m/nofp/libg_nano.a(libc_a-memmove.o)
                0x08014f24                memmove
 .text.memset   0x08014f48       0x10 /opt/toolchain/bin/../lib/gcc/arm-none-eabi/13.3.1/../../../../arm-none-eabi/lib/thumb/v6-m/nofp/libg_nano.a(libc_a-memset.o)
                0x08014f48                memset
 .text.strcpy   0x08014f58       0x10 /opt/toolchain/bin/../lib/gcc/arm-none-eabi/13.3.1/../../../../arm-none-eabi/lib/thumb/v6-m/nofp/libg_nano.a(libc_a-strcpy.o)
                0x08014f58                strcpy
 .text.memcpy   0x08014f68       0x12 /opt/toolchain/bin/../lib/gcc/arm-none-eabi/13.3.1/../../../../arm-none-eabi/lib/thumb/v6-m/nofp/libg_nano.a(libc_a-memcpy-stub.o)
                0x08014f68                memcpy
 .text.strncpy  0x08014f7a       0x28 /opt/toolchain/bin/../lib/gcc/arm-none-eabi/13.3.1/../../../../arm-none-eabi/lib/thumb/v6-m/nofp/libg_nano.a(libc_a-strncpy.o)
                0x08014f7a                strncpy
 .text.memcmp   0x08014fa2       0x1c /opt/toolchain/bin/../lib/gcc/arm-none-eabi/13.3.1/../../../../arm-none-eabi/lib/thumb/v6-m/nofp/libg_nano.a(libc_a-memcmp.o)
                0x08014fa2                memcmp
 *(.glue_7)
 .glue_7        0x08014fbe        0x0 linker stubs
 *(.glue_7t)
 .glue_7t       0x08014fbe        0x0 linker stubs
 *(.eh_frame)
 *fill*         0x08014fbe        0x2 
 .eh_frame      0x08014fc0        0x0 /opt/toolchain/bin/../lib/gcc/arm-none-eabi/13.3.1/thumb/v6-m/nofp/crtbegin.o
 *(.init)
 .init          0x08014fc0        0x4 /opt/toolchain/bin/../lib/gcc/arm-none-eabi/13.3.1/thumb/v6-m/nofp/crti.o
                0x08014fc0                _init
 .init          0x08014fc4        0x8 /opt/toolchain/bin/../lib/gcc/arm-none-eabi/13.3.1/thumb/v6-m/nofp/crtn.o
 *(.fini)
 .fini          0x08014fcc        0x4 /opt/toolchain/bin/../lib/gcc/arm-none-eabi/13.3.1/thumb/v6-m/nofp/crti.o
                0x08014fcc                _fini
 .fini          0x08014fd0        0x8 /opt/toolchain/bin/../lib/gcc/arm-none-eabi/13.3.1/thumb/v6-m/nofp/crtn.o
                0x08014fd8                        . = ALIGN (0x4)
                0x08014fd8                        _etext = .

.vfp11_veneer   0x08014fd8        0x0
 .vfp11_veneer  0x08014fd8        0x0 linker stubs

.v4_bx          0x08014fd8        0x0
 .v4_bx         0x08014fd8        0x0 linker stubs

.iplt           0x08014fd8        0x0
 .iplt          0x08014fd8        0x0 /opt/toolchain/bin/../lib/gcc/arm-none-eabi/13.3.1/thumb/v6-m/nofp/crtbegin.o

.rodata         0x08014fd8     0x1fb0
                0x08014fd8                        . = ALIGN (0x4)
 *(.rodata)
 .rodata        0x08014fd8       0x64 CMakeFiles/n7six.ApeX-k1.v7.6.5.dir/App/driver/bk4829.c.obj
 .rodata        0x0801503c       0x14 CMakeFiles/n7six.ApeX-k1.v7.6.5.dir/App/app/menu.c.obj
 .rodata        0x08015050       0x70 CMakeFiles/n7six.ApeX-k1.v7.6.5.dir/App/ui/main.c.obj
 .rodata        0x080150c0        0xc CMakeFiles/n7six.ApeX-k1.v7.6.5.dir/App/driver/vcp.c.obj
 *(.rodata*)
 .rodata.HSIFreqTable
                0x080150cc       0x20 CMakeFiles/n7six.ApeX-k1.v7.6.5.dir/Core/Src/system_py32f071.c.obj
                0x080150cc                HSIFreqTable
 .rodata.APBPrescTable
                0x080150ec       0x20 CMakeFiles/n7six.ApeX-k1.v7.6.5.dir/Core/Src/system_py32f071.c.obj
                0x080150ec                APBPrescTable
 .rodata.AHBPrescTable
                0x0801510c       0x40 CMakeFiles/n7six.ApeX-k1.v7.6.5.dir/Core/Src/system_py32f071.c.obj
                0x0801510c                AHBPrescTable
 .rodata.CHANNEL_OFFSET_TAB
                0x0801514c        0x7 CMakeFiles/n7six.ApeX-k1.v7.6.5.dir/Drivers/PY32F071_HAL_Driver/Src/py32f071_ll_dma.c.obj
 .rodata.value  0x08015153        0xb CMakeFiles/n7six.ApeX-k1.v7.6.5.dir/App/driver/backlight.c.obj
                0x08015153                value
 .rodata.BK4819_Init.str1.1
                0x0801515e      0x67a CMakeFiles/n7six.ApeX-k1.v7.6.5.dir/App/driver/bk4829.c.obj
                                 0x11 (size before relaxing)
 .rodata.CSWTCH.58
                0x080157d8        0x8 CMakeFiles/n7six.ApeX-k1.v7.6.5.dir/App/driver/bk4829.c.obj
 .rodata.FSK_RogerTable
                0x080157e0        0xe CMakeFiles/n7six.ApeX-k1.v7.6.5.dir/App/driver/bk4829.c.obj
 .rodata.keyboard
                0x080157ee       0x14 CMakeFiles/n7six.ApeX-k1.v7.6.5.dir/App/driver/keyboard.c.obj
 *fill*         0x08015802        0x2 
 .rodata.HandleFunction_fn_table
                0x08015804       0x1c CMakeFiles/n7six.ApeX-k1.v7.6.5.dir/App/app/app.c.obj
 .rodata.CSWTCH.19
                0x08015820        0x6 CMakeFiles/n7six.ApeX-k1.v7.6.5.dir/App/app/dtmf.c.obj
 .rodata.MENU_Key_UP_DOWN.str1.1
                0x08015826        0xf CMakeFiles/n7six.ApeX-k1.v7.6.5.dir/App/app/menu.c.obj
 .rodata.CSWTCH.17
                0x08015826       0x10 CMakeFiles/n7six.ApeX-k1.v7.6.5.dir/App/audio.c.obj
 .rodata.BITMAP_PowerUser
                0x08015836        0x3 CMakeFiles/n7six.ApeX-k1.v7.6.5.dir/App/bitmaps.c.obj
                0x08015836                BITMAP_PowerUser
 .rodata.BITMAP_compand
                0x08015839        0x6 CMakeFiles/n7six.ApeX-k1.v7.6.5.dir/App/bitmaps.c.obj
                0x08015839                BITMAP_compand
 .rodata.BITMAP_ScanListAll
                0x0801583f       0x13 CMakeFiles/n7six.ApeX-k1.v7.6.5.dir/App/bitmaps.c.obj
                0x0801583f                BITMAP_ScanListAll
 .rodata.BITMAP_ScanList123
                0x08015852       0x13 CMakeFiles/n7six.ApeX-k1.v7.6.5.dir/App/bitmaps.c.obj
                0x08015852                BITMAP_ScanList123
 .rodata.BITMAP_ScanListE
                0x08015865        0x7 CMakeFiles/n7six.ApeX-k1.v7.6.5.dir/App/bitmaps.c.obj
                0x08015865                BITMAP_ScanListE
 .rodata.BITMAP_ScanList3
                0x0801586c        0x7 CMakeFiles/n7six.ApeX-k1.v7.6.5.dir/App/bitmaps.c.obj
                0x0801586c                BITMAP_ScanList3
 .rodata.BITMAP_ScanList2
                0x08015873        0x7 CMakeFiles/n7six.ApeX-k1.v7.6.5.dir/App/bitmaps.c.obj
                0x08015873                BITMAP_ScanList2
 .rodata.BITMAP_ScanList1
                0x0801587a        0x7 CMakeFiles/n7six.ApeX-k1.v7.6.5.dir/App/bitmaps.c.obj
                0x0801587a                BITMAP_ScanList1
 .rodata.BITMAP_ScanList0
                0x08015881        0x7 CMakeFiles/n7six.ApeX-k1.v7.6.5.dir/App/bitmaps.c.obj
                0x08015881                BITMAP_ScanList0
 .rodata.BITMAP_VFO_NotDefault
                0x08015888        0x7 CMakeFiles/n7six.ApeX-k1.v7.6.5.dir/App/bitmaps.c.obj
                0x08015888                BITMAP_VFO_NotDefault
 .rodata.BITMAP_VFO_Default
                0x0801588f        0x7 CMakeFiles/n7six.ApeX-k1.v7.6.5.dir/App/bitmaps.c.obj
                0x0801588f                BITMAP_VFO_Default
 .rodata.BITMAP_VFO_Lock
                0x08015896        0x7 CMakeFiles/n7six.ApeX-k1.v7.6.5.dir/App/bitmaps.c.obj
                0x08015896                BITMAP_VFO_Lock
 .rodata.BITMAP_Antenna
                0x0801589d        0x5 CMakeFiles/n7six.ApeX-k1.v7.6.5.dir/App/bitmaps.c.obj
                0x0801589d                BITMAP_Antenna
 .rodata.gFontVox
                0x080158a2        0xc CMakeFiles/n7six.ApeX-k1.v7.6.5.dir/App/bitmaps.c.obj
                0x080158a2                gFontVox
 .rodata.BITMAP_BatteryLevel1
                0x080158ae       0x11 CMakeFiles/n7six.ApeX-k1.v7.6.5.dir/App/bitmaps.c.obj
                0x080158ae                BITMAP_BatteryLevel1
 .rodata.BITMAP_BatteryLevel
                0x080158bf        0x2 CMakeFiles/n7six.ApeX-k1.v7.6.5.dir/App/bitmaps.c.obj
                0x080158bf                BITMAP_BatteryLevel
 .rodata.gFontHold
                0x080158c1        0xa CMakeFiles/n7six.ApeX-k1.v7.6.5.dir/App/bitmaps.c.obj
                0x080158c1                gFontHold
 .rodata.gFontRO
                0x080158cb        0xc CMakeFiles/n7six.ApeX-k1.v7.6.5.dir/App/bitmaps.c.obj
                0x080158cb                gFontRO
 .rodata.gFontDWR
                0x080158d7       0x12 CMakeFiles/n7six.ApeX-k1.v7.6.5.dir/App/bitmaps.c.obj
                0x080158d7                gFontDWR
 .rodata.gFontMO
                0x080158e9        0xc CMakeFiles/n7six.ApeX-k1.v7.6.5.dir/App/bitmaps.c.obj
                0x080158e9                gFontMO
 .rodata.gFontXB
                0x080158f5        0xc CMakeFiles/n7six.ApeX-k1.v7.6.5.dir/App/bitmaps.c.obj
                0x080158f5                gFontXB
 .rodata.gFontMute
                0x08015901        0xc CMakeFiles/n7six.ApeX-k1.v7.6.5.dir/App/bitmaps.c.obj
                0x08015901                gFontMute
 .rodata.gFontLight
                0x0801590d        0x9 CMakeFiles/n7six.ApeX-k1.v7.6.5.dir/App/bitmaps.c.obj
                0x0801590d                gFontLight
 .rodata.gFontKeyLock
                0x08015916        0x9 CMakeFiles/n7six.ApeX-k1.v7.6.5.dir/App/bitmaps.c.obj
                0x08015916                gFontKeyLock
 .rodata.gFontS
                0x0801591f        0x6 CMakeFiles/n7six.ApeX-k1.v7.6.5.dir/App/bitmaps.c.obj
                0x0801591f                gFontS
 .rodata.gFontF
                0x08015925        0x8 CMakeFiles/n7six.ApeX-k1.v7.6.5.dir/App/bitmaps.c.obj
                0x08015925                gFontF
 .rodata.gFontPttClassic
                0x0801592d        0xc CMakeFiles/n7six.ApeX-k1.v7.6.5.dir/App/bitmaps.c.obj
                0x0801592d                gFontPttClassic
 .rodata.gFontPttOnePush
                0x08015939        0xc CMakeFiles/n7six.ApeX-k1.v7.6.5.dir/App/bitmaps.c.obj
                0x08015939                gFontPttOnePush
 .rodata.gFontPowerSave
                0x08015945        0xc CMakeFiles/n7six.ApeX-k1.v7.6.5.dir/App/bitmaps.c.obj
                0x08015945                gFontPowerSave
 *fill*         0x08015951        0x1 
 .rodata.DCS_Options
                0x08015952       0xd0 CMakeFiles/n7six.ApeX-k1.v7.6.5.dir/App/dcs.c.obj
                0x08015952                DCS_Options
 .rodata.CTCSS_Options
                0x08015a22       0x64 CMakeFiles/n7six.ApeX-k1.v7.6.5.dir/App/dcs.c.obj
                0x08015a22                CTCSS_Options
 .rodata.gFont3x5
                0x08015a86      0x120 CMakeFiles/n7six.ApeX-k1.v7.6.5.dir/App/font.c.obj
                0x08015a86                gFont3x5
 .rodata.gFontSmallBold
                0x08015ba6      0x234 CMakeFiles/n7six.ApeX-k1.v7.6.5.dir/App/font.c.obj
                0x08015ba6                gFontSmallBold
 .rodata.gFontSmall
                0x08015dda      0x234 CMakeFiles/n7six.ApeX-k1.v7.6.5.dir/App/font.c.obj
                0x08015dda                gFontSmall
 .rodata.gFontBigDigits
                0x0801600e       0xdc CMakeFiles/n7six.ApeX-k1.v7.6.5.dir/App/font.c.obj
                0x0801600e                gFontBigDigits
 .rodata.gFontBig
                0x080160ea      0x524 CMakeFiles/n7six.ApeX-k1.v7.6.5.dir/App/font.c.obj
                0x080160ea                gFontBig
 .rodata.StepSortedIndexes
                0x0801660e       0x18 CMakeFiles/n7six.ApeX-k1.v7.6.5.dir/App/frequencies.c.obj
                0x0801660e                StepSortedIndexes
 .rodata.gStepFrequencyTable
                0x08016626       0x30 CMakeFiles/n7six.ApeX-k1.v7.6.5.dir/App/frequencies.c.obj
                0x08016626                gStepFrequencyTable
 *fill*         0x08016656        0x2 
 .rodata.frequencyBandTable
                0x08016658       0x38 CMakeFiles/n7six.ApeX-k1.v7.6.5.dir/App/frequencies.c.obj
                0x08016658                frequencyBandTable
 .rodata.BX4819_band2
                0x08016690        0x8 CMakeFiles/n7six.ApeX-k1.v7.6.5.dir/App/frequencies.c.obj
                0x08016690                BX4819_band2
 .rodata.BX4819_band1
                0x08016698        0x8 CMakeFiles/n7six.ApeX-k1.v7.6.5.dir/App/frequencies.c.obj
                0x08016698                BX4819_band1
 .rodata.BATTERY_GetReadings.str1.1
                0x080166a0        0x6 CMakeFiles/n7six.ApeX-k1.v7.6.5.dir/App/helper/battery.c.obj
 .rodata.Voltage2PercentageTable
                0x080166a0       0x8c CMakeFiles/n7six.ApeX-k1.v7.6.5.dir/App/helper/battery.c.obj
                0x080166a0                Voltage2PercentageTable
 .rodata.gMicGain_dB2
                0x0801672c        0x5 CMakeFiles/n7six.ApeX-k1.v7.6.5.dir/App/misc.c.obj
                0x0801672c                gMicGain_dB2
 *fill*         0x08016731        0x1 
 .rodata.vox_stop_count_down_10ms
                0x08016732        0x2 CMakeFiles/n7six.ApeX-k1.v7.6.5.dir/App/misc.c.obj
                0x08016732                vox_stop_count_down_10ms
 .rodata.power_save2_10ms
                0x08016734        0x2 CMakeFiles/n7six.ApeX-k1.v7.6.5.dir/App/misc.c.obj
                0x08016734                power_save2_10ms
 .rodata.power_save1_10ms
                0x08016736        0x2 CMakeFiles/n7six.ApeX-k1.v7.6.5.dir/App/misc.c.obj
                0x08016736                power_save1_10ms
 .rodata.battery_save_count_10ms
                0x08016738        0x2 CMakeFiles/n7six.ApeX-k1.v7.6.5.dir/App/misc.c.obj
                0x08016738                battery_save_count_10ms
 .rodata.scan_pause_delay_in_5_10ms
                0x0801673a        0x2 CMakeFiles/n7six.ApeX-k1.v7.6.5.dir/App/misc.c.obj
                0x0801673a                scan_pause_delay_in_5_10ms
 .rodata.scan_pause_delay_in_3_10ms
                0x0801673c        0x2 CMakeFiles/n7six.ApeX-k1.v7.6.5.dir/App/misc.c.obj
                0x0801673c                scan_pause_delay_in_3_10ms
 .rodata.scan_pause_delay_in_2_10ms
                0x0801673e        0x2 CMakeFiles/n7six.ApeX-k1.v7.6.5.dir/App/misc.c.obj
                0x0801673e                scan_pause_delay_in_2_10ms
 .rodata.scan_pause_delay_in_1_10ms
                0x08016740        0x2 CMakeFiles/n7six.ApeX-k1.v7.6.5.dir/App/misc.c.obj
                0x08016740                scan_pause_delay_in_1_10ms
 .rodata.dual_watch_count_toggle_10ms
                0x08016742        0x2 CMakeFiles/n7six.ApeX-k1.v7.6.5.dir/App/misc.c.obj
                0x08016742                dual_watch_count_toggle_10ms
 .rodata.dual_watch_count_after_vox_10ms
                0x08016744        0x2 CMakeFiles/n7six.ApeX-k1.v7.6.5.dir/App/misc.c.obj
                0x08016744                dual_watch_count_after_vox_10ms
 .rodata.dual_watch_count_after_2_10ms
                0x08016746        0x2 CMakeFiles/n7six.ApeX-k1.v7.6.5.dir/App/misc.c.obj
                0x08016746                dual_watch_count_after_2_10ms
 .rodata.dual_watch_count_after_rx_10ms
                0x08016748        0x2 CMakeFiles/n7six.ApeX-k1.v7.6.5.dir/App/misc.c.obj
                0x08016748                dual_watch_count_after_rx_10ms
 .rodata.dual_watch_count_after_tx_10ms
                0x0801674a        0x2 CMakeFiles/n7six.ApeX-k1.v7.6.5.dir/App/misc.c.obj
                0x0801674a                dual_watch_count_after_tx_10ms
 .rodata.scan_delay_10ms
                0x0801674c        0x1 CMakeFiles/n7six.ApeX-k1.v7.6.5.dir/App/misc.c.obj
                0x0801674c                scan_delay_10ms
 *fill*         0x0801674d        0x1 
 .rodata.key_debounce_10ms
                0x0801674e        0x2 CMakeFiles/n7six.ApeX-k1.v7.6.5.dir/App/misc.c.obj
                0x0801674e                key_debounce_10ms
 .rodata.key_repeat_10ms
                0x08016750        0x2 CMakeFiles/n7six.ApeX-k1.v7.6.5.dir/App/misc.c.obj
                0x08016750                key_repeat_10ms
 .rodata.key_repeat_delay_10ms
                0x08016752        0x2 CMakeFiles/n7six.ApeX-k1.v7.6.5.dir/App/misc.c.obj
                0x08016752                key_repeat_delay_10ms
 .rodata.key_input_timeout_500ms
                0x08016754        0x1 CMakeFiles/n7six.ApeX-k1.v7.6.5.dir/App/misc.c.obj
                0x08016754                key_input_timeout_500ms
 .rodata.DTMF_RX_live_timeout_500ms
                0x08016755        0x1 CMakeFiles/n7six.ApeX-k1.v7.6.5.dir/App/misc.c.obj
                0x08016755                DTMF_RX_live_timeout_500ms
 .rodata.menu_timeout_long_500ms
                0x08016756        0x2 CMakeFiles/n7six.ApeX-k1.v7.6.5.dir/App/misc.c.obj
                0x08016756                menu_timeout_long_500ms
 .rodata.menu_timeout_500ms
                0x08016758        0x1 CMakeFiles/n7six.ApeX-k1.v7.6.5.dir/App/misc.c.obj
                0x08016758                menu_timeout_500ms
 .rodata.vfo_state_resume_countdown_500ms
                0x08016759        0x1 CMakeFiles/n7six.ApeX-k1.v7.6.5.dir/App/misc.c.obj
                0x08016759                vfo_state_resume_countdown_500ms
 .rodata.fm_restore_countdown_10ms
                0x0801675a        0x2 CMakeFiles/n7six.ApeX-k1.v7.6.5.dir/App/misc.c.obj
                0x0801675a                fm_restore_countdown_10ms
 .rodata.fm_play_countdown_noscan_10ms
                0x0801675c        0x2 CMakeFiles/n7six.ApeX-k1.v7.6.5.dir/App/misc.c.obj
                0x0801675c                fm_play_countdown_noscan_10ms
 .rodata.fm_play_countdown_scan_10ms
                0x0801675e        0x2 CMakeFiles/n7six.ApeX-k1.v7.6.5.dir/App/misc.c.obj
                0x0801675e                fm_play_countdown_scan_10ms
 .rodata.fm_radio_countdown_500ms
                0x08016760        0x1 CMakeFiles/n7six.ApeX-k1.v7.6.5.dir/App/misc.c.obj
                0x08016760                fm_radio_countdown_500ms
 .rodata.dividers.1
                0x08016761        0x6 CMakeFiles/n7six.ApeX-k1.v7.6.5.dir/App/radio.c.obj
 .rodata.gModulationStr
                0x08016767        0xc CMakeFiles/n7six.ApeX-k1.v7.6.5.dir/App/radio.c.obj
                0x08016767                gModulationStr
 .rodata.str1.1
                0x08016773       0x18 CMakeFiles/n7six.ApeX-k1.v7.6.5.dir/App/radio.c.obj
 *fill*         0x08016773        0x1 
 .rodata.afDacGainRegSpec
                0x08016774        0xc CMakeFiles/n7six.ApeX-k1.v7.6.5.dir/App/radio.c.obj
 .rodata.afcDisableRegSpec
                0x08016780        0xc CMakeFiles/n7six.ApeX-k1.v7.6.5.dir/App/radio.c.obj
 .rodata.SETTINGS_InitEEPROM.str1.1
                0x0801678c        0xc CMakeFiles/n7six.ApeX-k1.v7.6.5.dir/App/settings.c.obj
 .rodata.SETTINGS_UpdateChannel.str1.1
                0x0801678c        0x1 CMakeFiles/n7six.ApeX-k1.v7.6.5.dir/App/settings.c.obj
 .rodata.UI_GenerateChannelString.str1.1
                0x0801678c        0x8 CMakeFiles/n7six.ApeX-k1.v7.6.5.dir/App/ui/helper.c.obj
 .rodata.UI_GenerateChannelStringEx.str1.1
                0x0801678c       0x12 CMakeFiles/n7six.ApeX-k1.v7.6.5.dir/App/ui/helper.c.obj
 .rodata.UI_DisplayPopup.str1.1
                0x0801678c        0xb CMakeFiles/n7six.ApeX-k1.v7.6.5.dir/App/ui/helper.c.obj
 .rodata.DisplayRSSIBar.str1.1
                0x0801678c       0x1d CMakeFiles/n7six.ApeX-k1.v7.6.5.dir/App/ui/main.c.obj
 .rodata.UI_DisplayMain.str1.1
                0x0801678c       0xa4 CMakeFiles/n7six.ApeX-k1.v7.6.5.dir/App/ui/main.c.obj
 .rodata.str1.1
                0x0801678c       0x4b CMakeFiles/n7six.ApeX-k1.v7.6.5.dir/App/ui/main.c.obj
 .rodata.dBmCorrTable
                0x0801678c        0x7 CMakeFiles/n7six.ApeX-k1.v7.6.5.dir/App/ui/main.c.obj
                0x0801678c                dBmCorrTable
 .rodata.UI_DisplayMenu.str1.1
                0x08016793      0x175 CMakeFiles/n7six.ApeX-k1.v7.6.5.dir/App/ui/menu.c.obj
 .rodata.gSubMenu_SIDEFUNCTIONS_size
                0x08016793        0x1 CMakeFiles/n7six.ApeX-k1.v7.6.5.dir/App/ui/menu.c.obj
                0x08016793                gSubMenu_SIDEFUNCTIONS_size
 .rodata.str1.1
                0x08016794      0x1e7 CMakeFiles/n7six.ApeX-k1.v7.6.5.dir/App/ui/menu.c.obj
 .rodata.gSubMenu_SIDEFUNCTIONS
                0x08016794       0x98 CMakeFiles/n7six.ApeX-k1.v7.6.5.dir/App/ui/menu.c.obj
                0x08016794                gSubMenu_SIDEFUNCTIONS
 .rodata.gSubMenu_SET_KEY
                0x0801682c       0x2d CMakeFiles/n7six.ApeX-k1.v7.6.5.dir/App/ui/menu.c.obj
                0x0801682c                gSubMenu_SET_KEY
 .rodata.gSubMenu_SET_NFM
                0x08016859       0x12 CMakeFiles/n7six.ApeX-k1.v7.6.5.dir/App/ui/menu.c.obj
                0x08016859                gSubMenu_SET_NFM
 .rodata.gSubMenu_SET_MET
                0x0801686b       0x10 CMakeFiles/n7six.ApeX-k1.v7.6.5.dir/App/ui/menu.c.obj
                0x0801686b                gSubMenu_SET_MET
 .rodata.gSubMenu_SET_LCK
                0x0801687b       0x12 CMakeFiles/n7six.ApeX-k1.v7.6.5.dir/App/ui/menu.c.obj
                0x0801687b                gSubMenu_SET_LCK
 .rodata.gSubMenu_SET_TOT
                0x0801688d       0x1c CMakeFiles/n7six.ApeX-k1.v7.6.5.dir/App/ui/menu.c.obj
                0x0801688d                gSubMenu_SET_TOT
 .rodata.gSubMenu_SET_PTT
                0x080168a9       0x10 CMakeFiles/n7six.ApeX-k1.v7.6.5.dir/App/ui/menu.c.obj
                0x080168a9                gSubMenu_SET_PTT
 .rodata.gSubMenu_SET_PWR
                0x080168b9       0x2a CMakeFiles/n7six.ApeX-k1.v7.6.5.dir/App/ui/menu.c.obj
                0x080168b9                gSubMenu_SET_PWR
 .rodata.gSubMenu_BATTYP
                0x080168e3       0x3c CMakeFiles/n7six.ApeX-k1.v7.6.5.dir/App/ui/menu.c.obj
                0x080168e3                gSubMenu_BATTYP
 .rodata.gSubMenu_BAT_TXT
                0x0801691f       0x18 CMakeFiles/n7six.ApeX-k1.v7.6.5.dir/App/ui/menu.c.obj
                0x0801691f                gSubMenu_BAT_TXT
 .rodata.gSubMenu_RX_TX
                0x08016937       0x18 CMakeFiles/n7six.ApeX-k1.v7.6.5.dir/App/ui/menu.c.obj
                0x08016937                gSubMenu_RX_TX
 *fill*         0x0801694f        0x1 
 .rodata.gSubMenu_F_LOCK
                0x08016950       0x2c CMakeFiles/n7six.ApeX-k1.v7.6.5.dir/App/ui/menu.c.obj
                0x08016950                gSubMenu_F_LOCK
 .rodata.gSubMenu_RESET
                0x0801697c        0x8 CMakeFiles/n7six.ApeX-k1.v7.6.5.dir/App/ui/menu.c.obj
                0x0801697c                gSubMenu_RESET
 .rodata.gSubMenu_ROGER
                0x08016984       0x12 CMakeFiles/n7six.ApeX-k1.v7.6.5.dir/App/ui/menu.c.obj
                0x08016984                gSubMenu_ROGER
 .rodata.gSubMenu_PONMSG
                0x08016996       0x28 CMakeFiles/n7six.ApeX-k1.v7.6.5.dir/App/ui/menu.c.obj
                0x08016996                gSubMenu_PONMSG
 *fill*         0x080169be        0x2 
 .rodata.gSubMenu_PTT_ID
                0x080169c0       0x14 CMakeFiles/n7six.ApeX-k1.v7.6.5.dir/App/ui/menu.c.obj
                0x080169c0                gSubMenu_PTT_ID
 .rodata.gSubMenu_MDF
                0x080169d4       0x10 CMakeFiles/n7six.ApeX-k1.v7.6.5.dir/App/ui/menu.c.obj
                0x080169d4                gSubMenu_MDF
 .rodata.gSubMenu_RXMode
                0x080169e4       0x10 CMakeFiles/n7six.ApeX-k1.v7.6.5.dir/App/ui/menu.c.obj
                0x080169e4                gSubMenu_RXMode
 .rodata.gSubMenu_OFF_ON
                0x080169f4        0x8 CMakeFiles/n7six.ApeX-k1.v7.6.5.dir/App/ui/menu.c.obj
                0x080169f4                gSubMenu_OFF_ON
 .rodata.gSubMenu_W_N
                0x080169fc        0xe CMakeFiles/n7six.ApeX-k1.v7.6.5.dir/App/ui/menu.c.obj
                0x080169fc                gSubMenu_W_N
 .rodata.gSubMenu_SFT_D
                0x08016a0a        0xc CMakeFiles/n7six.ApeX-k1.v7.6.5.dir/App/ui/menu.c.obj
                0x08016a0a                gSubMenu_SFT_D
 .rodata.gSubMenu_TXP
                0x08016a16       0x30 CMakeFiles/n7six.ApeX-k1.v7.6.5.dir/App/ui/menu.c.obj
                0x08016a16                gSubMenu_TXP
 .rodata.FIRST_HIDDEN_MENU_ITEM
                0x08016a46        0x1 CMakeFiles/n7six.ApeX-k1.v7.6.5.dir/App/ui/menu.c.obj
                0x08016a46                FIRST_HIDDEN_MENU_ITEM
 .rodata.MenuList
                0x08016a47      0x258 CMakeFiles/n7six.ApeX-k1.v7.6.5.dir/App/ui/menu.c.obj
                0x08016a47                MenuList
 .rodata.UI_DisplayScanner.str1.1
                0x08016c9f       0x63 CMakeFiles/n7six.ApeX-k1.v7.6.5.dir/App/ui/scanner.c.obj
 .rodata.convertTime.constprop.0.str1.1
                0x08016c9f        0xa CMakeFiles/n7six.ApeX-k1.v7.6.5.dir/App/ui/status.c.obj
 .rodata.UI_DisplayStatus.str1.1
                0x08016c9f       0x10 CMakeFiles/n7six.ApeX-k1.v7.6.5.dir/App/ui/status.c.obj
 *fill*         0x08016c9f        0x1 
 .rodata.UI_DisplayStatus.cst2
                0x08016ca0        0x2 CMakeFiles/n7six.ApeX-k1.v7.6.5.dir/App/ui/status.c.obj
 .rodata.UI_DisplayReleaseKeys.str1.1
                0x08016ca2       0x11 CMakeFiles/n7six.ApeX-k1.v7.6.5.dir/App/ui/welcome.c.obj
 .rodata.UI_DisplayWelcome.str1.1
                0x08016ca2       0x35 CMakeFiles/n7six.ApeX-k1.v7.6.5.dir/App/ui/welcome.c.obj
 .rodata.UART_Version
                0x08016ca2       0x27 CMakeFiles/n7six.ApeX-k1.v7.6.5.dir/App/version.c.obj
                0x08016ca2                UART_Version
 .rodata.Edition
                0x08016cc9        0x5 CMakeFiles/n7six.ApeX-k1.v7.6.5.dir/App/version.c.obj
                0x08016cc9                Edition
 .rodata.Version
                0x08016cce        0xd CMakeFiles/n7six.ApeX-k1.v7.6.5.dir/App/version.c.obj
                0x08016cce                Version
 *fill*         0x08016cdb        0x1 
 .rodata.ADDR_MAPPINGS
                0x08016cdc       0xb8 CMakeFiles/n7six.ApeX-k1.v7.6.5.dir/App/driver/eeprom_compat.c.obj
 .rodata.Obfuscation
                0x08016d94       0x10 CMakeFiles/n7six.ApeX-k1.v7.6.5.dir/App/app/uart.c.obj
 .rodata.cdc_descriptor
                0x08016da4       0x9e CMakeFiles/n7six.ApeX-k1.v7.6.5.dir/App/usb/usbd_cdc_if.c.obj
 .rodata.lim.0  0x08016e42        0x8 CMakeFiles/n7six.ApeX-k1.v7.6.5.dir/App/driver/bk1080.c.obj
 .rodata.lim.1  0x08016e4a        0x8 CMakeFiles/n7six.ApeX-k1.v7.6.5.dir/App/driver/bk1080.c.obj
 .rodata.BK1080_RegisterTable
                0x08016e52       0x44 CMakeFiles/n7six.ApeX-k1.v7.6.5.dir/App/driver/bk1080.c.obj
 .rodata.UI_DisplayFM.str1.1
                0x08016e96       0x61 CMakeFiles/n7six.ApeX-k1.v7.6.5.dir/App/ui/fmradio.c.obj
 .rodata.Obfuscation
                0x08016e96       0x10 CMakeFiles/n7six.ApeX-k1.v7.6.5.dir/App/app/aircopy.c.obj
 .rodata.UI_DisplayAircopy.str1.1
                0x08016ea6       0x5d CMakeFiles/n7six.ApeX-k1.v7.6.5.dir/App/ui/aircopy.c.obj
 .rodata.DrawF.str1.1
                0x08016ea6       0x11 CMakeFiles/n7six.ApeX-k1.v7.6.5.dir/App/app/spectrum.c.obj
 .rodata.RenderSpectrum.str1.1
                0x08016ea6       0x29 CMakeFiles/n7six.ApeX-k1.v7.6.5.dir/App/app/spectrum.c.obj
 .rodata.APP_RunSpectrum.str1.1
                0x08016ea6       0x24 CMakeFiles/n7six.ApeX-k1.v7.6.5.dir/App/app/spectrum.c.obj
 .rodata.bayerMatrix.0
                0x08016ea6       0x10 CMakeFiles/n7six.ApeX-k1.v7.6.5.dir/App/app/spectrum.c.obj
 .rodata.registers_to_save
                0x08016eb6        0x7 CMakeFiles/n7six.ApeX-k1.v7.6.5.dir/App/app/spectrum.c.obj
 .rodata.str1.1
                0x08016ebd       0x41 CMakeFiles/n7six.ApeX-k1.v7.6.5.dir/App/app/spectrum.c.obj
 .rodata.VGAOptions
                0x08016ebd        0x8 CMakeFiles/n7six.ApeX-k1.v7.6.5.dir/App/app/spectrum.c.obj
                0x08016ebd                VGAOptions
 .rodata.LNAOptions
                0x08016ec5        0x8 CMakeFiles/n7six.ApeX-k1.v7.6.5.dir/App/app/spectrum.c.obj
                0x08016ec5                LNAOptions
 .rodata.LNAsOptions
                0x08016ecd        0x4 CMakeFiles/n7six.ApeX-k1.v7.6.5.dir/App/app/spectrum.c.obj
                0x08016ecd                LNAsOptions
 .rodata.modulationTypeTuneSteps
                0x08016ed1        0x3 CMakeFiles/n7six.ApeX-k1.v7.6.5.dir/App/app/spectrum.c.obj
                0x08016ed1                modulationTypeTuneSteps
 .rodata.calTable
                0x08016ed4       0x30 CMakeFiles/n7six.ApeX-k1.v7.6.5.dir/App/app/spectrum.c.obj
 .rodata.listenBWRegValues
                0x08016f04        0x6 CMakeFiles/n7six.ApeX-k1.v7.6.5.dir/App/app/spectrum.c.obj
 .rodata.scanStepBWRegValues
                0x08016f0a       0x18 CMakeFiles/n7six.ApeX-k1.v7.6.5.dir/App/app/spectrum.c.obj
 .rodata.scanStepValues
                0x08016f22       0x1e CMakeFiles/n7six.ApeX-k1.v7.6.5.dir/App/app/spectrum.c.obj
 .rodata.U8RssiMap
                0x08016f40        0xa CMakeFiles/n7six.ApeX-k1.v7.6.5.dir/App/app/spectrum.c.obj
 .rodata.HandleUserInput.isra.0.str1.1
                0x08016f4a        0x6 CMakeFiles/n7six.ApeX-k1.v7.6.5.dir/App/app/breakout.c.obj
 .rodata.drawScore.str1.1
                0x08016f4a       0x20 CMakeFiles/n7six.ApeX-k1.v7.6.5.dir/App/app/breakout.c.obj
 .rodata.drawWall.str1.1
                0x08016f4a       0x10 CMakeFiles/n7six.ApeX-k1.v7.6.5.dir/App/app/breakout.c.obj
 .rodata.drawBall.str1.1
                0x08016f4a        0xa CMakeFiles/n7six.ApeX-k1.v7.6.5.dir/App/app/breakout.c.obj
 .rodata.BITMAP_block
                0x08016f4a       0x3c CMakeFiles/n7six.ApeX-k1.v7.6.5.dir/App/app/breakout.c.obj
                0x08016f4a                BITMAP_block
                0x08016f88                        . = ALIGN (0x4)
 *fill*         0x08016f86        0x2 

.rel.dyn        0x08016f88        0x0
 .rel.iplt      0x08016f88        0x0 /opt/toolchain/bin/../lib/gcc/arm-none-eabi/13.3.1/thumb/v6-m/nofp/crtbegin.o

.ARM.extab
 *(.ARM.extab* .gnu.linkonce.armextab.*)

.ARM            0x08016f88        0x0
                0x08016f88                        __exidx_start = .
 *(.ARM.exidx*)
                0x08016f88                        __exidx_end = .

.preinit_array  0x08016f88        0x0
                0x08016f88                        PROVIDE (__preinit_array_start = .)
 *(.preinit_array*)
                0x08016f88                        PROVIDE (__preinit_array_end = .)

.init_array     0x08016f88        0x4
                0x08016f88                        PROVIDE (__init_array_start = .)
 *(SORT_BY_NAME(.init_array.*))
 *(.init_array*)
 .init_array    0x08016f88        0x4 /opt/toolchain/bin/../lib/gcc/arm-none-eabi/13.3.1/thumb/v6-m/nofp/crtbegin.o
                0x08016f8c                        PROVIDE (__init_array_end = .)

.fini_array     0x08016f8c        0x4
                [!provide]                        PROVIDE (__fini_array_start = .)
 *(SORT_BY_NAME(.fini_array.*))
 *(.fini_array*)
 .fini_array    0x08016f8c        0x4 /opt/toolchain/bin/../lib/gcc/arm-none-eabi/13.3.1/thumb/v6-m/nofp/crtbegin.o
                [!provide]                        PROVIDE (__fini_array_end = .)
                0x08016f90                        _sidata = LOADADDR (.data)

.data           0x20000000      0x174 load address 0x08016f90
                0x20000000                        . = ALIGN (0x4)
                0x20000000                        _sdata = .
 *(.data)
 *(.data*)
 .data.SystemCoreClock
                0x20000000        0x4 CMakeFiles/n7six.ApeX-k1.v7.6.5.dir/Core/Src/system_py32f071.c.obj
                0x20000000                SystemCoreClock
 .data.SectorCacheAddr
                0x20000004        0x4 CMakeFiles/n7six.ApeX-k1.v7.6.5.dir/App/driver/py25q16.c.obj
 .data.gKeyReading1
                0x20000008        0x1 CMakeFiles/n7six.ApeX-k1.v7.6.5.dir/App/driver/keyboard.c.obj
                0x20000008                gKeyReading1
 .data.gKeyReading0
                0x20000009        0x1 CMakeFiles/n7six.ApeX-k1.v7.6.5.dir/App/driver/keyboard.c.obj
                0x20000009                gKeyReading0
 .data.cmds     0x2000000a        0xb CMakeFiles/n7six.ApeX-k1.v7.6.5.dir/App/driver/st7565.c.obj
                0x2000000a                cmds
 *fill*         0x20000015        0x3 
 .data.action_opt_table
                0x20000018       0x58 CMakeFiles/n7six.ApeX-k1.v7.6.5.dir/App/app/action.c.obj
                0x20000018                action_opt_table
 .data.ProcessKeysFunctions
                0x20000070       0x14 CMakeFiles/n7six.ApeX-k1.v7.6.5.dir/App/app/app.c.obj
                0x20000070                ProcessKeysFunctions
 .data.gK5startup
                0x20000084        0x1 CMakeFiles/n7six.ApeX-k1.v7.6.5.dir/App/misc.c.obj
                0x20000084                gK5startup
 .data.gIsLocked
                0x20000085        0x1 CMakeFiles/n7six.ApeX-k1.v7.6.5.dir/App/misc.c.obj
                0x20000085                gIsLocked
 .data.gScheduleScanListen
                0x20000086        0x1 CMakeFiles/n7six.ApeX-k1.v7.6.5.dir/App/misc.c.obj
                0x20000086                gScheduleScanListen
 *fill*         0x20000087        0x1 
 .data.gTxTimeoutToneAlert
                0x20000088        0x2 CMakeFiles/n7six.ApeX-k1.v7.6.5.dir/App/misc.c.obj
                0x20000088                gTxTimeoutToneAlert
 .data.gScheduleDualWatch
                0x2000008a        0x1 CMakeFiles/n7six.ApeX-k1.v7.6.5.dir/App/misc.c.obj
                0x2000008a                gScheduleDualWatch
 *fill*         0x2000008b        0x1 
 .data.gBatterySaveCountdown_10ms
                0x2000008c        0x2 CMakeFiles/n7six.ApeX-k1.v7.6.5.dir/App/misc.c.obj
                0x2000008c                gBatterySaveCountdown_10ms
 .data.gSetting_set_ctr
                0x2000008e        0x1 CMakeFiles/n7six.ApeX-k1.v7.6.5.dir/App/misc.c.obj
                0x2000008e                gSetting_set_ctr
 .data.gSetting_set_pwr
                0x2000008f        0x1 CMakeFiles/n7six.ApeX-k1.v7.6.5.dir/App/misc.c.obj
                0x2000008f                gSetting_set_pwr
 .data.gSetting_set_off
                0x20000090        0x1 CMakeFiles/n7six.ApeX-k1.v7.6.5.dir/App/misc.c.obj
                0x20000090                gSetting_set_off
 *fill*         0x20000091        0x3 
 .data.VfoStateStr
                0x20000094       0x1c CMakeFiles/n7six.ApeX-k1.v7.6.5.dir/App/ui/main.c.obj
                0x20000094                VfoStateStr
 .data.UI_DisplayFunctions
                0x200000b0       0x14 CMakeFiles/n7six.ApeX-k1.v7.6.5.dir/App/ui/ui.c.obj
                0x200000b0                UI_DisplayFunctions
 .data.gRequestDisplayScreen
                0x200000c4        0x1 CMakeFiles/n7six.ApeX-k1.v7.6.5.dir/App/ui/ui.c.obj
                0x200000c4                gRequestDisplayScreen
 *fill*         0x200000c5        0x3 
 .data.cdc_in_ep
                0x200000c8        0x8 CMakeFiles/n7six.ApeX-k1.v7.6.5.dir/App/usb/usbd_cdc_if.c.obj
                0x200000c8                cdc_in_ep
 .data.cdc_out_ep
                0x200000d0        0x8 CMakeFiles/n7six.ApeX-k1.v7.6.5.dir/App/usb/usbd_cdc_if.c.obj
                0x200000d0                cdc_out_ep
 .data.gAircopySendCountdown.0
                0x200000d8        0x1 CMakeFiles/n7six.ApeX-k1.v7.6.5.dir/App/app/aircopy.c.obj
 *fill*         0x200000d9        0x1 
 .data.lfsr.4   0x200000da        0x2 CMakeFiles/n7six.ApeX-k1.v7.6.5.dir/App/app/spectrum.c.obj
 .data.BPFOptions
                0x200000dc       0x1c CMakeFiles/n7six.ApeX-k1.v7.6.5.dir/App/app/spectrum.c.obj
                0x200000dc                BPFOptions
 .data.settings
                0x200000f8       0x1c CMakeFiles/n7six.ApeX-k1.v7.6.5.dir/App/app/spectrum.c.obj
                0x200000f8                settings
 .data.registerSpecs
                0x20000114       0x3c CMakeFiles/n7six.ApeX-k1.v7.6.5.dir/App/app/spectrum.c.obj
                0x20000114                registerSpecs
 .data.bwOptions
                0x20000150        0xc CMakeFiles/n7six.ApeX-k1.v7.6.5.dir/App/app/spectrum.c.obj
                0x20000150                bwOptions
 .data.kbd      0x2000015c        0x3 CMakeFiles/n7six.ApeX-k1.v7.6.5.dir/App/app/spectrum.c.obj
 .data.audioState
                0x2000015f        0x1 CMakeFiles/n7six.ApeX-k1.v7.6.5.dir/App/app/spectrum.c.obj
                0x2000015f                audioState
 .data.preventKeypress
                0x20000160        0x1 CMakeFiles/n7six.ApeX-k1.v7.6.5.dir/App/app/spectrum.c.obj
                0x20000160                preventKeypress
 .data.newScanStart
                0x20000161        0x1 CMakeFiles/n7six.ApeX-k1.v7.6.5.dir/App/app/spectrum.c.obj
                0x20000161                newScanStart
 .data.redrawStatus
                0x20000162        0x1 CMakeFiles/n7six.ApeX-k1.v7.6.5.dir/App/app/spectrum.c.obj
                0x20000162                redrawStatus
 .data.isListening
                0x20000163        0x1 CMakeFiles/n7six.ApeX-k1.v7.6.5.dir/App/app/spectrum.c.obj
                0x20000163                isListening
 .data.kbd      0x20000164        0x3 CMakeFiles/n7six.ApeX-k1.v7.6.5.dir/App/app/breakout.c.obj
 *fill*         0x20000167        0x1 
 .data.ballCount
                0x20000168        0x2 CMakeFiles/n7six.ApeX-k1.v7.6.5.dir/App/app/breakout.c.obj
                0x20000168                ballCount
 .data.levelCountBreackout
                0x2000016a        0x1 CMakeFiles/n7six.ApeX-k1.v7.6.5.dir/App/app/breakout.c.obj
                0x2000016a                levelCountBreackout
 *fill*         0x2000016b        0x1 
 .data.randSeed
                0x2000016c        0x4 CMakeFiles/n7six.ApeX-k1.v7.6.5.dir/App/app/breakout.c.obj
 .data.keepAlive
                0x20000170        0x1 CMakeFiles/n7six.ApeX-k1.v7.6.5.dir/App/screenshot.c.obj
                0x20000174                        . = ALIGN (0x4)
 *fill*         0x20000171        0x3 
                0x20000174                        _edata = .

.tm_clone_table
                0x20000174        0x0 load address 0x08017104
 .tm_clone_table
                0x20000174        0x0 /opt/toolchain/bin/../lib/gcc/arm-none-eabi/13.3.1/thumb/v6-m/nofp/crtbegin.o
 .tm_clone_table
                0x20000174        0x0 /opt/toolchain/bin/../lib/gcc/arm-none-eabi/13.3.1/thumb/v6-m/nofp/crtend.o

.igot.plt       0x20000174        0x0 load address 0x08017104
 .igot.plt      0x20000174        0x0 /opt/toolchain/bin/../lib/gcc/arm-none-eabi/13.3.1/thumb/v6-m/nofp/crtbegin.o

.noncacheable   0x20000174      0x160 load address 0x08017104
 .noncacheable  0x20000174      0x160 CMakeFiles/n7six.ApeX-k1.v7.6.5.dir/Middlewares/CherryUSB/core/usbd_core.c.obj
                0x20000174                usbd_core_cfg
                0x200002d4                        . = ALIGN (0x4)

.bss            0x200002e0     0x3380 load address 0x08017264
                0x200002e0                        _sbss = .
                0x200002e0                        __bss_start__ = _sbss
 *(.bss)
 *(.bss*)
 .bss.completed.1
                0x200002e0        0x1 /opt/toolchain/bin/../lib/gcc/arm-none-eabi/13.3.1/thumb/v6-m/nofp/crtbegin.o
 *fill*         0x200002e1        0x3 
 .bss.object.0  0x200002e4       0x18 /opt/toolchain/bin/../lib/gcc/arm-none-eabi/13.3.1/thumb/v6-m/nofp/crtbegin.o
 .bss.currentBrightness
                0x200002fc        0x1 CMakeFiles/n7six.ApeX-k1.v7.6.5.dir/App/driver/backlight.c.obj
 *fill*         0x200002fd        0x1 
 .bss.gSleepModeCountdown_500ms
                0x200002fe        0x2 CMakeFiles/n7six.ApeX-k1.v7.6.5.dir/App/driver/backlight.c.obj
                0x200002fe                gSleepModeCountdown_500ms
 .bss.backlightOn
                0x20000300        0x1 CMakeFiles/n7six.ApeX-k1.v7.6.5.dir/App/driver/backlight.c.obj
                0x20000300                backlightOn
 *fill*         0x20000301        0x1 
 .bss.gBacklightCountdown_500ms
                0x20000302        0x2 CMakeFiles/n7six.ApeX-k1.v7.6.5.dir/App/driver/backlight.c.obj
                0x20000302                gBacklightCountdown_500ms
 .bss.dutyCycle
                0x20000304      0x100 CMakeFiles/n7six.ApeX-k1.v7.6.5.dir/App/driver/backlight.c.obj
 .bss.gRxIdleMode
                0x20000404        0x1 CMakeFiles/n7six.ApeX-k1.v7.6.5.dir/App/driver/bk4829.c.obj
                0x20000404                gRxIdleMode
 *fill*         0x20000405        0x1 
 .bss.gBK4819_GpioOutState
                0x20000406        0x2 CMakeFiles/n7six.ApeX-k1.v7.6.5.dir/App/driver/bk4829.c.obj
 .bss.TC_Flag   0x20000408        0x1 CMakeFiles/n7six.ApeX-k1.v7.6.5.dir/App/driver/py25q16.c.obj
 .bss.BlackHole
                0x20000409        0x1 CMakeFiles/n7six.ApeX-k1.v7.6.5.dir/App/driver/py25q16.c.obj
 .bss.SectorCache
                0x2000040a     0x1000 CMakeFiles/n7six.ApeX-k1.v7.6.5.dir/App/driver/py25q16.c.obj
 .bss.gWasFKeyPressed
                0x2000140a        0x1 CMakeFiles/n7six.ApeX-k1.v7.6.5.dir/App/driver/keyboard.c.obj
                0x2000140a                gWasFKeyPressed
 *fill*         0x2000140b        0x1 
 .bss.gDebounceCounter
                0x2000140c        0x2 CMakeFiles/n7six.ApeX-k1.v7.6.5.dir/App/driver/keyboard.c.obj
                0x2000140c                gDebounceCounter
 .bss.gFrameBuffer
                0x2000140e      0x380 CMakeFiles/n7six.ApeX-k1.v7.6.5.dir/App/driver/st7565.c.obj
                0x2000140e                gFrameBuffer
 .bss.gStatusLine
                0x2000178e       0x80 CMakeFiles/n7six.ApeX-k1.v7.6.5.dir/App/driver/st7565.c.obj
                0x2000178e                gStatusLine
 *fill*         0x2000180e        0x2 
 .bss.gTickMultiplier
                0x20001810        0x4 CMakeFiles/n7six.ApeX-k1.v7.6.5.dir/App/driver/systick.c.obj
 .bss.cb.0      0x20001814        0x1 CMakeFiles/n7six.ApeX-k1.v7.6.5.dir/App/app/action.c.obj
 .bss.dw.1      0x20001815        0x1 CMakeFiles/n7six.ApeX-k1.v7.6.5.dir/App/app/action.c.obj
 .bss.cycle.2   0x20001816        0x1 CMakeFiles/n7six.ApeX-k1.v7.6.5.dir/App/app/action.c.obj
 .bss.cycle.3   0x20001817        0x1 CMakeFiles/n7six.ApeX-k1.v7.6.5.dir/App/app/action.c.obj
 .bss.counter.0
                0x20001818        0x1 CMakeFiles/n7six.ApeX-k1.v7.6.5.dir/App/app/app.c.obj
 .bss.goToSleep.1
                0x20001819        0x1 CMakeFiles/n7six.ApeX-k1.v7.6.5.dir/App/app/app.c.obj
 .bss.flagSaveChannel
                0x2000181a        0x1 CMakeFiles/n7six.ApeX-k1.v7.6.5.dir/App/app/app.c.obj
 .bss.flagSaveSettings
                0x2000181b        0x1 CMakeFiles/n7six.ApeX-k1.v7.6.5.dir/App/app/app.c.obj
 .bss.flagSaveVfo
                0x2000181c        0x1 CMakeFiles/n7six.ApeX-k1.v7.6.5.dir/App/app/app.c.obj
 *fill*         0x2000181d        0x3 
 .bss.prev_mr_chan.0
                0x20001820        0x4 CMakeFiles/n7six.ApeX-k1.v7.6.5.dir/App/app/chFrScanner.c.obj
 .bss.lastFoundFrqOrChanOld
                0x20001824        0x4 CMakeFiles/n7six.ApeX-k1.v7.6.5.dir/App/app/chFrScanner.c.obj
                0x20001824                lastFoundFrqOrChanOld
 .bss.lastFoundFrqOrChan
                0x20001828        0x4 CMakeFiles/n7six.ApeX-k1.v7.6.5.dir/App/app/chFrScanner.c.obj
                0x20001828                lastFoundFrqOrChan
 .bss.initialCROSS_BAND_RX_TX
                0x2000182c        0x1 CMakeFiles/n7six.ApeX-k1.v7.6.5.dir/App/app/chFrScanner.c.obj
                0x2000182c                initialCROSS_BAND_RX_TX
 *fill*         0x2000182d        0x3 
 .bss.initialFrqOrChan
                0x20001830        0x4 CMakeFiles/n7six.ApeX-k1.v7.6.5.dir/App/app/chFrScanner.c.obj
                0x20001830                initialFrqOrChan
 .bss.currentScanList
                0x20001834        0x1 CMakeFiles/n7six.ApeX-k1.v7.6.5.dir/App/app/chFrScanner.c.obj
                0x20001834                currentScanList
 *fill*         0x20001835        0x3 
 .bss.gScanRangeStop
                0x20001838        0x4 CMakeFiles/n7six.ApeX-k1.v7.6.5.dir/App/app/chFrScanner.c.obj
                0x20001838                gScanRangeStop
 .bss.gScanRangeStart
                0x2000183c        0x4 CMakeFiles/n7six.ApeX-k1.v7.6.5.dir/App/app/chFrScanner.c.obj
                0x2000183c                gScanRangeStart
 .bss.gScanPauseMode
                0x20001840        0x1 CMakeFiles/n7six.ApeX-k1.v7.6.5.dir/App/app/chFrScanner.c.obj
                0x20001840                gScanPauseMode
 .bss.gScanKeepResult
                0x20001841        0x1 CMakeFiles/n7six.ApeX-k1.v7.6.5.dir/App/app/chFrScanner.c.obj
                0x20001841                gScanKeepResult
 .bss.gScanStateDir
                0x20001842        0x1 CMakeFiles/n7six.ApeX-k1.v7.6.5.dir/App/app/chFrScanner.c.obj
                0x20001842                gScanStateDir
 .bss.gDTMF_ReplyState
                0x20001843        0x1 CMakeFiles/n7six.ApeX-k1.v7.6.5.dir/App/app/dtmf.c.obj
                0x20001843                gDTMF_ReplyState
 .bss.gDTMF_RX_live_timeout
                0x20001844        0x1 CMakeFiles/n7six.ApeX-k1.v7.6.5.dir/App/app/dtmf.c.obj
                0x20001844                gDTMF_RX_live_timeout
 .bss.gDTMF_RX_live
                0x20001845       0x14 CMakeFiles/n7six.ApeX-k1.v7.6.5.dir/App/app/dtmf.c.obj
                0x20001845                gDTMF_RX_live
 .bss.gDTMF_PreviousIndex
                0x20001859        0x1 CMakeFiles/n7six.ApeX-k1.v7.6.5.dir/App/app/dtmf.c.obj
                0x20001859                gDTMF_PreviousIndex
 .bss.gDTMF_InputMode
                0x2000185a        0x1 CMakeFiles/n7six.ApeX-k1.v7.6.5.dir/App/app/dtmf.c.obj
                0x2000185a                gDTMF_InputMode
 .bss.gDTMF_InputBox_Index
                0x2000185b        0x1 CMakeFiles/n7six.ApeX-k1.v7.6.5.dir/App/app/dtmf.c.obj
                0x2000185b                gDTMF_InputBox_Index
 .bss.gDTMF_InputBox
                0x2000185c        0xf CMakeFiles/n7six.ApeX-k1.v7.6.5.dir/App/app/dtmf.c.obj
                0x2000185c                gDTMF_InputBox
 .bss.gDTMF_String
                0x2000186b        0xf CMakeFiles/n7six.ApeX-k1.v7.6.5.dir/App/app/dtmf.c.obj
                0x2000186b                gDTMF_String
 .bss.gUnlockAllTxConfCnt
                0x2000187a        0x1 CMakeFiles/n7six.ApeX-k1.v7.6.5.dir/App/app/menu.c.obj
                0x2000187a                gUnlockAllTxConfCnt
 .bss.scanHitCount
                0x2000187b        0x1 CMakeFiles/n7six.ApeX-k1.v7.6.5.dir/App/app/scanner.c.obj
                0x2000187b                scanHitCount
 .bss.stepSetting
                0x2000187c        0x1 CMakeFiles/n7six.ApeX-k1.v7.6.5.dir/App/app/scanner.c.obj
                0x2000187c                stepSetting
 .bss.gScanUseCssResult
                0x2000187d        0x1 CMakeFiles/n7six.ApeX-k1.v7.6.5.dir/App/app/scanner.c.obj
                0x2000187d                gScanUseCssResult
 .bss.gScanProgressIndicator
                0x2000187e        0x1 CMakeFiles/n7six.ApeX-k1.v7.6.5.dir/App/app/scanner.c.obj
                0x2000187e                gScanProgressIndicator
 .bss.gScanCssState
                0x2000187f        0x1 CMakeFiles/n7six.ApeX-k1.v7.6.5.dir/App/app/scanner.c.obj
                0x2000187f                gScanCssState
 .bss.gScanFrequency
                0x20001880        0x4 CMakeFiles/n7six.ApeX-k1.v7.6.5.dir/App/app/scanner.c.obj
                0x20001880                gScanFrequency
 .bss.gScanChannel
                0x20001884        0x1 CMakeFiles/n7six.ApeX-k1.v7.6.5.dir/App/app/scanner.c.obj
                0x20001884                gScanChannel
 .bss.gScannerSaveState
                0x20001885        0x1 CMakeFiles/n7six.ApeX-k1.v7.6.5.dir/App/app/scanner.c.obj
                0x20001885                gScannerSaveState
 .bss.gScanSingleFrequency
                0x20001886        0x1 CMakeFiles/n7six.ApeX-k1.v7.6.5.dir/App/app/scanner.c.obj
                0x20001886                gScanSingleFrequency
 .bss.gScanCssResultCode
                0x20001887        0x1 CMakeFiles/n7six.ApeX-k1.v7.6.5.dir/App/app/scanner.c.obj
                0x20001887                gScanCssResultCode
 .bss.gScanCssResultType
                0x20001888        0x1 CMakeFiles/n7six.ApeX-k1.v7.6.5.dir/App/app/scanner.c.obj
                0x20001888                gScanCssResultType
 .bss.gBeepToPlay
                0x20001889        0x1 CMakeFiles/n7six.ApeX-k1.v7.6.5.dir/App/audio.c.obj
                0x20001889                gBeepToPlay
 .bss.gCurrentFunction
                0x2000188a        0x1 CMakeFiles/n7six.ApeX-k1.v7.6.5.dir/App/functions.c.obj
                0x2000188a                gCurrentFunction
 *fill*         0x2000188b        0x1 
 .bss.gPowerSave_10ms
                0x2000188c        0x2 CMakeFiles/n7six.ApeX-k1.v7.6.5.dir/App/helper/battery.c.obj
                0x2000188c                gPowerSave_10ms
 .bss.lowBatteryCountdown
                0x2000188e        0x2 CMakeFiles/n7six.ApeX-k1.v7.6.5.dir/App/helper/battery.c.obj
                0x2000188e                lowBatteryCountdown
 .bss.gBatteryCheckCounter
                0x20001890        0x2 CMakeFiles/n7six.ApeX-k1.v7.6.5.dir/App/helper/battery.c.obj
                0x20001890                gBatteryCheckCounter
 .bss.gLowBatteryConfirmed
                0x20001892        0x1 CMakeFiles/n7six.ApeX-k1.v7.6.5.dir/App/helper/battery.c.obj
                0x20001892                gLowBatteryConfirmed
 .bss.gLowBattery
                0x20001893        0x1 CMakeFiles/n7six.ApeX-k1.v7.6.5.dir/App/helper/battery.c.obj
                0x20001893                gLowBattery
 .bss.gLowBatteryBlink
                0x20001894        0x1 CMakeFiles/n7six.ApeX-k1.v7.6.5.dir/App/helper/battery.c.obj
                0x20001894                gLowBatteryBlink
 .bss.gChargingWithTypeC
                0x20001895        0x1 CMakeFiles/n7six.ApeX-k1.v7.6.5.dir/App/helper/battery.c.obj
                0x20001895                gChargingWithTypeC
 .bss.gBatteryDisplayLevel
                0x20001896        0x1 CMakeFiles/n7six.ApeX-k1.v7.6.5.dir/App/helper/battery.c.obj
                0x20001896                gBatteryDisplayLevel
 *fill*         0x20001897        0x1 
 .bss.gBatteryVoltageAverage
                0x20001898        0x2 CMakeFiles/n7six.ApeX-k1.v7.6.5.dir/App/helper/battery.c.obj
                0x20001898                gBatteryVoltageAverage
 .bss.gBatteryVoltages
                0x2000189a        0x8 CMakeFiles/n7six.ApeX-k1.v7.6.5.dir/App/helper/battery.c.obj
                0x2000189a                gBatteryVoltages
 .bss.gBatteryCurrent
                0x200018a2        0x2 CMakeFiles/n7six.ApeX-k1.v7.6.5.dir/App/helper/battery.c.obj
                0x200018a2                gBatteryCurrent
 .bss.gBatteryCurrentVoltage
                0x200018a4        0x2 CMakeFiles/n7six.ApeX-k1.v7.6.5.dir/App/helper/battery.c.obj
                0x200018a4                gBatteryCurrentVoltage
 .bss.gBatteryCalibration
                0x200018a6        0xc CMakeFiles/n7six.ApeX-k1.v7.6.5.dir/App/helper/battery.c.obj
                0x200018a6                gBatteryCalibration
 *fill*         0x200018b2        0x2 
 .bss.gBlinkCounter
                0x200018b4        0x4 CMakeFiles/n7six.ApeX-k1.v7.6.5.dir/App/misc.c.obj
                0x200018b4                gBlinkCounter
 .bss.gPttOnePushCounter
                0x200018b8        0x1 CMakeFiles/n7six.ApeX-k1.v7.6.5.dir/App/misc.c.obj
                0x200018b8                gPttOnePushCounter
 .bss.gBacklightBrightnessOld
                0x200018b9        0x1 CMakeFiles/n7six.ApeX-k1.v7.6.5.dir/App/misc.c.obj
                0x200018b9                gBacklightBrightnessOld
 .bss.gBacklightTimeOriginal
                0x200018ba        0x1 CMakeFiles/n7six.ApeX-k1.v7.6.5.dir/App/misc.c.obj
                0x200018ba                gBacklightTimeOriginal
 .bss.gMute     0x200018bb        0x1 CMakeFiles/n7six.ApeX-k1.v7.6.5.dir/App/misc.c.obj
                0x200018bb                gMute
 .bss.gBackLight
                0x200018bc        0x1 CMakeFiles/n7six.ApeX-k1.v7.6.5.dir/App/misc.c.obj
                0x200018bc                gBackLight
 .bss.boot_counter_10ms
                0x200018bd        0x1 CMakeFiles/n7six.ApeX-k1.v7.6.5.dir/App/misc.c.obj
                0x200018bd                boot_counter_10ms
 .bss.gScheduleFM
                0x200018be        0x1 CMakeFiles/n7six.ApeX-k1.v7.6.5.dir/App/misc.c.obj
                0x200018be                gScheduleFM
 .bss.gFlagTailNoteEliminationComplete
                0x200018bf        0x1 CMakeFiles/n7six.ApeX-k1.v7.6.5.dir/App/misc.c.obj
                0x200018bf                gFlagTailNoteEliminationComplete
 .bss.gNextTimeslice40ms
                0x200018c0        0x1 CMakeFiles/n7six.ApeX-k1.v7.6.5.dir/App/misc.c.obj
                0x200018c0                gNextTimeslice40ms
 *fill*         0x200018c1        0x1 
 .bss.gVoxStopCountdown_10ms
                0x200018c2        0x2 CMakeFiles/n7six.ApeX-k1.v7.6.5.dir/App/misc.c.obj
                0x200018c2                gVoxStopCountdown_10ms
 .bss.gFoundCTCSSCountdown_10ms
                0x200018c4        0x1 CMakeFiles/n7six.ApeX-k1.v7.6.5.dir/App/misc.c.obj
                0x200018c4                gFoundCTCSSCountdown_10ms
 .bss.gFoundCDCSSCountdown_10ms
                0x200018c5        0x1 CMakeFiles/n7six.ApeX-k1.v7.6.5.dir/App/misc.c.obj
                0x200018c5                gFoundCDCSSCountdown_10ms
 .bss.gNextTimeslice
                0x200018c6        0x1 CMakeFiles/n7six.ApeX-k1.v7.6.5.dir/App/misc.c.obj
                0x200018c6                gNextTimeslice
 .bss.gShowChPrefix
                0x200018c7        0x1 CMakeFiles/n7six.ApeX-k1.v7.6.5.dir/App/misc.c.obj
                0x200018c7                gShowChPrefix
 .bss.gF_LOCK   0x200018c8        0x1 CMakeFiles/n7six.ApeX-k1.v7.6.5.dir/App/misc.c.obj
                0x200018c8                gF_LOCK
 .bss.gUpdateDisplay
                0x200018c9        0x1 CMakeFiles/n7six.ApeX-k1.v7.6.5.dir/App/misc.c.obj
                0x200018c9                gUpdateDisplay
 .bss.gFSKWriteIndex
                0x200018ca        0x1 CMakeFiles/n7six.ApeX-k1.v7.6.5.dir/App/misc.c.obj
                0x200018ca                gFSKWriteIndex
 .bss.gScanDelay_10ms
                0x200018cb        0x1 CMakeFiles/n7six.ApeX-k1.v7.6.5.dir/App/misc.c.obj
                0x200018cb                gScanDelay_10ms
 .bss.gBackup_CROSS_BAND_RX_TX
                0x200018cc        0x1 CMakeFiles/n7six.ApeX-k1.v7.6.5.dir/App/misc.c.obj
                0x200018cc                gBackup_CROSS_BAND_RX_TX
 .bss.gMenuListCount
                0x200018cd        0x1 CMakeFiles/n7six.ApeX-k1.v7.6.5.dir/App/misc.c.obj
                0x200018cd                gMenuListCount
 .bss.gPttDebounceCounter
                0x200018ce        0x1 CMakeFiles/n7six.ApeX-k1.v7.6.5.dir/App/misc.c.obj
                0x200018ce                gPttDebounceCounter
 .bss.gPttIsPressed
                0x200018cf        0x1 CMakeFiles/n7six.ApeX-k1.v7.6.5.dir/App/misc.c.obj
                0x200018cf                gPttIsPressed
 .bss.gKeyBeingHeld
                0x200018d0        0x1 CMakeFiles/n7six.ApeX-k1.v7.6.5.dir/App/misc.c.obj
                0x200018d0                gKeyBeingHeld
 .bss.gRxVfoIsActive
                0x200018d1        0x1 CMakeFiles/n7six.ApeX-k1.v7.6.5.dir/App/misc.c.obj
                0x200018d1                gRxVfoIsActive
 .bss.gRxReceptionMode
                0x200018d2        0x1 CMakeFiles/n7six.ApeX-k1.v7.6.5.dir/App/misc.c.obj
                0x200018d2                gRxReceptionMode
 .bss.gNextMrChannel
                0x200018d3        0x1 CMakeFiles/n7six.ApeX-k1.v7.6.5.dir/App/misc.c.obj
                0x200018d3                gNextMrChannel
 .bss.gFlagEndTransmission
                0x200018d4        0x1 CMakeFiles/n7six.ApeX-k1.v7.6.5.dir/App/misc.c.obj
                0x200018d4                gFlagEndTransmission
 *fill*         0x200018d5        0x1 
 .bss.gFlashLightBlinkCounter
                0x200018d6        0x2 CMakeFiles/n7six.ApeX-k1.v7.6.5.dir/App/misc.c.obj
                0x200018d6                gFlashLightBlinkCounter
 .bss.g_SquelchLost
                0x200018d8        0x1 CMakeFiles/n7six.ApeX-k1.v7.6.5.dir/App/misc.c.obj
                0x200018d8                g_SquelchLost
 *fill*         0x200018d9        0x1 
 .bss.gVoxPauseCountdown
                0x200018da        0x2 CMakeFiles/n7six.ApeX-k1.v7.6.5.dir/App/misc.c.obj
                0x200018da                gVoxPauseCountdown
 .bss.gVoxResumeCountdown
                0x200018dc        0x2 CMakeFiles/n7six.ApeX-k1.v7.6.5.dir/App/misc.c.obj
                0x200018dc                gVoxResumeCountdown
 .bss.gVOX_NoiseDetected
                0x200018de        0x1 CMakeFiles/n7six.ApeX-k1.v7.6.5.dir/App/misc.c.obj
                0x200018de                gVOX_NoiseDetected
 .bss.g_VOX_Lost
                0x200018df        0x1 CMakeFiles/n7six.ApeX-k1.v7.6.5.dir/App/misc.c.obj
                0x200018df                g_VOX_Lost
 .bss.g_CxCSS_TAIL_Found
                0x200018e0        0x1 CMakeFiles/n7six.ApeX-k1.v7.6.5.dir/App/misc.c.obj
                0x200018e0                g_CxCSS_TAIL_Found
 .bss.g_CTCSS_Lost
                0x200018e1        0x1 CMakeFiles/n7six.ApeX-k1.v7.6.5.dir/App/misc.c.obj
                0x200018e1                g_CTCSS_Lost
 .bss.gCDCSSCodeType
                0x200018e2        0x1 CMakeFiles/n7six.ApeX-k1.v7.6.5.dir/App/misc.c.obj
                0x200018e2                gCDCSSCodeType
 .bss.g_CDCSS_Lost
                0x200018e3        0x1 CMakeFiles/n7six.ApeX-k1.v7.6.5.dir/App/misc.c.obj
                0x200018e3                g_CDCSS_Lost
 .bss.gFlagSaveFM
                0x200018e4        0x1 CMakeFiles/n7six.ApeX-k1.v7.6.5.dir/App/misc.c.obj
                0x200018e4                gFlagSaveFM
 .bss.gFlagRefreshSetting
                0x200018e5        0x1 CMakeFiles/n7six.ApeX-k1.v7.6.5.dir/App/misc.c.obj
                0x200018e5                gFlagRefreshSetting
 .bss.gFlagAcceptSetting
                0x200018e6        0x1 CMakeFiles/n7six.ApeX-k1.v7.6.5.dir/App/misc.c.obj
                0x200018e6                gFlagAcceptSetting
 .bss.gFlagPrepareTX
                0x200018e7        0x1 CMakeFiles/n7six.ApeX-k1.v7.6.5.dir/App/misc.c.obj
                0x200018e7                gFlagPrepareTX
 .bss.gRequestSaveFM
                0x200018e8        0x1 CMakeFiles/n7six.ApeX-k1.v7.6.5.dir/App/misc.c.obj
                0x200018e8                gRequestSaveFM
 .bss.gRequestSaveSettings
                0x200018e9        0x1 CMakeFiles/n7six.ApeX-k1.v7.6.5.dir/App/misc.c.obj
                0x200018e9                gRequestSaveSettings
 .bss.gRequestSaveChannel
                0x200018ea        0x1 CMakeFiles/n7six.ApeX-k1.v7.6.5.dir/App/misc.c.obj
                0x200018ea                gRequestSaveChannel
 .bss.gRequestSaveVFO
                0x200018eb        0x1 CMakeFiles/n7six.ApeX-k1.v7.6.5.dir/App/misc.c.obj
                0x200018eb                gRequestSaveVFO
 .bss.gFlagResetVfos
                0x200018ec        0x1 CMakeFiles/n7six.ApeX-k1.v7.6.5.dir/App/misc.c.obj
                0x200018ec                gFlagResetVfos
 .bss.gVfoConfigureMode
                0x200018ed        0x1 CMakeFiles/n7six.ApeX-k1.v7.6.5.dir/App/misc.c.obj
                0x200018ed                gVfoConfigureMode
 .bss.gFlagReconfigureVfos
                0x200018ee        0x1 CMakeFiles/n7six.ApeX-k1.v7.6.5.dir/App/misc.c.obj
                0x200018ee                gFlagReconfigureVfos
 .bss.gKeypadLocked
                0x200018ef        0x1 CMakeFiles/n7six.ApeX-k1.v7.6.5.dir/App/misc.c.obj
                0x200018ef                gKeypadLocked
 .bss.gPttWasPressed
                0x200018f0        0x1 CMakeFiles/n7six.ApeX-k1.v7.6.5.dir/App/misc.c.obj
                0x200018f0                gPttWasPressed
 .bss.gPttWasReleased
                0x200018f1        0x1 CMakeFiles/n7six.ApeX-k1.v7.6.5.dir/App/misc.c.obj
                0x200018f1                gPttWasReleased
 .bss.gMenuCountdown
                0x200018f2        0x2 CMakeFiles/n7six.ApeX-k1.v7.6.5.dir/App/misc.c.obj
                0x200018f2                gMenuCountdown
 .bss.gAlarmState
                0x200018f4        0x1 CMakeFiles/n7six.ApeX-k1.v7.6.5.dir/App/misc.c.obj
                0x200018f4                gAlarmState
 *fill*         0x200018f5        0x1 
 .bss.gScanPauseDelayIn_10ms
                0x200018f6        0x2 CMakeFiles/n7six.ApeX-k1.v7.6.5.dir/App/misc.c.obj
                0x200018f6                gScanPauseDelayIn_10ms
 .bss.gCssBackgroundScan
                0x200018f8        0x1 CMakeFiles/n7six.ApeX-k1.v7.6.5.dir/App/misc.c.obj
                0x200018f8                gCssBackgroundScan
 .bss.gBatteryVoltageIndex
                0x200018f9        0x1 CMakeFiles/n7six.ApeX-k1.v7.6.5.dir/App/misc.c.obj
                0x200018f9                gBatteryVoltageIndex
 .bss.gReducedService
                0x200018fa        0x1 CMakeFiles/n7six.ApeX-k1.v7.6.5.dir/App/misc.c.obj
                0x200018fa                gReducedService
 .bss.gVFO_RSSI_bar_level
                0x200018fb        0x2 CMakeFiles/n7six.ApeX-k1.v7.6.5.dir/App/misc.c.obj
                0x200018fb                gVFO_RSSI_bar_level
 .bss.gEndOfRxDetectedMaybe
                0x200018fd        0x1 CMakeFiles/n7six.ApeX-k1.v7.6.5.dir/App/misc.c.obj
                0x200018fd                gEndOfRxDetectedMaybe
 .bss.gFoundCDCSS
                0x200018fe        0x1 CMakeFiles/n7six.ApeX-k1.v7.6.5.dir/App/misc.c.obj
                0x200018fe                gFoundCDCSS
 .bss.gFoundCTCSS
                0x200018ff        0x1 CMakeFiles/n7six.ApeX-k1.v7.6.5.dir/App/misc.c.obj
                0x200018ff                gFoundCTCSS
 .bss.gUpdateStatus
                0x20001900        0x1 CMakeFiles/n7six.ApeX-k1.v7.6.5.dir/App/misc.c.obj
                0x20001900                gUpdateStatus
 .bss.bIsInLockScreen
                0x20001901        0x1 CMakeFiles/n7six.ApeX-k1.v7.6.5.dir/App/misc.c.obj
                0x20001901                bIsInLockScreen
 .bss.gRTTECountdown_10ms
                0x20001902        0x1 CMakeFiles/n7six.ApeX-k1.v7.6.5.dir/App/misc.c.obj
                0x20001902                gRTTECountdown_10ms
 .bss.gKeyLockCountdown
                0x20001903        0x1 CMakeFiles/n7six.ApeX-k1.v7.6.5.dir/App/misc.c.obj
                0x20001903                gKeyLockCountdown
 .bss.gKeyInputCountdown
                0x20001904        0x1 CMakeFiles/n7six.ApeX-k1.v7.6.5.dir/App/misc.c.obj
                0x20001904                gKeyInputCountdown
 .bss.gEnableSpeaker
                0x20001905        0x1 CMakeFiles/n7six.ApeX-k1.v7.6.5.dir/App/misc.c.obj
                0x20001905                gEnableSpeaker
 .bss.gVFOStateResumeCountdown_500ms
                0x20001906        0x1 CMakeFiles/n7six.ApeX-k1.v7.6.5.dir/App/misc.c.obj
                0x20001906                gVFOStateResumeCountdown_500ms
 *fill*         0x20001907        0x1 
 .bss.gTailNoteEliminationCountdown_10ms
                0x20001908        0x2 CMakeFiles/n7six.ApeX-k1.v7.6.5.dir/App/misc.c.obj
                0x20001908                gTailNoteEliminationCountdown_10ms
 .bss.gUART_LockScreenshot
                0x2000190a        0x1 CMakeFiles/n7six.ApeX-k1.v7.6.5.dir/App/misc.c.obj
                0x2000190a                gUART_LockScreenshot
 *fill*         0x2000190b        0x1 
 .bss.gRxTimerCountdown_500ms
                0x2000190c        0x2 CMakeFiles/n7six.ApeX-k1.v7.6.5.dir/App/misc.c.obj
                0x2000190c                gRxTimerCountdown_500ms
 .bss.gTxTimeoutReachedAlert
                0x2000190e        0x1 CMakeFiles/n7six.ApeX-k1.v7.6.5.dir/App/misc.c.obj
                0x2000190e                gTxTimeoutReachedAlert
 *fill*         0x2000190f        0x1 
 .bss.gTxTimerCountdownAlert_500ms
                0x20001910        0x2 CMakeFiles/n7six.ApeX-k1.v7.6.5.dir/App/misc.c.obj
                0x20001910                gTxTimerCountdownAlert_500ms
 .bss.gTxTimeoutReached
                0x20001912        0x1 CMakeFiles/n7six.ApeX-k1.v7.6.5.dir/App/misc.c.obj
                0x20001912                gTxTimeoutReached
 *fill*         0x20001913        0x1 
 .bss.gTxTimerCountdown_500ms
                0x20001914        0x2 CMakeFiles/n7six.ApeX-k1.v7.6.5.dir/App/misc.c.obj
                0x20001914                gTxTimerCountdown_500ms
 .bss.gNextTimeslice_500ms
                0x20001916        0x1 CMakeFiles/n7six.ApeX-k1.v7.6.5.dir/App/misc.c.obj
                0x20001916                gNextTimeslice_500ms
 .bss.gSerialConfigCountDown_500ms
                0x20001917        0x1 CMakeFiles/n7six.ApeX-k1.v7.6.5.dir/App/misc.c.obj
                0x20001917                gSerialConfigCountDown_500ms
 .bss.gDualWatchActive
                0x20001918        0x1 CMakeFiles/n7six.ApeX-k1.v7.6.5.dir/App/misc.c.obj
                0x20001918                gDualWatchActive
 *fill*         0x20001919        0x1 
 .bss.gDualWatchCountdown_10ms
                0x2000191a        0x2 CMakeFiles/n7six.ApeX-k1.v7.6.5.dir/App/misc.c.obj
                0x2000191a                gDualWatchCountdown_10ms
 .bss.gSchedulePowerSave
                0x2000191c        0x1 CMakeFiles/n7six.ApeX-k1.v7.6.5.dir/App/misc.c.obj
                0x2000191c                gSchedulePowerSave
 .bss.gPowerSaveCountdownExpired
                0x2000191d        0x1 CMakeFiles/n7six.ApeX-k1.v7.6.5.dir/App/misc.c.obj
                0x2000191d                gPowerSaveCountdownExpired
 .bss.gMR_ChannelExclude
                0x2000191e       0xcf CMakeFiles/n7six.ApeX-k1.v7.6.5.dir/App/misc.c.obj
                0x2000191e                gMR_ChannelExclude
 .bss.gMR_ChannelAttributes
                0x200019ed       0xcf CMakeFiles/n7six.ApeX-k1.v7.6.5.dir/App/misc.c.obj
                0x200019ed                gMR_ChannelAttributes
 .bss.gEEPROM_1F8C
                0x20001abc        0x2 CMakeFiles/n7six.ApeX-k1.v7.6.5.dir/App/misc.c.obj
                0x20001abc                gEEPROM_1F8C
 .bss.gEEPROM_1F8A
                0x20001abe        0x2 CMakeFiles/n7six.ApeX-k1.v7.6.5.dir/App/misc.c.obj
                0x20001abe                gEEPROM_1F8A
 .bss.gEEPROM_RSSI_CALIB
                0x20001ac0       0x38 CMakeFiles/n7six.ApeX-k1.v7.6.5.dir/App/misc.c.obj
                0x20001ac0                gEEPROM_RSSI_CALIB
 .bss.gChallenge
                0x20001af8       0x10 CMakeFiles/n7six.ApeX-k1.v7.6.5.dir/App/misc.c.obj
                0x20001af8                gChallenge
 .bss.bHasCustomAesKey
                0x20001b08        0x1 CMakeFiles/n7six.ApeX-k1.v7.6.5.dir/App/misc.c.obj
                0x20001b08                bHasCustomAesKey
 *fill*         0x20001b09        0x3 
 .bss.gCustomAesKey
                0x20001b0c       0x10 CMakeFiles/n7six.ApeX-k1.v7.6.5.dir/App/misc.c.obj
                0x20001b0c                gCustomAesKey
 .bss.gMonitor  0x20001b1c        0x1 CMakeFiles/n7six.ApeX-k1.v7.6.5.dir/App/misc.c.obj
                0x20001b1c                gMonitor
 .bss.gSetting_battery_text
                0x20001b1d        0x1 CMakeFiles/n7six.ApeX-k1.v7.6.5.dir/App/misc.c.obj
                0x20001b1d                gSetting_battery_text
 .bss.gSetting_live_DTMF_decoder
                0x20001b1e        0x1 CMakeFiles/n7six.ApeX-k1.v7.6.5.dir/App/misc.c.obj
                0x20001b1e                gSetting_live_DTMF_decoder
 .bss.gSetting_mic_bar
                0x20001b1f        0x1 CMakeFiles/n7six.ApeX-k1.v7.6.5.dir/App/misc.c.obj
                0x20001b1f                gSetting_mic_bar
 .bss.gRemoveOffset
                0x20001b20        0x1 CMakeFiles/n7six.ApeX-k1.v7.6.5.dir/App/misc.c.obj
                0x20001b20                gRemoveOffset
 .bss.gPowerHigh
                0x20001b21        0x1 CMakeFiles/n7six.ApeX-k1.v7.6.5.dir/App/misc.c.obj
                0x20001b21                gPowerHigh
 .bss.gAircopyStep
                0x20001b22        0x1 CMakeFiles/n7six.ApeX-k1.v7.6.5.dir/App/misc.c.obj
                0x20001b22                gAircopyStep
 .bss.lErrorsDuringAirCopy
                0x20001b23        0x1 CMakeFiles/n7six.ApeX-k1.v7.6.5.dir/App/misc.c.obj
                0x20001b23                lErrorsDuringAirCopy
 .bss.crc       0x20001b24        0xf CMakeFiles/n7six.ApeX-k1.v7.6.5.dir/App/misc.c.obj
                0x20001b24                crc
 .bss.gSaveRxMode
                0x20001b33        0x1 CMakeFiles/n7six.ApeX-k1.v7.6.5.dir/App/misc.c.obj
                0x20001b33                gSaveRxMode
 .bss.gCB       0x20001b34        0x1 CMakeFiles/n7six.ApeX-k1.v7.6.5.dir/App/misc.c.obj
                0x20001b34                gCB
 .bss.gDW       0x20001b35        0x1 CMakeFiles/n7six.ApeX-k1.v7.6.5.dir/App/misc.c.obj
                0x20001b35                gDW
 .bss.gSetting_set_ptt_session
                0x20001b36        0x1 CMakeFiles/n7six.ApeX-k1.v7.6.5.dir/App/misc.c.obj
                0x20001b36                gSetting_set_ptt_session
 .bss.gSetting_set_tmr
                0x20001b37        0x1 CMakeFiles/n7six.ApeX-k1.v7.6.5.dir/App/misc.c.obj
                0x20001b37                gSetting_set_tmr
 .bss.gSetting_set_nfm
                0x20001b38        0x1 CMakeFiles/n7six.ApeX-k1.v7.6.5.dir/App/misc.c.obj
                0x20001b38                gSetting_set_nfm
 .bss.gSetting_set_gui
                0x20001b39        0x1 CMakeFiles/n7six.ApeX-k1.v7.6.5.dir/App/misc.c.obj
                0x20001b39                gSetting_set_gui
 .bss.gSetting_set_met
                0x20001b3a        0x1 CMakeFiles/n7six.ApeX-k1.v7.6.5.dir/App/misc.c.obj
                0x20001b3a                gSetting_set_met
 .bss.gSetting_set_lck
                0x20001b3b        0x1 CMakeFiles/n7six.ApeX-k1.v7.6.5.dir/App/misc.c.obj
                0x20001b3b                gSetting_set_lck
 .bss.gSetting_set_eot
                0x20001b3c        0x1 CMakeFiles/n7six.ApeX-k1.v7.6.5.dir/App/misc.c.obj
                0x20001b3c                gSetting_set_eot
 .bss.gSetting_set_inv
                0x20001b3d        0x1 CMakeFiles/n7six.ApeX-k1.v7.6.5.dir/App/misc.c.obj
                0x20001b3d                gSetting_set_inv
 .bss.gSetting_set_tot
                0x20001b3e        0x1 CMakeFiles/n7six.ApeX-k1.v7.6.5.dir/App/misc.c.obj
                0x20001b3e                gSetting_set_tot
 .bss.gSetting_set_ptt
                0x20001b3f        0x1 CMakeFiles/n7six.ApeX-k1.v7.6.5.dir/App/misc.c.obj
                0x20001b3f                gSetting_set_ptt
 .bss.gWakeUp   0x20001b40        0x1 CMakeFiles/n7six.ApeX-k1.v7.6.5.dir/App/misc.c.obj
                0x20001b40                gWakeUp
 .bss.gSetting_backlight_on_tx_rx
                0x20001b41        0x1 CMakeFiles/n7six.ApeX-k1.v7.6.5.dir/App/misc.c.obj
                0x20001b41                gSetting_backlight_on_tx_rx
 .bss.gSetting_ScrambleEnable
                0x20001b42        0x1 CMakeFiles/n7six.ApeX-k1.v7.6.5.dir/App/misc.c.obj
                0x20001b42                gSetting_ScrambleEnable
 .bss.gSetting_F_LOCK
                0x20001b43        0x1 CMakeFiles/n7six.ApeX-k1.v7.6.5.dir/App/misc.c.obj
                0x20001b43                gSetting_F_LOCK
 .bss.gSetting_350EN
                0x20001b44        0x1 CMakeFiles/n7six.ApeX-k1.v7.6.5.dir/App/misc.c.obj
                0x20001b44                gSetting_350EN
 .bss.lastSettings.0
                0x20001b45        0x1 CMakeFiles/n7six.ApeX-k1.v7.6.5.dir/App/radio.c.obj
 .bss.VfoState  0x20001b46        0x2 CMakeFiles/n7six.ApeX-k1.v7.6.5.dir/App/radio.c.obj
                0x20001b46                VfoState
 .bss.gCurrentCodeType
                0x20001b48        0x1 CMakeFiles/n7six.ApeX-k1.v7.6.5.dir/App/radio.c.obj
                0x20001b48                gCurrentCodeType
 *fill*         0x20001b49        0x3 
 .bss.gCurrentVfo
                0x20001b4c        0x4 CMakeFiles/n7six.ApeX-k1.v7.6.5.dir/App/radio.c.obj
                0x20001b4c                gCurrentVfo
 .bss.gRxVfo    0x20001b50        0x4 CMakeFiles/n7six.ApeX-k1.v7.6.5.dir/App/radio.c.obj
                0x20001b50                gRxVfo
 .bss.gTxVfo    0x20001b54        0x4 CMakeFiles/n7six.ApeX-k1.v7.6.5.dir/App/radio.c.obj
                0x20001b54                gTxVfo
 .bss.gGlobalSysTickCounter
                0x20001b58        0x4 CMakeFiles/n7six.ApeX-k1.v7.6.5.dir/App/scheduler.c.obj
 .bss.gEeprom   0x20001b5c      0x118 CMakeFiles/n7six.ApeX-k1.v7.6.5.dir/App/settings.c.obj
                0x20001b5c                gEeprom
 .bss.gInputBoxIndex
                0x20001c74        0x1 CMakeFiles/n7six.ApeX-k1.v7.6.5.dir/App/ui/inputbox.c.obj
                0x20001c74                gInputBoxIndex
 .bss.inputBoxAscii
                0x20001c75        0x9 CMakeFiles/n7six.ApeX-k1.v7.6.5.dir/App/ui/inputbox.c.obj
                0x20001c75                inputBoxAscii
 .bss.gInputBox
                0x20001c7e        0x8 CMakeFiles/n7six.ApeX-k1.v7.6.5.dir/App/ui/inputbox.c.obj
                0x20001c7e                gInputBox
 .bss.barsOld.0
                0x20001c86        0x1 CMakeFiles/n7six.ApeX-k1.v7.6.5.dir/App/ui/main.c.obj
 .bss.isMainOnlyInputDTMF
                0x20001c87        0x1 CMakeFiles/n7six.ApeX-k1.v7.6.5.dir/App/ui/main.c.obj
                0x20001c87                isMainOnlyInputDTMF
 .bss.RxOnVfofrequency
                0x20001c88        0x4 CMakeFiles/n7six.ApeX-k1.v7.6.5.dir/App/ui/main.c.obj
 .bss.RxLine    0x20001c8c        0x1 CMakeFiles/n7six.ApeX-k1.v7.6.5.dir/App/ui/main.c.obj
 .bss.RxBlinkLedCounter
                0x20001c8d        0x1 CMakeFiles/n7six.ApeX-k1.v7.6.5.dir/App/ui/main.c.obj
 .bss.RxBlinkLed
                0x20001c8e        0x1 CMakeFiles/n7six.ApeX-k1.v7.6.5.dir/App/ui/main.c.obj
 .bss.RxBlink   0x20001c8f        0x1 CMakeFiles/n7six.ApeX-k1.v7.6.5.dir/App/ui/main.c.obj
 .bss.center_line
                0x20001c90        0x1 CMakeFiles/n7six.ApeX-k1.v7.6.5.dir/App/ui/main.c.obj
                0x20001c90                center_line
 *fill*         0x20001c91        0x3 
 .bss.edit_index
                0x20001c94        0x4 CMakeFiles/n7six.ApeX-k1.v7.6.5.dir/App/ui/menu.c.obj
                0x20001c94                edit_index
 .bss.edit      0x20001c98       0x11 CMakeFiles/n7six.ApeX-k1.v7.6.5.dir/App/ui/menu.c.obj
                0x20001c98                edit
 .bss.edit_original
                0x20001ca9       0x11 CMakeFiles/n7six.ApeX-k1.v7.6.5.dir/App/ui/menu.c.obj
                0x20001ca9                edit_original
 *fill*         0x20001cba        0x2 
 .bss.gSubMenuSelection
                0x20001cbc        0x4 CMakeFiles/n7six.ApeX-k1.v7.6.5.dir/App/ui/menu.c.obj
                0x20001cbc                gSubMenuSelection
 .bss.gMenuCursor
                0x20001cc0        0x1 CMakeFiles/n7six.ApeX-k1.v7.6.5.dir/App/ui/menu.c.obj
                0x20001cc0                gMenuCursor
 .bss.gIsInSubMenu
                0x20001cc1        0x1 CMakeFiles/n7six.ApeX-k1.v7.6.5.dir/App/ui/menu.c.obj
                0x20001cc1                gIsInSubMenu
 .bss.gAskToDelete
                0x20001cc2        0x1 CMakeFiles/n7six.ApeX-k1.v7.6.5.dir/App/ui/ui.c.obj
                0x20001cc2                gAskToDelete
 .bss.gAskToSave
                0x20001cc3        0x1 CMakeFiles/n7six.ApeX-k1.v7.6.5.dir/App/ui/ui.c.obj
                0x20001cc3                gAskToSave
 .bss.gAskForConfirmation
                0x20001cc4        0x1 CMakeFiles/n7six.ApeX-k1.v7.6.5.dir/App/ui/ui.c.obj
                0x20001cc4                gAskForConfirmation
 .bss.gScreenToDisplay
                0x20001cc5        0x1 CMakeFiles/n7six.ApeX-k1.v7.6.5.dir/App/ui/ui.c.obj
                0x20001cc5                gScreenToDisplay
 .bss.UART_DMA_Buffer
                0x20001cc6      0x100 CMakeFiles/n7six.ApeX-k1.v7.6.5.dir/App/driver/uart.c.obj
                0x20001cc6                UART_DMA_Buffer
 .bss.VCP_ReplyBuf.0
                0x20001dc6       0x98 CMakeFiles/n7six.ApeX-k1.v7.6.5.dir/App/app/uart.c.obj
 .bss.VCP_ReadIndex
                0x20001e5e        0x2 CMakeFiles/n7six.ApeX-k1.v7.6.5.dir/App/app/uart.c.obj
 .bss.VCP_Command
                0x20001e60      0x100 CMakeFiles/n7six.ApeX-k1.v7.6.5.dir/App/app/uart.c.obj
 .bss.VCP_Timestamp
                0x20001f60        0x4 CMakeFiles/n7six.ApeX-k1.v7.6.5.dir/App/app/uart.c.obj
 .bss.gUART_WriteIndex
                0x20001f64        0x2 CMakeFiles/n7six.ApeX-k1.v7.6.5.dir/App/app/uart.c.obj
 *fill*         0x20001f66        0x2 
 .bss.UART_Command
                0x20001f68      0x100 CMakeFiles/n7six.ApeX-k1.v7.6.5.dir/App/app/uart.c.obj
 .bss.UART_Timestamp
                0x20002068        0x4 CMakeFiles/n7six.ApeX-k1.v7.6.5.dir/App/app/uart.c.obj
 .bss.VCP_RxBufPointer
                0x2000206c        0x4 CMakeFiles/n7six.ApeX-k1.v7.6.5.dir/App/driver/vcp.c.obj
                0x2000206c                VCP_RxBufPointer
 .bss.VCP_RxBuf
                0x20002070      0x100 CMakeFiles/n7six.ApeX-k1.v7.6.5.dir/App/driver/vcp.c.obj
                0x20002070                VCP_RxBuf
 .bss.dtr_enable
                0x20002170        0x1 CMakeFiles/n7six.ApeX-k1.v7.6.5.dir/App/usb/usbd_cdc_if.c.obj
                0x20002170                dtr_enable
 *fill*         0x20002171        0x3 
 .bss.intf1     0x20002174       0x24 CMakeFiles/n7six.ApeX-k1.v7.6.5.dir/App/usb/usbd_cdc_if.c.obj
                0x20002174                intf1
 .bss.intf0     0x20002198       0x24 CMakeFiles/n7six.ApeX-k1.v7.6.5.dir/App/usb/usbd_cdc_if.c.obj
                0x20002198                intf0
 .bss.ep_tx_busy_flag
                0x200021bc        0x1 CMakeFiles/n7six.ApeX-k1.v7.6.5.dir/App/usb/usbd_cdc_if.c.obj
                0x200021bc                ep_tx_busy_flag
 *fill*         0x200021bd        0x3 
 .bss.client_rx_buf
                0x200021c0        0xc CMakeFiles/n7six.ApeX-k1.v7.6.5.dir/App/usb/usbd_cdc_if.c.obj
 .bss.read_buffer
                0x200021cc       0x80 CMakeFiles/n7six.ApeX-k1.v7.6.5.dir/App/usb/usbd_cdc_if.c.obj
                0x200021cc                read_buffer
 .bss.BK1080_FrequencyDeviation
                0x2000224c        0x2 CMakeFiles/n7six.ApeX-k1.v7.6.5.dir/App/driver/bk1080.c.obj
                0x2000224c                BK1080_FrequencyDeviation
 .bss.BK1080_BaseFrequency
                0x2000224e        0x2 CMakeFiles/n7six.ApeX-k1.v7.6.5.dir/App/driver/bk1080.c.obj
                0x2000224e                BK1080_BaseFrequency
 .bss.gIsInitBK1080
                0x20002250        0x1 CMakeFiles/n7six.ApeX-k1.v7.6.5.dir/App/driver/bk1080.c.obj
 *fill*         0x20002251        0x1 
 .bss.gFM_RestoreCountdown_10ms
                0x20002252        0x2 CMakeFiles/n7six.ApeX-k1.v7.6.5.dir/App/app/fm.c.obj
                0x20002252                gFM_RestoreCountdown_10ms
 .bss.gFM_FoundFrequency
                0x20002254        0x1 CMakeFiles/n7six.ApeX-k1.v7.6.5.dir/App/app/fm.c.obj
                0x20002254                gFM_FoundFrequency
 .bss.gFM_ChannelPosition
                0x20002255        0x1 CMakeFiles/n7six.ApeX-k1.v7.6.5.dir/App/app/fm.c.obj
                0x20002255                gFM_ChannelPosition
 .bss.gFM_AutoScan
                0x20002256        0x1 CMakeFiles/n7six.ApeX-k1.v7.6.5.dir/App/app/fm.c.obj
                0x20002256                gFM_AutoScan
 .bss.gFM_ScanState
                0x20002257        0x1 CMakeFiles/n7six.ApeX-k1.v7.6.5.dir/App/app/fm.c.obj
                0x20002257                gFM_ScanState
 .bss.gFmPlayCountdown_10ms
                0x20002258        0x2 CMakeFiles/n7six.ApeX-k1.v7.6.5.dir/App/app/fm.c.obj
                0x20002258                gFmPlayCountdown_10ms
 .bss.gFmRadioCountdown_500ms
                0x2000225a        0x1 CMakeFiles/n7six.ApeX-k1.v7.6.5.dir/App/app/fm.c.obj
                0x2000225a                gFmRadioCountdown_500ms
 .bss.gFmRadioMode
                0x2000225b        0x1 CMakeFiles/n7six.ApeX-k1.v7.6.5.dir/App/app/fm.c.obj
                0x2000225b                gFmRadioMode
 .bss.gFM_Channels
                0x2000225c       0x28 CMakeFiles/n7six.ApeX-k1.v7.6.5.dir/App/app/fm.c.obj
                0x2000225c                gFM_Channels
 .bss.g_FSK_Buffer
                0x20002284       0x48 CMakeFiles/n7six.ApeX-k1.v7.6.5.dir/App/app/aircopy.c.obj
                0x20002284                g_FSK_Buffer
 .bss.gAirCopyIsSendMode
                0x200022cc        0x1 CMakeFiles/n7six.ApeX-k1.v7.6.5.dir/App/app/aircopy.c.obj
                0x200022cc                gAirCopyIsSendMode
 *fill*         0x200022cd        0x1 
 .bss.gErrorsDuringAirCopy
                0x200022ce        0x2 CMakeFiles/n7six.ApeX-k1.v7.6.5.dir/App/app/aircopy.c.obj
                0x200022ce                gErrorsDuringAirCopy
 .bss.gAirCopyBlockNumber
                0x200022d0        0x2 CMakeFiles/n7six.ApeX-k1.v7.6.5.dir/App/app/aircopy.c.obj
                0x200022d0                gAirCopyBlockNumber
 .bss.gAircopyState
                0x200022d2        0x1 CMakeFiles/n7six.ApeX-k1.v7.6.5.dir/App/app/aircopy.c.obj
                0x200022d2                gAircopyState
 .bss.c.0       0x200022d3        0x1 CMakeFiles/n7six.ApeX-k1.v7.6.5.dir/App/app/flashlight.c.obj
 .bss.next.1    0x200022d4        0x2 CMakeFiles/n7six.ApeX-k1.v7.6.5.dir/App/app/flashlight.c.obj
 .bss.gFlashLightState
                0x200022d6        0x1 CMakeFiles/n7six.ApeX-k1.v7.6.5.dir/App/app/flashlight.c.obj
                0x200022d6                gFlashLightState
 .bss.channelName.1
                0x200022d7        0xc CMakeFiles/n7six.ApeX-k1.v7.6.5.dir/App/app/spectrum.c.obj
 *fill*         0x200022e3        0x1 
 .bss.channelF.2
                0x200022e4        0x4 CMakeFiles/n7six.ApeX-k1.v7.6.5.dir/App/app/spectrum.c.obj
 .bss.String.3  0x200022e8       0x20 CMakeFiles/n7six.ApeX-k1.v7.6.5.dir/App/app/spectrum.c.obj
 .bss.quietCounter.5
                0x20002308        0x1 CMakeFiles/n7six.ApeX-k1.v7.6.5.dir/App/app/spectrum.c.obj
 .bss.listenWatchdog.6
                0x20002309        0x1 CMakeFiles/n7six.ApeX-k1.v7.6.5.dir/App/app/spectrum.c.obj
 .bss.noisePersistence
                0x2000230a      0x100 CMakeFiles/n7six.ApeX-k1.v7.6.5.dir/App/app/spectrum.c.obj
 .bss.registers_stack
                0x2000240a        0xe CMakeFiles/n7six.ApeX-k1.v7.6.5.dir/App/app/spectrum.c.obj
 .bss.blacklistFreqsIdx
                0x20002418        0x1 CMakeFiles/n7six.ApeX-k1.v7.6.5.dir/App/app/spectrum.c.obj
 *fill*         0x20002419        0x1 
 .bss.blacklistFreqs
                0x2000241a       0x1e CMakeFiles/n7six.ApeX-k1.v7.6.5.dir/App/app/spectrum.c.obj
 .bss.statuslineUpdateTimer
                0x20002438        0x2 CMakeFiles/n7six.ApeX-k1.v7.6.5.dir/App/app/spectrum.c.obj
                0x20002438                statuslineUpdateTimer
 .bss.String    0x2000243a       0x20 CMakeFiles/n7six.ApeX-k1.v7.6.5.dir/App/app/spectrum.c.obj
 .bss.listenT   0x2000245a        0x2 CMakeFiles/n7six.ApeX-k1.v7.6.5.dir/App/app/spectrum.c.obj
                0x2000245a                listenT
 .bss.menuState
                0x2000245c        0x1 CMakeFiles/n7six.ApeX-k1.v7.6.5.dir/App/app/spectrum.c.obj
                0x2000245c                menuState
 .bss.freqInputString
                0x2000245d        0xb CMakeFiles/n7six.ApeX-k1.v7.6.5.dir/App/app/spectrum.c.obj
                0x2000245d                freqInputString
 .bss.freqInputArr
                0x20002468        0xa CMakeFiles/n7six.ApeX-k1.v7.6.5.dir/App/app/spectrum.c.obj
                0x20002468                freqInputArr
 .bss.freqInputDotIndex
                0x20002472        0x1 CMakeFiles/n7six.ApeX-k1.v7.6.5.dir/App/app/spectrum.c.obj
                0x20002472                freqInputDotIndex
 .bss.freqInputIndex
                0x20002473        0x1 CMakeFiles/n7six.ApeX-k1.v7.6.5.dir/App/app/spectrum.c.obj
                0x20002473                freqInputIndex
 .bss.peakAge   0x20002474       0x80 CMakeFiles/n7six.ApeX-k1.v7.6.5.dir/App/app/spectrum.c.obj
 .bss.peakHold  0x200024f4      0x100 CMakeFiles/n7six.ApeX-k1.v7.6.5.dir/App/app/spectrum.c.obj
 .bss.smoothedRssi
                0x200025f4      0x100 CMakeFiles/n7six.ApeX-k1.v7.6.5.dir/App/app/spectrum.c.obj
 .bss.waterfallIndex
                0x200026f4        0x1 CMakeFiles/n7six.ApeX-k1.v7.6.5.dir/App/app/spectrum.c.obj
                0x200026f4                waterfallIndex
 .bss.waterfallHistory
                0x200026f5      0x400 CMakeFiles/n7six.ApeX-k1.v7.6.5.dir/App/app/spectrum.c.obj
                0x200026f5                waterfallHistory
 *fill*         0x20002af5        0x1 
 .bss.rssiHistory
                0x20002af6      0x100 CMakeFiles/n7six.ApeX-k1.v7.6.5.dir/App/app/spectrum.c.obj
                0x20002af6                rssiHistory
 *fill*         0x20002bf6        0x2 
 .bss.vfo       0x20002bf8        0x4 CMakeFiles/n7six.ApeX-k1.v7.6.5.dir/App/app/spectrum.c.obj
                0x20002bf8                vfo
 .bss.tempFreq  0x20002bfc        0x4 CMakeFiles/n7six.ApeX-k1.v7.6.5.dir/App/app/spectrum.c.obj
                0x20002bfc                tempFreq
 .bss.currentFreq
                0x20002c00        0x4 CMakeFiles/n7six.ApeX-k1.v7.6.5.dir/App/app/spectrum.c.obj
                0x20002c00                currentFreq
 .bss.fMeasure  0x20002c04        0x4 CMakeFiles/n7six.ApeX-k1.v7.6.5.dir/App/app/spectrum.c.obj
                0x20002c04                fMeasure
 .bss.initialFreq
                0x20002c08        0x4 CMakeFiles/n7six.ApeX-k1.v7.6.5.dir/App/app/spectrum.c.obj
 .bss.displayRssi
                0x20002c0c        0x2 CMakeFiles/n7six.ApeX-k1.v7.6.5.dir/App/app/spectrum.c.obj
 *fill*         0x20002c0e        0x2 
 .bss.scanInfo  0x20002c10       0x18 CMakeFiles/n7six.ApeX-k1.v7.6.5.dir/App/app/spectrum.c.obj
                0x20002c10                scanInfo
 .bss.peak      0x20002c28        0xc CMakeFiles/n7six.ApeX-k1.v7.6.5.dir/App/app/spectrum.c.obj
                0x20002c28                peak
 .bss.previousState
                0x20002c34        0x1 CMakeFiles/n7six.ApeX-k1.v7.6.5.dir/App/app/spectrum.c.obj
                0x20002c34                previousState
 .bss.currentState
                0x20002c35        0x1 CMakeFiles/n7six.ApeX-k1.v7.6.5.dir/App/app/spectrum.c.obj
                0x20002c35                currentState
 .bss.lockAGC   0x20002c36        0x1 CMakeFiles/n7six.ApeX-k1.v7.6.5.dir/App/app/spectrum.c.obj
                0x20002c36                lockAGC
 .bss.redrawScreen
                0x20002c37        0x1 CMakeFiles/n7six.ApeX-k1.v7.6.5.dir/App/app/spectrum.c.obj
                0x20002c37                redrawScreen
 .bss.monitorMode
                0x20002c38        0x1 CMakeFiles/n7six.ApeX-k1.v7.6.5.dir/App/app/spectrum.c.obj
                0x20002c38                monitorMode
 .bss.isInitialized
                0x20002c39        0x1 CMakeFiles/n7six.ApeX-k1.v7.6.5.dir/App/app/spectrum.c.obj
 .bss.swap.0    0x20002c3a        0x1 CMakeFiles/n7six.ApeX-k1.v7.6.5.dir/App/app/breakout.c.obj
 *fill*         0x20002c3b        0x1 
 .bss.ball      0x20002c3c        0x8 CMakeFiles/n7six.ApeX-k1.v7.6.5.dir/App/app/breakout.c.obj
                0x20002c3c                ball
 .bss.racket    0x20002c44        0x5 CMakeFiles/n7six.ApeX-k1.v7.6.5.dir/App/app/breakout.c.obj
                0x20002c44                racket
 .bss.brick     0x20002c49       0x6c CMakeFiles/n7six.ApeX-k1.v7.6.5.dir/App/app/breakout.c.obj
                0x20002c49                brick
 .bss.str       0x20002cb5        0xc CMakeFiles/n7six.ApeX-k1.v7.6.5.dir/App/app/breakout.c.obj
                0x20002cb5                str
 *fill*         0x20002cc1        0x1 
 .bss.score     0x20002cc2        0x2 CMakeFiles/n7six.ApeX-k1.v7.6.5.dir/App/app/breakout.c.obj
                0x20002cc2                score
 .bss.tone      0x20002cc4        0x2 CMakeFiles/n7six.ApeX-k1.v7.6.5.dir/App/app/breakout.c.obj
                0x20002cc4                tone
 .bss.isBeep    0x20002cc6        0x1 CMakeFiles/n7six.ApeX-k1.v7.6.5.dir/App/app/breakout.c.obj
                0x20002cc6                isBeep
 .bss.isPaused  0x20002cc7        0x1 CMakeFiles/n7six.ApeX-k1.v7.6.5.dir/App/app/breakout.c.obj
                0x20002cc7                isPaused
 .bss.isInitialized
                0x20002cc8        0x1 CMakeFiles/n7six.ApeX-k1.v7.6.5.dir/App/app/breakout.c.obj
 .bss.blockAnim
                0x20002cc9        0x1 CMakeFiles/n7six.ApeX-k1.v7.6.5.dir/App/app/breakout.c.obj
 .bss.currentFrame.0
                0x20002cca      0x400 CMakeFiles/n7six.ApeX-k1.v7.6.5.dir/App/screenshot.c.obj
 .bss.forcedBlock
                0x200030ca        0x1 CMakeFiles/n7six.ApeX-k1.v7.6.5.dir/App/screenshot.c.obj
 .bss.previousFrame
                0x200030cb      0x400 CMakeFiles/n7six.ApeX-k1.v7.6.5.dir/App/screenshot.c.obj
 *fill*         0x200034cb        0x1 
 .bss.bos_desc  0x200034cc        0x4 CMakeFiles/n7six.ApeX-k1.v7.6.5.dir/Middlewares/CherryUSB/core/usbd_core.c.obj
 .bss.msosv2_desc
                0x200034d0        0x4 CMakeFiles/n7six.ApeX-k1.v7.6.5.dir/Middlewares/CherryUSB/core/usbd_core.c.obj
 .bss.msosv1_desc
                0x200034d4        0x4 CMakeFiles/n7six.ApeX-k1.v7.6.5.dir/Middlewares/CherryUSB/core/usbd_core.c.obj
 .bss.usbd_intf_head
                0x200034d8        0x4 CMakeFiles/n7six.ApeX-k1.v7.6.5.dir/Middlewares/CherryUSB/core/usbd_core.c.obj
                0x200034d8                usbd_intf_head
 .bss.zlp_flag  0x200034dc        0x1 CMakeFiles/n7six.ApeX-k1.v7.6.5.dir/Middlewares/CherryUSB/port/usb_dc_py32.c.obj
                0x200034dc                zlp_flag
 .bss.usb_ep0_state
                0x200034dd        0x1 CMakeFiles/n7six.ApeX-k1.v7.6.5.dir/Middlewares/CherryUSB/port/usb_dc_py32.c.obj
 *fill*         0x200034de        0x2 
 .bss.g_pyusb_udc
                0x200034e0      0x180 CMakeFiles/n7six.ApeX-k1.v7.6.5.dir/Middlewares/CherryUSB/port/usb_dc_py32.c.obj
                0x200034e0                g_pyusb_udc
 *(COMMON)
                0x20003660                        . = ALIGN (0x4)
                0x20003660                        _ebss = .
                0x20003660                        __bss_end__ = _ebss

._user_heap_stack
                0x20003660      0x600 load address 0x08017264
                0x20003660                        . = ALIGN (0x8)
                [!provide]                        PROVIDE (end = .)
                [!provide]                        PROVIDE (_end = .)
                0x20003860                        . = (. + _Min_Heap_Size)
 *fill*         0x20003660      0x200 
                0x20003c60                        . = (. + _Min_Stack_Size)
 *fill*         0x20003860      0x400 
                0x20003c60                        . = ALIGN (0x8)

/DISCARD/
 libc.a(*)
 libm.a(*)
 libgcc.a(*)

.ARM.attributes
                0x00000000       0x28
 *(.ARM.attributes)
 .ARM.attributes
                0x00000000       0x1e /opt/toolchain/bin/../lib/gcc/arm-none-eabi/13.3.1/thumb/v6-m/nofp/crti.o
 .ARM.attributes
                0x0000001e       0x2c /opt/toolchain/bin/../lib/gcc/arm-none-eabi/13.3.1/thumb/v6-m/nofp/crtbegin.o
 .ARM.attributes
                0x0000004a       0x2c CMakeFiles/n7six.ApeX-k1.v7.6.5.dir/Core/Src/main.c.obj
 .ARM.attributes
                0x00000076       0x2c CMakeFiles/n7six.ApeX-k1.v7.6.5.dir/Core/Src/py32f071_it.c.obj
 .ARM.attributes
                0x000000a2       0x2c CMakeFiles/n7six.ApeX-k1.v7.6.5.dir/Core/Src/system_py32f071.c.obj
 .ARM.attributes
                0x000000ce       0x22 CMakeFiles/n7six.ApeX-k1.v7.6.5.dir/Core/startup_py32f071xx.s.obj
 .ARM.attributes
                0x000000f0       0x2c CMakeFiles/n7six.ApeX-k1.v7.6.5.dir/Drivers/PY32F071_HAL_Driver/Src/py32f071_ll_rcc.c.obj
 .ARM.attributes
                0x0000011c       0x2c CMakeFiles/n7six.ApeX-k1.v7.6.5.dir/Drivers/PY32F071_HAL_Driver/Src/py32f071_ll_dma.c.obj
 .ARM.attributes
                0x00000148       0x2c CMakeFiles/n7six.ApeX-k1.v7.6.5.dir/Drivers/PY32F071_HAL_Driver/Src/py32f071_ll_gpio.c.obj
 .ARM.attributes
                0x00000174       0x2c CMakeFiles/n7six.ApeX-k1.v7.6.5.dir/Drivers/PY32F071_HAL_Driver/Src/py32f071_ll_utils.c.obj
 .ARM.attributes
                0x000001a0       0x2c CMakeFiles/n7six.ApeX-k1.v7.6.5.dir/Drivers/PY32F071_HAL_Driver/Src/py32f071_ll_spi.c.obj
 .ARM.attributes
                0x000001cc       0x2c CMakeFiles/n7six.ApeX-k1.v7.6.5.dir/Drivers/PY32F071_HAL_Driver/Src/py32f071_ll_usart.c.obj
 .ARM.attributes
                0x000001f8       0x2c CMakeFiles/n7six.ApeX-k1.v7.6.5.dir/App/driver/backlight.c.obj
 .ARM.attributes
                0x00000224       0x2c CMakeFiles/n7six.ApeX-k1.v7.6.5.dir/App/driver/bk4829.c.obj
 .ARM.attributes
                0x00000250       0x2c CMakeFiles/n7six.ApeX-k1.v7.6.5.dir/App/driver/py25q16.c.obj
 .ARM.attributes
                0x0000027c       0x2c CMakeFiles/n7six.ApeX-k1.v7.6.5.dir/App/driver/i2c.c.obj
 .ARM.attributes
                0x000002a8       0x2c CMakeFiles/n7six.ApeX-k1.v7.6.5.dir/App/driver/keyboard.c.obj
 .ARM.attributes
                0x000002d4       0x2c CMakeFiles/n7six.ApeX-k1.v7.6.5.dir/App/driver/st7565.c.obj
 .ARM.attributes
                0x00000300       0x2c CMakeFiles/n7six.ApeX-k1.v7.6.5.dir/App/driver/system.c.obj
 .ARM.attributes
                0x0000032c       0x2c CMakeFiles/n7six.ApeX-k1.v7.6.5.dir/App/driver/systick.c.obj
 .ARM.attributes
                0x00000358       0x2c CMakeFiles/n7six.ApeX-k1.v7.6.5.dir/App/app/action.c.obj
 .ARM.attributes
                0x00000384       0x2c CMakeFiles/n7six.ApeX-k1.v7.6.5.dir/App/app/app.c.obj
 .ARM.attributes
                0x000003b0       0x2c CMakeFiles/n7six.ApeX-k1.v7.6.5.dir/App/app/chFrScanner.c.obj
 .ARM.attributes
                0x000003dc       0x2c CMakeFiles/n7six.ApeX-k1.v7.6.5.dir/App/app/common.c.obj
 .ARM.attributes
                0x00000408       0x2c CMakeFiles/n7six.ApeX-k1.v7.6.5.dir/App/app/dtmf.c.obj
 .ARM.attributes
                0x00000434       0x2c CMakeFiles/n7six.ApeX-k1.v7.6.5.dir/App/app/generic.c.obj
 .ARM.attributes
                0x00000460       0x2c CMakeFiles/n7six.ApeX-k1.v7.6.5.dir/App/app/main.c.obj
 .ARM.attributes
                0x0000048c       0x2c CMakeFiles/n7six.ApeX-k1.v7.6.5.dir/App/app/menu.c.obj
 .ARM.attributes
                0x000004b8       0x2c CMakeFiles/n7six.ApeX-k1.v7.6.5.dir/App/app/scanner.c.obj
 .ARM.attributes
                0x000004e4       0x2c CMakeFiles/n7six.ApeX-k1.v7.6.5.dir/App/audio.c.obj
 .ARM.attributes
                0x00000510       0x2c CMakeFiles/n7six.ApeX-k1.v7.6.5.dir/App/bitmaps.c.obj
 .ARM.attributes
                0x0000053c       0x2c CMakeFiles/n7six.ApeX-k1.v7.6.5.dir/App/board.c.obj
 .ARM.attributes
                0x00000568       0x2c CMakeFiles/n7six.ApeX-k1.v7.6.5.dir/App/dcs.c.obj
 .ARM.attributes
                0x00000594       0x2c CMakeFiles/n7six.ApeX-k1.v7.6.5.dir/App/font.c.obj
 .ARM.attributes
                0x000005c0       0x2c CMakeFiles/n7six.ApeX-k1.v7.6.5.dir/App/frequencies.c.obj
 .ARM.attributes
                0x000005ec       0x2c CMakeFiles/n7six.ApeX-k1.v7.6.5.dir/App/functions.c.obj
 .ARM.attributes
                0x00000618       0x2c CMakeFiles/n7six.ApeX-k1.v7.6.5.dir/App/helper/battery.c.obj
 .ARM.attributes
                0x00000644       0x2c CMakeFiles/n7six.ApeX-k1.v7.6.5.dir/App/helper/boot.c.obj
 .ARM.attributes
                0x00000670       0x2c CMakeFiles/n7six.ApeX-k1.v7.6.5.dir/App/misc.c.obj
 .ARM.attributes
                0x0000069c       0x2c CMakeFiles/n7six.ApeX-k1.v7.6.5.dir/App/radio.c.obj
 .ARM.attributes
                0x000006c8       0x2c CMakeFiles/n7six.ApeX-k1.v7.6.5.dir/App/scheduler.c.obj
 .ARM.attributes
                0x000006f4       0x2c CMakeFiles/n7six.ApeX-k1.v7.6.5.dir/App/settings.c.obj
 .ARM.attributes
                0x00000720       0x2c CMakeFiles/n7six.ApeX-k1.v7.6.5.dir/App/ui/battery.c.obj
 .ARM.attributes
                0x0000074c       0x2c CMakeFiles/n7six.ApeX-k1.v7.6.5.dir/App/ui/helper.c.obj
 .ARM.attributes
                0x00000778       0x2c CMakeFiles/n7six.ApeX-k1.v7.6.5.dir/App/ui/inputbox.c.obj
 .ARM.attributes
                0x000007a4       0x2c CMakeFiles/n7six.ApeX-k1.v7.6.5.dir/App/ui/main.c.obj
 .ARM.attributes
                0x000007d0       0x2c CMakeFiles/n7six.ApeX-k1.v7.6.5.dir/App/ui/menu.c.obj
 .ARM.attributes
                0x000007fc       0x2c CMakeFiles/n7six.ApeX-k1.v7.6.5.dir/App/ui/scanner.c.obj
 .ARM.attributes
                0x00000828       0x2c CMakeFiles/n7six.ApeX-k1.v7.6.5.dir/App/ui/status.c.obj
 .ARM.attributes
                0x00000854       0x2c CMakeFiles/n7six.ApeX-k1.v7.6.5.dir/App/ui/ui.c.obj
 .ARM.attributes
                0x00000880       0x2c CMakeFiles/n7six.ApeX-k1.v7.6.5.dir/App/ui/welcome.c.obj
 .ARM.attributes
                0x000008ac       0x2c CMakeFiles/n7six.ApeX-k1.v7.6.5.dir/App/version.c.obj
 .ARM.attributes
                0x000008d8       0x2c CMakeFiles/n7six.ApeX-k1.v7.6.5.dir/App/main.c.obj
 .ARM.attributes
                0x00000904       0x2c CMakeFiles/n7six.ApeX-k1.v7.6.5.dir/App/external/printf/printf.c.obj
 .ARM.attributes
                0x00000930       0x2c CMakeFiles/n7six.ApeX-k1.v7.6.5.dir/App/driver/crc.c.obj
 .ARM.attributes
                0x0000095c       0x2c CMakeFiles/n7six.ApeX-k1.v7.6.5.dir/App/driver/eeprom_compat.c.obj
 .ARM.attributes
                0x00000988       0x2c CMakeFiles/n7six.ApeX-k1.v7.6.5.dir/App/driver/uart.c.obj
 .ARM.attributes
                0x000009b4       0x2c CMakeFiles/n7six.ApeX-k1.v7.6.5.dir/App/app/uart.c.obj
 .ARM.attributes
                0x000009e0       0x2c CMakeFiles/n7six.ApeX-k1.v7.6.5.dir/App/driver/vcp.c.obj
 .ARM.attributes
                0x00000a0c       0x2c CMakeFiles/n7six.ApeX-k1.v7.6.5.dir/App/usb/usbd_cdc_if.c.obj
 .ARM.attributes
                0x00000a38       0x2c CMakeFiles/n7six.ApeX-k1.v7.6.5.dir/App/driver/bk1080.c.obj
 .ARM.attributes
                0x00000a64       0x2c CMakeFiles/n7six.ApeX-k1.v7.6.5.dir/App/app/fm.c.obj
 .ARM.attributes
                0x00000a90       0x2c CMakeFiles/n7six.ApeX-k1.v7.6.5.dir/App/ui/fmradio.c.obj
 .ARM.attributes
                0x00000abc       0x2c CMakeFiles/n7six.ApeX-k1.v7.6.5.dir/App/app/aircopy.c.obj
 .ARM.attributes
                0x00000ae8       0x2c CMakeFiles/n7six.ApeX-k1.v7.6.5.dir/App/ui/aircopy.c.obj
 .ARM.attributes
                0x00000b14       0x2c CMakeFiles/n7six.ApeX-k1.v7.6.5.dir/App/app/flashlight.c.obj
 .ARM.attributes
                0x00000b40       0x2c CMakeFiles/n7six.ApeX-k1.v7.6.5.dir/App/app/spectrum.c.obj
 .ARM.attributes
                0x00000b6c       0x2c CMakeFiles/n7six.ApeX-k1.v7.6.5.dir/App/app/breakout.c.obj
 .ARM.attributes
                0x00000b98       0x2c CMakeFiles/n7six.ApeX-k1.v7.6.5.dir/App/screenshot.c.obj
 .ARM.attributes
                0x00000bc4       0x2c CMakeFiles/n7six.ApeX-k1.v7.6.5.dir/Middlewares/CherryUSB/core/usbd_core.c.obj
 .ARM.attributes
                0x00000bf0       0x2c CMakeFiles/n7six.ApeX-k1.v7.6.5.dir/Middlewares/CherryUSB/port/usb_dc_py32.c.obj
 .ARM.attributes
                0x00000c1c       0x2c CMakeFiles/n7six.ApeX-k1.v7.6.5.dir/Middlewares/CherryUSB/class/cdc/usbd_cdc.c.obj
 .ARM.attributes
                0x00000c48       0x1e /opt/toolchain/bin/../lib/gcc/arm-none-eabi/13.3.1/thumb/v6-m/nofp/libgcc.a(_thumb1_case_sqi.o)
 .ARM.attributes
                0x00000c66       0x1e /opt/toolchain/bin/../lib/gcc/arm-none-eabi/13.3.1/thumb/v6-m/nofp/libgcc.a(_thumb1_case_uqi.o)
 .ARM.attributes
                0x00000c84       0x1e /opt/toolchain/bin/../lib/gcc/arm-none-eabi/13.3.1/thumb/v6-m/nofp/libgcc.a(_thumb1_case_shi.o)
 .ARM.attributes
                0x00000ca2       0x1e /opt/toolchain/bin/../lib/gcc/arm-none-eabi/13.3.1/thumb/v6-m/nofp/libgcc.a(_thumb1_case_uhi.o)
 .ARM.attributes
                0x00000cc0       0x1e /opt/toolchain/bin/../lib/gcc/arm-none-eabi/13.3.1/thumb/v6-m/nofp/libgcc.a(_udivsi3.o)
 .ARM.attributes
                0x00000cde       0x1e /opt/toolchain/bin/../lib/gcc/arm-none-eabi/13.3.1/thumb/v6-m/nofp/libgcc.a(_divsi3.o)
 .ARM.attributes
                0x00000cfc       0x1e /opt/toolchain/bin/../lib/gcc/arm-none-eabi/13.3.1/thumb/v6-m/nofp/libgcc.a(_dvmd_tls.o)
 .ARM.attributes
                0x00000d1a       0x1e /opt/toolchain/bin/../lib/gcc/arm-none-eabi/13.3.1/thumb/v6-m/nofp/libgcc.a(_clzsi2.o)
 .ARM.attributes
                0x00000d38       0x2c /opt/toolchain/bin/../lib/gcc/arm-none-eabi/13.3.1/thumb/v6-m/nofp/libgcc.a(_muldi3.o)
 .ARM.attributes
                0x00000d64       0x2c /opt/toolchain/bin/../lib/gcc/arm-none-eabi/13.3.1/../../../../arm-none-eabi/lib/thumb/v6-m/nofp/libg_nano.a(libc_a-init.o)
 .ARM.attributes
                0x00000d90       0x2c /opt/toolchain/bin/../lib/gcc/arm-none-eabi/13.3.1/../../../../arm-none-eabi/lib/thumb/v6-m/nofp/libg_nano.a(libc_a-memmove.o)
 .ARM.attributes
                0x00000dbc       0x2c /opt/toolchain/bin/../lib/gcc/arm-none-eabi/13.3.1/../../../../arm-none-eabi/lib/thumb/v6-m/nofp/libg_nano.a(libc_a-memset.o)
 .ARM.attributes
                0x00000de8       0x2c /opt/toolchain/bin/../lib/gcc/arm-none-eabi/13.3.1/../../../../arm-none-eabi/lib/thumb/v6-m/nofp/libg_nano.a(libc_a-strcpy.o)
 .ARM.attributes
                0x00000e14       0x2c /opt/toolchain/bin/../lib/gcc/arm-none-eabi/13.3.1/../../../../arm-none-eabi/lib/thumb/v6-m/nofp/libg_nano.a(libc_a-memcpy-stub.o)
 .ARM.attributes
                0x00000e40       0x1c /opt/toolchain/bin/../lib/gcc/arm-none-eabi/13.3.1/../../../../arm-none-eabi/lib/thumb/v6-m/nofp/libg_nano.a(libc_a-strlen.o)
 .ARM.attributes
                0x00000e5c       0x2c /opt/toolchain/bin/../lib/gcc/arm-none-eabi/13.3.1/../../../../arm-none-eabi/lib/thumb/v6-m/nofp/libg_nano.a(libc_a-strncpy.o)
 .ARM.attributes
                0x00000e88       0x2c /opt/toolchain/bin/../lib/gcc/arm-none-eabi/13.3.1/../../../../arm-none-eabi/lib/thumb/v6-m/nofp/libg_nano.a(libc_a-memcmp.o)
 .ARM.attributes
                0x00000eb4       0x2c /opt/toolchain/bin/../lib/gcc/arm-none-eabi/13.3.1/thumb/v6-m/nofp/crtend.o
 .ARM.attributes
                0x00000ee0       0x1e /opt/toolchain/bin/../lib/gcc/arm-none-eabi/13.3.1/thumb/v6-m/nofp/crtn.o
OUTPUT(n7six.ApeX-k1.v7.6.5.elf elf32-littlearm)
LOAD linker stubs
LOAD /opt/toolchain/bin/../lib/gcc/arm-none-eabi/13.3.1/../../../../arm-none-eabi/lib/thumb/v6-m/nofp/libc.a
LOAD /opt/toolchain/bin/../lib/gcc/arm-none-eabi/13.3.1/../../../../arm-none-eabi/lib/thumb/v6-m/nofp/libm.a
LOAD /opt/toolchain/bin/../lib/gcc/arm-none-eabi/13.3.1/thumb/v6-m/nofp/libgcc.a

.comment        0x00000000       0x45
 .comment       0x00000000       0x45 CMakeFiles/n7six.ApeX-k1.v7.6.5.dir/Core/Src/main.c.obj
                                 0x46 (size before relaxing)
 .comment       0x00000045       0x46 CMakeFiles/n7six.ApeX-k1.v7.6.5.dir/Core/Src/py32f071_it.c.obj
 .comment       0x00000045       0x46 CMakeFiles/n7six.ApeX-k1.v7.6.5.dir/Core/Src/system_py32f071.c.obj
 .comment       0x00000045       0x46 CMakeFiles/n7six.ApeX-k1.v7.6.5.dir/Drivers/PY32F071_HAL_Driver/Src/py32f071_ll_rcc.c.obj
 .comment       0x00000045       0x46 CMakeFiles/n7six.ApeX-k1.v7.6.5.dir/Drivers/PY32F071_HAL_Driver/Src/py32f071_ll_dma.c.obj
 .comment       0x00000045       0x46 CMakeFiles/n7six.ApeX-k1.v7.6.5.dir/Drivers/PY32F071_HAL_Driver/Src/py32f071_ll_gpio.c.obj
 .comment       0x00000045       0x46 CMakeFiles/n7six.ApeX-k1.v7.6.5.dir/Drivers/PY32F071_HAL_Driver/Src/py32f071_ll_utils.c.obj
 .comment       0x00000045       0x46 CMakeFiles/n7six.ApeX-k1.v7.6.5.dir/Drivers/PY32F071_HAL_Driver/Src/py32f071_ll_spi.c.obj
 .comment       0x00000045       0x46 CMakeFiles/n7six.ApeX-k1.v7.6.5.dir/Drivers/PY32F071_HAL_Driver/Src/py32f071_ll_usart.c.obj
 .comment       0x00000045       0x46 CMakeFiles/n7six.ApeX-k1.v7.6.5.dir/App/driver/backlight.c.obj
 .comment       0x00000045       0x46 CMakeFiles/n7six.ApeX-k1.v7.6.5.dir/App/driver/bk4829.c.obj
 .comment       0x00000045       0x46 CMakeFiles/n7six.ApeX-k1.v7.6.5.dir/App/driver/py25q16.c.obj
 .comment       0x00000045       0x46 CMakeFiles/n7six.ApeX-k1.v7.6.5.dir/App/driver/i2c.c.obj
 .comment       0x00000045       0x46 CMakeFiles/n7six.ApeX-k1.v7.6.5.dir/App/driver/keyboard.c.obj
 .comment       0x00000045       0x46 CMakeFiles/n7six.ApeX-k1.v7.6.5.dir/App/driver/st7565.c.obj
 .comment       0x00000045       0x46 CMakeFiles/n7six.ApeX-k1.v7.6.5.dir/App/driver/system.c.obj
 .comment       0x00000045       0x46 CMakeFiles/n7six.ApeX-k1.v7.6.5.dir/App/driver/systick.c.obj
 .comment       0x00000045       0x46 CMakeFiles/n7six.ApeX-k1.v7.6.5.dir/App/app/action.c.obj
 .comment       0x00000045       0x46 CMakeFiles/n7six.ApeX-k1.v7.6.5.dir/App/app/app.c.obj
 .comment       0x00000045       0x46 CMakeFiles/n7six.ApeX-k1.v7.6.5.dir/App/app/chFrScanner.c.obj
 .comment       0x00000045       0x46 CMakeFiles/n7six.ApeX-k1.v7.6.5.dir/App/app/common.c.obj
 .comment       0x00000045       0x46 CMakeFiles/n7six.ApeX-k1.v7.6.5.dir/App/app/dtmf.c.obj
 .comment       0x00000045       0x46 CMakeFiles/n7six.ApeX-k1.v7.6.5.dir/App/app/generic.c.obj
 .comment       0x00000045       0x46 CMakeFiles/n7six.ApeX-k1.v7.6.5.dir/App/app/main.c.obj
 .comment       0x00000045       0x46 CMakeFiles/n7six.ApeX-k1.v7.6.5.dir/App/app/menu.c.obj
 .comment       0x00000045       0x46 CMakeFiles/n7six.ApeX-k1.v7.6.5.dir/App/app/scanner.c.obj
 .comment       0x00000045       0x46 CMakeFiles/n7six.ApeX-k1.v7.6.5.dir/App/audio.c.obj
 .comment       0x00000045       0x46 CMakeFiles/n7six.ApeX-k1.v7.6.5.dir/App/bitmaps.c.obj
 .comment       0x00000045       0x46 CMakeFiles/n7six.ApeX-k1.v7.6.5.dir/App/board.c.obj
 .comment       0x00000045       0x46 CMakeFiles/n7six.ApeX-k1.v7.6.5.dir/App/dcs.c.obj
 .comment       0x00000045       0x46 CMakeFiles/n7six.ApeX-k1.v7.6.5.dir/App/font.c.obj
 .comment       0x00000045       0x46 CMakeFiles/n7six.ApeX-k1.v7.6.5.dir/App/frequencies.c.obj
 .comment       0x00000045       0x46 CMakeFiles/n7six.ApeX-k1.v7.6.5.dir/App/functions.c.obj
 .comment       0x00000045       0x46 CMakeFiles/n7six.ApeX-k1.v7.6.5.dir/App/helper/battery.c.obj
 .comment       0x00000045       0x46 CMakeFiles/n7six.ApeX-k1.v7.6.5.dir/App/helper/boot.c.obj
 .comment       0x00000045       0x46 CMakeFiles/n7six.ApeX-k1.v7.6.5.dir/App/misc.c.obj
 .comment       0x00000045       0x46 CMakeFiles/n7six.ApeX-k1.v7.6.5.dir/App/radio.c.obj
 .comment       0x00000045       0x46 CMakeFiles/n7six.ApeX-k1.v7.6.5.dir/App/scheduler.c.obj
 .comment       0x00000045       0x46 CMakeFiles/n7six.ApeX-k1.v7.6.5.dir/App/settings.c.obj
 .comment       0x00000045       0x46 CMakeFiles/n7six.ApeX-k1.v7.6.5.dir/App/ui/battery.c.obj
 .comment       0x00000045       0x46 CMakeFiles/n7six.ApeX-k1.v7.6.5.dir/App/ui/helper.c.obj
 .comment       0x00000045       0x46 CMakeFiles/n7six.ApeX-k1.v7.6.5.dir/App/ui/inputbox.c.obj
 .comment       0x00000045       0x46 CMakeFiles/n7six.ApeX-k1.v7.6.5.dir/App/ui/main.c.obj
 .comment       0x00000045       0x46 CMakeFiles/n7six.ApeX-k1.v7.6.5.dir/App/ui/menu.c.obj
 .comment       0x00000045       0x46 CMakeFiles/n7six.ApeX-k1.v7.6.5.dir/App/ui/scanner.c.obj
 .comment       0x00000045       0x46 CMakeFiles/n7six.ApeX-k1.v7.6.5.dir/App/ui/status.c.obj
 .comment       0x00000045       0x46 CMakeFiles/n7six.ApeX-k1.v7.6.5.dir/App/ui/ui.c.obj
 .comment       0x00000045       0x46 CMakeFiles/n7six.ApeX-k1.v7.6.5.dir/App/ui/welcome.c.obj
 .comment       0x00000045       0x46 CMakeFiles/n7six.ApeX-k1.v7.6.5.dir/App/version.c.obj
 .comment       0x00000045       0x46 CMakeFiles/n7six.ApeX-k1.v7.6.5.dir/App/main.c.obj
 .comment       0x00000045       0x46 CMakeFiles/n7six.ApeX-k1.v7.6.5.dir/App/external/printf/printf.c.obj
 .comment       0x00000045       0x46 CMakeFiles/n7six.ApeX-k1.v7.6.5.dir/App/driver/crc.c.obj
 .comment       0x00000045       0x46 CMakeFiles/n7six.ApeX-k1.v7.6.5.dir/App/driver/eeprom_compat.c.obj
 .comment       0x00000045       0x46 CMakeFiles/n7six.ApeX-k1.v7.6.5.dir/App/driver/uart.c.obj
 .comment       0x00000045       0x46 CMakeFiles/n7six.ApeX-k1.v7.6.5.dir/App/app/uart.c.obj
 .comment       0x00000045       0x46 CMakeFiles/n7six.ApeX-k1.v7.6.5.dir/App/driver/vcp.c.obj
 .comment       0x00000045       0x46 CMakeFiles/n7six.ApeX-k1.v7.6.5.dir/App/usb/usbd_cdc_if.c.obj
 .comment       0x00000045       0x46 CMakeFiles/n7six.ApeX-k1.v7.6.5.dir/App/driver/bk1080.c.obj
 .comment       0x00000045       0x46 CMakeFiles/n7six.ApeX-k1.v7.6.5.dir/App/app/fm.c.obj
 .comment       0x00000045       0x46 CMakeFiles/n7six.ApeX-k1.v7.6.5.dir/App/ui/fmradio.c.obj
 .comment       0x00000045       0x46 CMakeFiles/n7six.ApeX-k1.v7.6.5.dir/App/app/aircopy.c.obj
 .comment       0x00000045       0x46 CMakeFiles/n7six.ApeX-k1.v7.6.5.dir/App/ui/aircopy.c.obj
 .comment       0x00000045       0x46 CMakeFiles/n7six.ApeX-k1.v7.6.5.dir/App/app/flashlight.c.obj
 .comment       0x00000045       0x46 CMakeFiles/n7six.ApeX-k1.v7.6.5.dir/App/app/spectrum.c.obj
 .comment       0x00000045       0x46 CMakeFiles/n7six.ApeX-k1.v7.6.5.dir/App/app/breakout.c.obj
 .comment       0x00000045       0x46 CMakeFiles/n7six.ApeX-k1.v7.6.5.dir/App/screenshot.c.obj
 .comment       0x00000045       0x46 CMakeFiles/n7six.ApeX-k1.v7.6.5.dir/Middlewares/CherryUSB/core/usbd_core.c.obj
 .comment       0x00000045       0x46 CMakeFiles/n7six.ApeX-k1.v7.6.5.dir/Middlewares/CherryUSB/port/usb_dc_py32.c.obj
 .comment       0x00000045       0x46 CMakeFiles/n7six.ApeX-k1.v7.6.5.dir/Middlewares/CherryUSB/class/cdc/usbd_cdc.c.obj

.debug_line_str
                0x00000000      0x1a2
 .debug_line_str
                0x00000000      0x1a2 /opt/toolchain/bin/../lib/gcc/arm-none-eabi/13.3.1/thumb/v6-m/nofp/libgcc.a(_thumb1_case_sqi.o)
                                 0xc2 (size before relaxing)
 .debug_line_str
                0x000001a2       0xc2 /opt/toolchain/bin/../lib/gcc/arm-none-eabi/13.3.1/thumb/v6-m/nofp/libgcc.a(_thumb1_case_uqi.o)
 .debug_line_str
                0x000001a2       0xc2 /opt/toolchain/bin/../lib/gcc/arm-none-eabi/13.3.1/thumb/v6-m/nofp/libgcc.a(_thumb1_case_shi.o)
 .debug_line_str
                0x000001a2       0xc2 /opt/toolchain/bin/../lib/gcc/arm-none-eabi/13.3.1/thumb/v6-m/nofp/libgcc.a(_thumb1_case_uhi.o)
 .debug_line_str
                0x000001a2       0xc2 /opt/toolchain/bin/../lib/gcc/arm-none-eabi/13.3.1/thumb/v6-m/nofp/libgcc.a(_udivsi3.o)
 .debug_line_str
                0x000001a2       0xc2 /opt/toolchain/bin/../lib/gcc/arm-none-eabi/13.3.1/thumb/v6-m/nofp/libgcc.a(_divsi3.o)
 .debug_line_str
                0x000001a2       0xc2 /opt/toolchain/bin/../lib/gcc/arm-none-eabi/13.3.1/thumb/v6-m/nofp/libgcc.a(_dvmd_tls.o)
 .debug_line_str
                0x000001a2       0xc2 /opt/toolchain/bin/../lib/gcc/arm-none-eabi/13.3.1/thumb/v6-m/nofp/libgcc.a(_clzsi2.o)
 .debug_line_str
                0x000001a2       0xe0 /opt/toolchain/bin/../lib/gcc/arm-none-eabi/13.3.1/../../../../arm-none-eabi/lib/thumb/v6-m/nofp/libg_nano.a(libc_a-strlen.o)

.debug_frame    0x00000000      0x188
 .debug_frame   0x00000000       0x20 /opt/toolchain/bin/../lib/gcc/arm-none-eabi/13.3.1/thumb/v6-m/nofp/libgcc.a(_udivsi3.o)
 .debug_frame   0x00000020       0x20 /opt/toolchain/bin/../lib/gcc/arm-none-eabi/13.3.1/thumb/v6-m/nofp/libgcc.a(_divsi3.o)
 .debug_frame   0x00000040       0x34 /opt/toolchain/bin/../lib/gcc/arm-none-eabi/13.3.1/thumb/v6-m/nofp/libgcc.a(_muldi3.o)
 .debug_frame   0x00000074       0x2c /opt/toolchain/bin/../lib/gcc/arm-none-eabi/13.3.1/../../../../arm-none-eabi/lib/thumb/v6-m/nofp/libg_nano.a(libc_a-init.o)
 .debug_frame   0x000000a0       0x28 /opt/toolchain/bin/../lib/gcc/arm-none-eabi/13.3.1/../../../../arm-none-eabi/lib/thumb/v6-m/nofp/libg_nano.a(libc_a-memmove.o)
 .debug_frame   0x000000c8       0x20 /opt/toolchain/bin/../lib/gcc/arm-none-eabi/13.3.1/../../../../arm-none-eabi/lib/thumb/v6-m/nofp/libg_nano.a(libc_a-memset.o)
 .debug_frame   0x000000e8       0x20 /opt/toolchain/bin/../lib/gcc/arm-none-eabi/13.3.1/../../../../arm-none-eabi/lib/thumb/v6-m/nofp/libg_nano.a(libc_a-strcpy.o)
 .debug_frame   0x00000108       0x28 /opt/toolchain/bin/../lib/gcc/arm-none-eabi/13.3.1/../../../../arm-none-eabi/lib/thumb/v6-m/nofp/libg_nano.a(libc_a-memcpy-stub.o)
 .debug_frame   0x00000130       0x2c /opt/toolchain/bin/../lib/gcc/arm-none-eabi/13.3.1/../../../../arm-none-eabi/lib/thumb/v6-m/nofp/libg_nano.a(libc_a-strncpy.o)
 .debug_frame   0x0000015c       0x2c /opt/toolchain/bin/../lib/gcc/arm-none-eabi/13.3.1/../../../../arm-none-eabi/lib/thumb/v6-m/nofp/libg_nano.a(libc_a-memcmp.o)
