Archive member included to satisfy reference by file (symbol)

/opt/toolchain/bin/../lib/gcc/arm-none-eabi/13.3.1/thumb/v6-m/nofp/libgcc.a(_thumb1_case_sqi.o)
                              CMakeFiles/n7six.ApeX-k1.v7.6.5br3.dir/App/app/menu.c.obj (__gnu_thumb1_case_sqi)
/opt/toolchain/bin/../lib/gcc/arm-none-eabi/13.3.1/thumb/v6-m/nofp/libgcc.a(_thumb1_case_uqi.o)
                              CMakeFiles/n7six.ApeX-k1.v7.6.5br3.dir/Drivers/PY32F071_HAL_Driver/Src/py32f071_ll_dma.c.obj (__gnu_thumb1_case_uqi)
/opt/toolchain/bin/../lib/gcc/arm-none-eabi/13.3.1/thumb/v6-m/nofp/libgcc.a(_thumb1_case_shi.o)
                              CMakeFiles/n7six.ApeX-k1.v7.6.5br3.dir/App/app/main.c.obj (__gnu_thumb1_case_shi)
/opt/toolchain/bin/../lib/gcc/arm-none-eabi/13.3.1/thumb/v6-m/nofp/libgcc.a(_thumb1_case_uhi.o)
                              CMakeFiles/n7six.ApeX-k1.v7.6.5br3.dir/App/app/main.c.obj (__gnu_thumb1_case_uhi)
/opt/toolchain/bin/../lib/gcc/arm-none-eabi/13.3.1/thumb/v6-m/nofp/libgcc.a(_udivsi3.o)
                              CMakeFiles/n7six.ApeX-k1.v7.6.5br3.dir/Drivers/PY32F071_HAL_Driver/Src/py32f071_ll_rcc.c.obj (__aeabi_uidiv)
/opt/toolchain/bin/../lib/gcc/arm-none-eabi/13.3.1/thumb/v6-m/nofp/libgcc.a(_divsi3.o)
                              CMakeFiles/n7six.ApeX-k1.v7.6.5br3.dir/Drivers/PY32F071_HAL_Driver/Src/py32f071_ll_i2c.c.obj (__aeabi_idiv)
/opt/toolchain/bin/../lib/gcc/arm-none-eabi/13.3.1/thumb/v6-m/nofp/libgcc.a(_dvmd_tls.o)
                              /opt/toolchain/bin/../lib/gcc/arm-none-eabi/13.3.1/thumb/v6-m/nofp/libgcc.a(_udivsi3.o) (__aeabi_idiv0)
/opt/toolchain/bin/../lib/gcc/arm-none-eabi/13.3.1/thumb/v6-m/nofp/libgcc.a(_clzsi2.o)
                              CMakeFiles/n7six.ApeX-k1.v7.6.5br3.dir/App/board.c.obj (__clzsi2)
/opt/toolchain/bin/../lib/gcc/arm-none-eabi/13.3.1/thumb/v6-m/nofp/libgcc.a(_muldi3.o)
                              CMakeFiles/n7six.ApeX-k1.v7.6.5br3.dir/App/app/spectrum.c.obj (__aeabi_lmul)
/opt/toolchain/bin/../lib/gcc/arm-none-eabi/13.3.1/../../../../arm-none-eabi/lib/thumb/v6-m/nofp/libg_nano.a(libc_a-exit.o)
                              /opt/toolchain/bin/../lib/gcc/arm-none-eabi/13.3.1/../../../../arm-none-eabi/lib/thumb/v6-m/nofp/crt0.o (exit)
/opt/toolchain/bin/../lib/gcc/arm-none-eabi/13.3.1/../../../../arm-none-eabi/lib/thumb/v6-m/nofp/libg_nano.a(libc_a-init.o)
                              /opt/toolchain/bin/../lib/gcc/arm-none-eabi/13.3.1/../../../../arm-none-eabi/lib/thumb/v6-m/nofp/crt0.o (__libc_init_array)
/opt/toolchain/bin/../lib/gcc/arm-none-eabi/13.3.1/../../../../arm-none-eabi/lib/thumb/v6-m/nofp/libg_nano.a(libc_a-memmove.o)
                              CMakeFiles/n7six.ApeX-k1.v7.6.5br3.dir/App/app/dtmf.c.obj (memmove)
/opt/toolchain/bin/../lib/gcc/arm-none-eabi/13.3.1/../../../../arm-none-eabi/lib/thumb/v6-m/nofp/libg_nano.a(libc_a-memset.o)
                              /opt/toolchain/bin/../lib/gcc/arm-none-eabi/13.3.1/../../../../arm-none-eabi/lib/thumb/v6-m/nofp/crt0.o (memset)
/opt/toolchain/bin/../lib/gcc/arm-none-eabi/13.3.1/../../../../arm-none-eabi/lib/thumb/v6-m/nofp/libg_nano.a(libc_a-memcpy-stub.o)
                              CMakeFiles/n7six.ApeX-k1.v7.6.5br3.dir/App/driver/bk4829.c.obj (memcpy)
/opt/toolchain/bin/../lib/gcc/arm-none-eabi/13.3.1/../../../../arm-none-eabi/lib/thumb/v6-m/nofp/libg_nano.a(libc_a-strlen.o)
                              CMakeFiles/n7six.ApeX-k1.v7.6.5br3.dir/App/app/app.c.obj (strlen)
/opt/toolchain/bin/../lib/gcc/arm-none-eabi/13.3.1/../../../../arm-none-eabi/lib/thumb/v6-m/nofp/libg_nano.a(libc_a-findfp.o)
                              /opt/toolchain/bin/../lib/gcc/arm-none-eabi/13.3.1/../../../../arm-none-eabi/lib/thumb/v6-m/nofp/libg_nano.a(libc_a-exit.o) (__stdio_exit_handler)
/opt/toolchain/bin/../lib/gcc/arm-none-eabi/13.3.1/../../../../arm-none-eabi/lib/thumb/v6-m/nofp/libg_nano.a(libc_a-strncpy.o)
                              CMakeFiles/n7six.ApeX-k1.v7.6.5br3.dir/App/app/generic.c.obj (strncpy)
/opt/toolchain/bin/../lib/gcc/arm-none-eabi/13.3.1/../../../../arm-none-eabi/lib/thumb/v6-m/nofp/libg_nano.a(libc_a-strnlen.o)
                              CMakeFiles/n7six.ApeX-k1.v7.6.5br3.dir/App/app/uart.c.obj (strnlen)
/opt/toolchain/bin/../lib/gcc/arm-none-eabi/13.3.1/../../../../arm-none-eabi/lib/thumb/v6-m/nofp/libg_nano.a(libc_a-stdio.o)
                              /opt/toolchain/bin/../lib/gcc/arm-none-eabi/13.3.1/../../../../arm-none-eabi/lib/thumb/v6-m/nofp/libg_nano.a(libc_a-findfp.o) (__sread)
/opt/toolchain/bin/../lib/gcc/arm-none-eabi/13.3.1/../../../../arm-none-eabi/lib/thumb/v6-m/nofp/libg_nano.a(libc_a-lseekr.o)
                              /opt/toolchain/bin/../lib/gcc/arm-none-eabi/13.3.1/../../../../arm-none-eabi/lib/thumb/v6-m/nofp/libg_nano.a(libc_a-stdio.o) (_lseek_r)
/opt/toolchain/bin/../lib/gcc/arm-none-eabi/13.3.1/../../../../arm-none-eabi/lib/thumb/v6-m/nofp/libg_nano.a(libc_a-readr.o)
                              /opt/toolchain/bin/../lib/gcc/arm-none-eabi/13.3.1/../../../../arm-none-eabi/lib/thumb/v6-m/nofp/libg_nano.a(libc_a-stdio.o) (_read_r)
/opt/toolchain/bin/../lib/gcc/arm-none-eabi/13.3.1/../../../../arm-none-eabi/lib/thumb/v6-m/nofp/libg_nano.a(libc_a-fwalk.o)
                              /opt/toolchain/bin/../lib/gcc/arm-none-eabi/13.3.1/../../../../arm-none-eabi/lib/thumb/v6-m/nofp/libg_nano.a(libc_a-findfp.o) (_fwalk_sglue)
/opt/toolchain/bin/../lib/gcc/arm-none-eabi/13.3.1/../../../../arm-none-eabi/lib/thumb/v6-m/nofp/libg_nano.a(libc_a-memcmp.o)
                              CMakeFiles/n7six.ApeX-k1.v7.6.5br3.dir/App/driver/py25q16.c.obj (memcmp)
/opt/toolchain/bin/../lib/gcc/arm-none-eabi/13.3.1/../../../../arm-none-eabi/lib/thumb/v6-m/nofp/libg_nano.a(libc_a-writer.o)
                              /opt/toolchain/bin/../lib/gcc/arm-none-eabi/13.3.1/../../../../arm-none-eabi/lib/thumb/v6-m/nofp/libg_nano.a(libc_a-stdio.o) (_write_r)
/opt/toolchain/bin/../lib/gcc/arm-none-eabi/13.3.1/../../../../arm-none-eabi/lib/thumb/v6-m/nofp/libg_nano.a(libc_a-lock.o)
                              /opt/toolchain/bin/../lib/gcc/arm-none-eabi/13.3.1/../../../../arm-none-eabi/lib/thumb/v6-m/nofp/libg_nano.a(libc_a-findfp.o) (__retarget_lock_init_recursive)
/opt/toolchain/bin/../lib/gcc/arm-none-eabi/13.3.1/../../../../arm-none-eabi/lib/thumb/v6-m/nofp/libg_nano.a(libc_a-fflush.o)
                              /opt/toolchain/bin/../lib/gcc/arm-none-eabi/13.3.1/../../../../arm-none-eabi/lib/thumb/v6-m/nofp/libg_nano.a(libc_a-findfp.o) (_fflush_r)
/opt/toolchain/bin/../lib/gcc/arm-none-eabi/13.3.1/../../../../arm-none-eabi/lib/thumb/v6-m/nofp/libg_nano.a(libc_a-mallocr.o)
                              /opt/toolchain/bin/../lib/gcc/arm-none-eabi/13.3.1/../../../../arm-none-eabi/lib/thumb/v6-m/nofp/libg_nano.a(libc_a-findfp.o) (_malloc_r)
/opt/toolchain/bin/../lib/gcc/arm-none-eabi/13.3.1/../../../../arm-none-eabi/lib/thumb/v6-m/nofp/libg_nano.a(libc_a-closer.o)
                              /opt/toolchain/bin/../lib/gcc/arm-none-eabi/13.3.1/../../../../arm-none-eabi/lib/thumb/v6-m/nofp/libg_nano.a(libc_a-stdio.o) (_close_r)
/opt/toolchain/bin/../lib/gcc/arm-none-eabi/13.3.1/../../../../arm-none-eabi/lib/thumb/v6-m/nofp/libg_nano.a(libc_a-reent.o)
                              /opt/toolchain/bin/../lib/gcc/arm-none-eabi/13.3.1/../../../../arm-none-eabi/lib/thumb/v6-m/nofp/libg_nano.a(libc_a-lseekr.o) (errno)
/opt/toolchain/bin/../lib/gcc/arm-none-eabi/13.3.1/../../../../arm-none-eabi/lib/thumb/v6-m/nofp/libg_nano.a(libc_a-impure.o)
                              /opt/toolchain/bin/../lib/gcc/arm-none-eabi/13.3.1/../../../../arm-none-eabi/lib/thumb/v6-m/nofp/libg_nano.a(libc_a-fflush.o) (_impure_ptr)
/opt/toolchain/bin/../lib/gcc/arm-none-eabi/13.3.1/../../../../arm-none-eabi/lib/thumb/v6-m/nofp/libg_nano.a(libc_a-mlock.o)
                              /opt/toolchain/bin/../lib/gcc/arm-none-eabi/13.3.1/../../../../arm-none-eabi/lib/thumb/v6-m/nofp/libg_nano.a(libc_a-mallocr.o) (__malloc_lock)
/opt/toolchain/bin/../lib/gcc/arm-none-eabi/13.3.1/../../../../arm-none-eabi/lib/thumb/v6-m/nofp/libg_nano.a(libc_a-sbrkr.o)
                              /opt/toolchain/bin/../lib/gcc/arm-none-eabi/13.3.1/../../../../arm-none-eabi/lib/thumb/v6-m/nofp/libg_nano.a(libc_a-mallocr.o) (_sbrk_r)
/opt/toolchain/bin/../lib/gcc/arm-none-eabi/13.3.1/../../../../arm-none-eabi/lib/thumb/v6-m/nofp/libg_nano.a(libc_a-freer.o)
                              /opt/toolchain/bin/../lib/gcc/arm-none-eabi/13.3.1/../../../../arm-none-eabi/lib/thumb/v6-m/nofp/libg_nano.a(libc_a-fflush.o) (_free_r)

Discarded input sections

 .text          0x00000000        0x0 /opt/toolchain/bin/../lib/gcc/arm-none-eabi/13.3.1/thumb/v6-m/nofp/crti.o
 .data          0x00000000        0x0 /opt/toolchain/bin/../lib/gcc/arm-none-eabi/13.3.1/thumb/v6-m/nofp/crti.o
 .bss           0x00000000        0x0 /opt/toolchain/bin/../lib/gcc/arm-none-eabi/13.3.1/thumb/v6-m/nofp/crti.o
 .text          0x00000000        0x0 /opt/toolchain/bin/../lib/gcc/arm-none-eabi/13.3.1/thumb/v6-m/nofp/crtbegin.o
 .data          0x00000000        0x0 /opt/toolchain/bin/../lib/gcc/arm-none-eabi/13.3.1/thumb/v6-m/nofp/crtbegin.o
 .bss           0x00000000        0x0 /opt/toolchain/bin/../lib/gcc/arm-none-eabi/13.3.1/thumb/v6-m/nofp/crtbegin.o
 .rodata.all_implied_fbits
                0x00000000       0x24 /opt/toolchain/bin/../lib/gcc/arm-none-eabi/13.3.1/thumb/v6-m/nofp/crtbegin.o
 .data.__dso_handle
                0x00000000        0x4 /opt/toolchain/bin/../lib/gcc/arm-none-eabi/13.3.1/thumb/v6-m/nofp/crtbegin.o
 .text          0x00000000       0x80 /opt/toolchain/bin/../lib/gcc/arm-none-eabi/13.3.1/../../../../arm-none-eabi/lib/thumb/v6-m/nofp/crt0.o
 .data          0x00000000        0x0 /opt/toolchain/bin/../lib/gcc/arm-none-eabi/13.3.1/../../../../arm-none-eabi/lib/thumb/v6-m/nofp/crt0.o
 .bss           0x00000000        0x0 /opt/toolchain/bin/../lib/gcc/arm-none-eabi/13.3.1/../../../../arm-none-eabi/lib/thumb/v6-m/nofp/crt0.o
 .ARM.extab     0x00000000        0x0 /opt/toolchain/bin/../lib/gcc/arm-none-eabi/13.3.1/../../../../arm-none-eabi/lib/thumb/v6-m/nofp/crt0.o
 .ARM.exidx     0x00000000       0x10 /opt/toolchain/bin/../lib/gcc/arm-none-eabi/13.3.1/../../../../arm-none-eabi/lib/thumb/v6-m/nofp/crt0.o
 .debug_line_str
                0x00000000       0xcb /opt/toolchain/bin/../lib/gcc/arm-none-eabi/13.3.1/../../../../arm-none-eabi/lib/thumb/v6-m/nofp/crt0.o
 .ARM.attributes
                0x00000000       0x1b /opt/toolchain/bin/../lib/gcc/arm-none-eabi/13.3.1/../../../../arm-none-eabi/lib/thumb/v6-m/nofp/crt0.o
 .text          0x00000000        0x0 CMakeFiles/n7six.ApeX-k1.v7.6.5br3.dir/Core/Src/main.c.obj
 .data          0x00000000        0x0 CMakeFiles/n7six.ApeX-k1.v7.6.5br3.dir/Core/Src/main.c.obj
 .bss           0x00000000        0x0 CMakeFiles/n7six.ApeX-k1.v7.6.5br3.dir/Core/Src/main.c.obj
 .text.APP_ErrorHandler
                0x00000000        0x2 CMakeFiles/n7six.ApeX-k1.v7.6.5br3.dir/Core/Src/main.c.obj
 .text          0x00000000        0x0 CMakeFiles/n7six.ApeX-k1.v7.6.5br3.dir/Core/Src/py32f071_it.c.obj
 .data          0x00000000        0x0 CMakeFiles/n7six.ApeX-k1.v7.6.5br3.dir/Core/Src/py32f071_it.c.obj
 .bss           0x00000000        0x0 CMakeFiles/n7six.ApeX-k1.v7.6.5br3.dir/Core/Src/py32f071_it.c.obj
 .text          0x00000000        0x0 CMakeFiles/n7six.ApeX-k1.v7.6.5br3.dir/Core/Src/system_py32f071.c.obj
 .data          0x00000000        0x0 CMakeFiles/n7six.ApeX-k1.v7.6.5br3.dir/Core/Src/system_py32f071.c.obj
 .bss           0x00000000        0x0 CMakeFiles/n7six.ApeX-k1.v7.6.5br3.dir/Core/Src/system_py32f071.c.obj
 .text.SystemCoreClockUpdate
                0x00000000       0x94 CMakeFiles/n7six.ApeX-k1.v7.6.5br3.dir/Core/Src/system_py32f071.c.obj
 .text          0x00000000       0x14 CMakeFiles/n7six.ApeX-k1.v7.6.5br3.dir/Core/startup_py32f071xx.s.obj
 .data          0x00000000        0x0 CMakeFiles/n7six.ApeX-k1.v7.6.5br3.dir/Core/startup_py32f071xx.s.obj
 .bss           0x00000000        0x0 CMakeFiles/n7six.ApeX-k1.v7.6.5br3.dir/Core/startup_py32f071xx.s.obj
 .text          0x00000000        0x0 CMakeFiles/n7six.ApeX-k1.v7.6.5br3.dir/Drivers/PY32F071_HAL_Driver/Src/py32f071_ll_rcc.c.obj
 .data          0x00000000        0x0 CMakeFiles/n7six.ApeX-k1.v7.6.5br3.dir/Drivers/PY32F071_HAL_Driver/Src/py32f071_ll_rcc.c.obj
 .bss           0x00000000        0x0 CMakeFiles/n7six.ApeX-k1.v7.6.5br3.dir/Drivers/PY32F071_HAL_Driver/Src/py32f071_ll_rcc.c.obj
 .text.LL_RCC_LSE_IsReady
                0x00000000       0x10 CMakeFiles/n7six.ApeX-k1.v7.6.5br3.dir/Drivers/PY32F071_HAL_Driver/Src/py32f071_ll_rcc.c.obj
 .text.LL_RCC_LSI_IsReady
                0x00000000       0x10 CMakeFiles/n7six.ApeX-k1.v7.6.5br3.dir/Drivers/PY32F071_HAL_Driver/Src/py32f071_ll_rcc.c.obj
 .text.LL_RCC_DeInit
                0x00000000       0x70 CMakeFiles/n7six.ApeX-k1.v7.6.5br3.dir/Drivers/PY32F071_HAL_Driver/Src/py32f071_ll_rcc.c.obj
 .text.LL_RCC_GetLSCClockFreq
                0x00000000       0x24 CMakeFiles/n7six.ApeX-k1.v7.6.5br3.dir/Drivers/PY32F071_HAL_Driver/Src/py32f071_ll_rcc.c.obj
 .text.LL_RCC_GetRTCClockFreq
                0x00000000       0x54 CMakeFiles/n7six.ApeX-k1.v7.6.5br3.dir/Drivers/PY32F071_HAL_Driver/Src/py32f071_ll_rcc.c.obj
 .text.LL_RCC_GetPVDClockFreq
                0x00000000       0x24 CMakeFiles/n7six.ApeX-k1.v7.6.5br3.dir/Drivers/PY32F071_HAL_Driver/Src/py32f071_ll_rcc.c.obj
 .text.LL_RCC_GetCOMPClockFreq
                0x00000000       0x58 CMakeFiles/n7six.ApeX-k1.v7.6.5br3.dir/Drivers/PY32F071_HAL_Driver/Src/py32f071_ll_rcc.c.obj
 .text.LL_RCC_GetLPTIMClockFreq
                0x00000000       0x64 CMakeFiles/n7six.ApeX-k1.v7.6.5br3.dir/Drivers/PY32F071_HAL_Driver/Src/py32f071_ll_rcc.c.obj
 .text.LL_RCC_GetADCClockFreq
                0x00000000       0x68 CMakeFiles/n7six.ApeX-k1.v7.6.5br3.dir/Drivers/PY32F071_HAL_Driver/Src/py32f071_ll_rcc.c.obj
 .text.LL_RCC_GetMCOClockFreq
                0x00000000       0xd4 CMakeFiles/n7six.ApeX-k1.v7.6.5br3.dir/Drivers/PY32F071_HAL_Driver/Src/py32f071_ll_rcc.c.obj
 .text          0x00000000        0x0 CMakeFiles/n7six.ApeX-k1.v7.6.5br3.dir/Drivers/PY32F071_HAL_Driver/Src/py32f071_ll_pwr.c.obj
 .data          0x00000000        0x0 CMakeFiles/n7six.ApeX-k1.v7.6.5br3.dir/Drivers/PY32F071_HAL_Driver/Src/py32f071_ll_pwr.c.obj
 .bss           0x00000000        0x0 CMakeFiles/n7six.ApeX-k1.v7.6.5br3.dir/Drivers/PY32F071_HAL_Driver/Src/py32f071_ll_pwr.c.obj
 .text.LL_PWR_DeInit
                0x00000000       0x20 CMakeFiles/n7six.ApeX-k1.v7.6.5br3.dir/Drivers/PY32F071_HAL_Driver/Src/py32f071_ll_pwr.c.obj
 .comment       0x00000000       0x46 CMakeFiles/n7six.ApeX-k1.v7.6.5br3.dir/Drivers/PY32F071_HAL_Driver/Src/py32f071_ll_pwr.c.obj
 .ARM.attributes
                0x00000000       0x2c CMakeFiles/n7six.ApeX-k1.v7.6.5br3.dir/Drivers/PY32F071_HAL_Driver/Src/py32f071_ll_pwr.c.obj
 .text          0x00000000        0x0 CMakeFiles/n7six.ApeX-k1.v7.6.5br3.dir/Drivers/PY32F071_HAL_Driver/Src/py32f071_ll_dma.c.obj
 .data          0x00000000        0x0 CMakeFiles/n7six.ApeX-k1.v7.6.5br3.dir/Drivers/PY32F071_HAL_Driver/Src/py32f071_ll_dma.c.obj
 .bss           0x00000000        0x0 CMakeFiles/n7six.ApeX-k1.v7.6.5br3.dir/Drivers/PY32F071_HAL_Driver/Src/py32f071_ll_dma.c.obj
 .text.LL_DMA_DeInit
                0x00000000       0x94 CMakeFiles/n7six.ApeX-k1.v7.6.5br3.dir/Drivers/PY32F071_HAL_Driver/Src/py32f071_ll_dma.c.obj
 .text          0x00000000        0x0 CMakeFiles/n7six.ApeX-k1.v7.6.5br3.dir/Drivers/PY32F071_HAL_Driver/Src/py32f071_ll_gpio.c.obj
 .data          0x00000000        0x0 CMakeFiles/n7six.ApeX-k1.v7.6.5br3.dir/Drivers/PY32F071_HAL_Driver/Src/py32f071_ll_gpio.c.obj
 .bss           0x00000000        0x0 CMakeFiles/n7six.ApeX-k1.v7.6.5br3.dir/Drivers/PY32F071_HAL_Driver/Src/py32f071_ll_gpio.c.obj
 .text.LL_GPIO_DeInit
                0x00000000       0x5c CMakeFiles/n7six.ApeX-k1.v7.6.5br3.dir/Drivers/PY32F071_HAL_Driver/Src/py32f071_ll_gpio.c.obj
 .text          0x00000000        0x0 CMakeFiles/n7six.ApeX-k1.v7.6.5br3.dir/Drivers/PY32F071_HAL_Driver/Src/py32f071_ll_utils.c.obj
 .data          0x00000000        0x0 CMakeFiles/n7six.ApeX-k1.v7.6.5br3.dir/Drivers/PY32F071_HAL_Driver/Src/py32f071_ll_utils.c.obj
 .bss           0x00000000        0x0 CMakeFiles/n7six.ApeX-k1.v7.6.5br3.dir/Drivers/PY32F071_HAL_Driver/Src/py32f071_ll_utils.c.obj
 .text.LL_RCC_HSI_GetFreq
                0x00000000       0x18 CMakeFiles/n7six.ApeX-k1.v7.6.5br3.dir/Drivers/PY32F071_HAL_Driver/Src/py32f071_ll_utils.c.obj
 .text.LL_Init1msTick
                0x00000000       0x20 CMakeFiles/n7six.ApeX-k1.v7.6.5br3.dir/Drivers/PY32F071_HAL_Driver/Src/py32f071_ll_utils.c.obj
 .text.LL_mDelay
                0x00000000       0x2c CMakeFiles/n7six.ApeX-k1.v7.6.5br3.dir/Drivers/PY32F071_HAL_Driver/Src/py32f071_ll_utils.c.obj
 .text.LL_SetFlashLatency
                0x00000000       0x54 CMakeFiles/n7six.ApeX-k1.v7.6.5br3.dir/Drivers/PY32F071_HAL_Driver/Src/py32f071_ll_utils.c.obj
 .text.UTILS_EnablePLLAndSwitchSystem
                0x00000000       0x98 CMakeFiles/n7six.ApeX-k1.v7.6.5br3.dir/Drivers/PY32F071_HAL_Driver/Src/py32f071_ll_utils.c.obj
 .text.LL_PLL_ConfigSystemClock_HSI
                0x00000000       0x94 CMakeFiles/n7six.ApeX-k1.v7.6.5br3.dir/Drivers/PY32F071_HAL_Driver/Src/py32f071_ll_utils.c.obj
 .text.LL_PLL_ConfigSystemClock_HSE
                0x00000000       0xd0 CMakeFiles/n7six.ApeX-k1.v7.6.5br3.dir/Drivers/PY32F071_HAL_Driver/Src/py32f071_ll_utils.c.obj
 .text          0x00000000        0x0 CMakeFiles/n7six.ApeX-k1.v7.6.5br3.dir/Drivers/PY32F071_HAL_Driver/Src/py32f071_ll_adc.c.obj
 .data          0x00000000        0x0 CMakeFiles/n7six.ApeX-k1.v7.6.5br3.dir/Drivers/PY32F071_HAL_Driver/Src/py32f071_ll_adc.c.obj
 .bss           0x00000000        0x0 CMakeFiles/n7six.ApeX-k1.v7.6.5br3.dir/Drivers/PY32F071_HAL_Driver/Src/py32f071_ll_adc.c.obj
 .text.LL_ADC_DeInit
                0x00000000       0xd4 CMakeFiles/n7six.ApeX-k1.v7.6.5br3.dir/Drivers/PY32F071_HAL_Driver/Src/py32f071_ll_adc.c.obj
 .text.LL_ADC_Init
                0x00000000       0x34 CMakeFiles/n7six.ApeX-k1.v7.6.5br3.dir/Drivers/PY32F071_HAL_Driver/Src/py32f071_ll_adc.c.obj
 .text.LL_ADC_StructInit
                0x00000000        0xc CMakeFiles/n7six.ApeX-k1.v7.6.5br3.dir/Drivers/PY32F071_HAL_Driver/Src/py32f071_ll_adc.c.obj
 .text.LL_ADC_REG_Init
                0x00000000       0x50 CMakeFiles/n7six.ApeX-k1.v7.6.5br3.dir/Drivers/PY32F071_HAL_Driver/Src/py32f071_ll_adc.c.obj
 .text.LL_ADC_REG_StructInit
                0x00000000       0x12 CMakeFiles/n7six.ApeX-k1.v7.6.5br3.dir/Drivers/PY32F071_HAL_Driver/Src/py32f071_ll_adc.c.obj
 .text.LL_ADC_INJ_Init
                0x00000000       0x48 CMakeFiles/n7six.ApeX-k1.v7.6.5br3.dir/Drivers/PY32F071_HAL_Driver/Src/py32f071_ll_adc.c.obj
 .text.LL_ADC_INJ_StructInit
                0x00000000       0x10 CMakeFiles/n7six.ApeX-k1.v7.6.5br3.dir/Drivers/PY32F071_HAL_Driver/Src/py32f071_ll_adc.c.obj
 .comment       0x00000000       0x46 CMakeFiles/n7six.ApeX-k1.v7.6.5br3.dir/Drivers/PY32F071_HAL_Driver/Src/py32f071_ll_adc.c.obj
 .ARM.attributes
                0x00000000       0x2c CMakeFiles/n7six.ApeX-k1.v7.6.5br3.dir/Drivers/PY32F071_HAL_Driver/Src/py32f071_ll_adc.c.obj
 .text          0x00000000        0x0 CMakeFiles/n7six.ApeX-k1.v7.6.5br3.dir/Drivers/PY32F071_HAL_Driver/Src/py32f071_ll_comp.c.obj
 .data          0x00000000        0x0 CMakeFiles/n7six.ApeX-k1.v7.6.5br3.dir/Drivers/PY32F071_HAL_Driver/Src/py32f071_ll_comp.c.obj
 .bss           0x00000000        0x0 CMakeFiles/n7six.ApeX-k1.v7.6.5br3.dir/Drivers/PY32F071_HAL_Driver/Src/py32f071_ll_comp.c.obj
 .text.LL_COMP_DeInit
                0x00000000        0xa CMakeFiles/n7six.ApeX-k1.v7.6.5br3.dir/Drivers/PY32F071_HAL_Driver/Src/py32f071_ll_comp.c.obj
 .text.LL_COMP_Init
                0x00000000       0x70 CMakeFiles/n7six.ApeX-k1.v7.6.5br3.dir/Drivers/PY32F071_HAL_Driver/Src/py32f071_ll_comp.c.obj
 .text.LL_COMP_StructInit
                0x00000000       0x14 CMakeFiles/n7six.ApeX-k1.v7.6.5br3.dir/Drivers/PY32F071_HAL_Driver/Src/py32f071_ll_comp.c.obj
 .comment       0x00000000       0x46 CMakeFiles/n7six.ApeX-k1.v7.6.5br3.dir/Drivers/PY32F071_HAL_Driver/Src/py32f071_ll_comp.c.obj
 .ARM.attributes
                0x00000000       0x2c CMakeFiles/n7six.ApeX-k1.v7.6.5br3.dir/Drivers/PY32F071_HAL_Driver/Src/py32f071_ll_comp.c.obj
 .text          0x00000000        0x0 CMakeFiles/n7six.ApeX-k1.v7.6.5br3.dir/Drivers/PY32F071_HAL_Driver/Src/py32f071_ll_crc.c.obj
 .data          0x00000000        0x0 CMakeFiles/n7six.ApeX-k1.v7.6.5br3.dir/Drivers/PY32F071_HAL_Driver/Src/py32f071_ll_crc.c.obj
 .bss           0x00000000        0x0 CMakeFiles/n7six.ApeX-k1.v7.6.5br3.dir/Drivers/PY32F071_HAL_Driver/Src/py32f071_ll_crc.c.obj
 .text.LL_CRC_DeInit
                0x00000000       0x1c CMakeFiles/n7six.ApeX-k1.v7.6.5br3.dir/Drivers/PY32F071_HAL_Driver/Src/py32f071_ll_crc.c.obj
 .comment       0x00000000       0x46 CMakeFiles/n7six.ApeX-k1.v7.6.5br3.dir/Drivers/PY32F071_HAL_Driver/Src/py32f071_ll_crc.c.obj
 .ARM.attributes
                0x00000000       0x2c CMakeFiles/n7six.ApeX-k1.v7.6.5br3.dir/Drivers/PY32F071_HAL_Driver/Src/py32f071_ll_crc.c.obj
 .text          0x00000000        0x0 CMakeFiles/n7six.ApeX-k1.v7.6.5br3.dir/Drivers/PY32F071_HAL_Driver/Src/py32f071_ll_dac.c.obj
 .data          0x00000000        0x0 CMakeFiles/n7six.ApeX-k1.v7.6.5br3.dir/Drivers/PY32F071_HAL_Driver/Src/py32f071_ll_dac.c.obj
 .bss           0x00000000        0x0 CMakeFiles/n7six.ApeX-k1.v7.6.5br3.dir/Drivers/PY32F071_HAL_Driver/Src/py32f071_ll_dac.c.obj
 .text.LL_DAC_DeInit
                0x00000000       0x20 CMakeFiles/n7six.ApeX-k1.v7.6.5br3.dir/Drivers/PY32F071_HAL_Driver/Src/py32f071_ll_dac.c.obj
 .text.LL_DAC_Init
                0x00000000       0x50 CMakeFiles/n7six.ApeX-k1.v7.6.5br3.dir/Drivers/PY32F071_HAL_Driver/Src/py32f071_ll_dac.c.obj
 .text.LL_DAC_StructInit
                0x00000000        0xe CMakeFiles/n7six.ApeX-k1.v7.6.5br3.dir/Drivers/PY32F071_HAL_Driver/Src/py32f071_ll_dac.c.obj
 .comment       0x00000000       0x46 CMakeFiles/n7six.ApeX-k1.v7.6.5br3.dir/Drivers/PY32F071_HAL_Driver/Src/py32f071_ll_dac.c.obj
 .ARM.attributes
                0x00000000       0x2c CMakeFiles/n7six.ApeX-k1.v7.6.5br3.dir/Drivers/PY32F071_HAL_Driver/Src/py32f071_ll_dac.c.obj
 .text          0x00000000        0x0 CMakeFiles/n7six.ApeX-k1.v7.6.5br3.dir/Drivers/PY32F071_HAL_Driver/Src/py32f071_ll_exti.c.obj
 .data          0x00000000        0x0 CMakeFiles/n7six.ApeX-k1.v7.6.5br3.dir/Drivers/PY32F071_HAL_Driver/Src/py32f071_ll_exti.c.obj
 .bss           0x00000000        0x0 CMakeFiles/n7six.ApeX-k1.v7.6.5br3.dir/Drivers/PY32F071_HAL_Driver/Src/py32f071_ll_exti.c.obj
 .text.LL_EXTI_DeInit
                0x00000000       0x28 CMakeFiles/n7six.ApeX-k1.v7.6.5br3.dir/Drivers/PY32F071_HAL_Driver/Src/py32f071_ll_exti.c.obj
 .text.LL_EXTI_Init
                0x00000000       0xa8 CMakeFiles/n7six.ApeX-k1.v7.6.5br3.dir/Drivers/PY32F071_HAL_Driver/Src/py32f071_ll_exti.c.obj
 .text.LL_EXTI_StructInit
                0x00000000        0xc CMakeFiles/n7six.ApeX-k1.v7.6.5br3.dir/Drivers/PY32F071_HAL_Driver/Src/py32f071_ll_exti.c.obj
 .comment       0x00000000       0x46 CMakeFiles/n7six.ApeX-k1.v7.6.5br3.dir/Drivers/PY32F071_HAL_Driver/Src/py32f071_ll_exti.c.obj
 .ARM.attributes
                0x00000000       0x2c CMakeFiles/n7six.ApeX-k1.v7.6.5br3.dir/Drivers/PY32F071_HAL_Driver/Src/py32f071_ll_exti.c.obj
 .text          0x00000000        0x0 CMakeFiles/n7six.ApeX-k1.v7.6.5br3.dir/Drivers/PY32F071_HAL_Driver/Src/py32f071_ll_i2c.c.obj
 .data          0x00000000        0x0 CMakeFiles/n7six.ApeX-k1.v7.6.5br3.dir/Drivers/PY32F071_HAL_Driver/Src/py32f071_ll_i2c.c.obj
 .bss           0x00000000        0x0 CMakeFiles/n7six.ApeX-k1.v7.6.5br3.dir/Drivers/PY32F071_HAL_Driver/Src/py32f071_ll_i2c.c.obj
 .text.LL_I2C_DeInit
                0x00000000       0x50 CMakeFiles/n7six.ApeX-k1.v7.6.5br3.dir/Drivers/PY32F071_HAL_Driver/Src/py32f071_ll_i2c.c.obj
 .text.LL_I2C_Init
                0x00000000       0xf0 CMakeFiles/n7six.ApeX-k1.v7.6.5br3.dir/Drivers/PY32F071_HAL_Driver/Src/py32f071_ll_i2c.c.obj
 .text.LL_I2C_StructInit
                0x00000000       0x1c CMakeFiles/n7six.ApeX-k1.v7.6.5br3.dir/Drivers/PY32F071_HAL_Driver/Src/py32f071_ll_i2c.c.obj
 .comment       0x00000000       0x46 CMakeFiles/n7six.ApeX-k1.v7.6.5br3.dir/Drivers/PY32F071_HAL_Driver/Src/py32f071_ll_i2c.c.obj
 .ARM.attributes
                0x00000000       0x2c CMakeFiles/n7six.ApeX-k1.v7.6.5br3.dir/Drivers/PY32F071_HAL_Driver/Src/py32f071_ll_i2c.c.obj
 .text          0x00000000        0x0 CMakeFiles/n7six.ApeX-k1.v7.6.5br3.dir/Drivers/PY32F071_HAL_Driver/Src/py32f071_ll_rtc.c.obj
 .data          0x00000000        0x0 CMakeFiles/n7six.ApeX-k1.v7.6.5br3.dir/Drivers/PY32F071_HAL_Driver/Src/py32f071_ll_rtc.c.obj
 .bss           0x00000000        0x0 CMakeFiles/n7six.ApeX-k1.v7.6.5br3.dir/Drivers/PY32F071_HAL_Driver/Src/py32f071_ll_rtc.c.obj
 .text.LL_RTC_StructInit
                0x00000000        0xc CMakeFiles/n7six.ApeX-k1.v7.6.5br3.dir/Drivers/PY32F071_HAL_Driver/Src/py32f071_ll_rtc.c.obj
 .text.LL_RTC_TIME_StructInit
                0x00000000        0xa CMakeFiles/n7six.ApeX-k1.v7.6.5br3.dir/Drivers/PY32F071_HAL_Driver/Src/py32f071_ll_rtc.c.obj
 .text.LL_RTC_ALARM_StructInit
                0x00000000        0xa CMakeFiles/n7six.ApeX-k1.v7.6.5br3.dir/Drivers/PY32F071_HAL_Driver/Src/py32f071_ll_rtc.c.obj
 .text.LL_RTC_EnterInitMode
                0x00000000       0x50 CMakeFiles/n7six.ApeX-k1.v7.6.5br3.dir/Drivers/PY32F071_HAL_Driver/Src/py32f071_ll_rtc.c.obj
 .text.LL_RTC_ExitInitMode
                0x00000000       0x50 CMakeFiles/n7six.ApeX-k1.v7.6.5br3.dir/Drivers/PY32F071_HAL_Driver/Src/py32f071_ll_rtc.c.obj
 .text.LL_RTC_TIME_Init
                0x00000000       0x6c CMakeFiles/n7six.ApeX-k1.v7.6.5br3.dir/Drivers/PY32F071_HAL_Driver/Src/py32f071_ll_rtc.c.obj
 .text.LL_RTC_ALARM_Init
                0x00000000       0x6c CMakeFiles/n7six.ApeX-k1.v7.6.5br3.dir/Drivers/PY32F071_HAL_Driver/Src/py32f071_ll_rtc.c.obj
 .text.LL_RTC_TIME_SetCounter
                0x00000000       0x24 CMakeFiles/n7six.ApeX-k1.v7.6.5br3.dir/Drivers/PY32F071_HAL_Driver/Src/py32f071_ll_rtc.c.obj
 .text.LL_RTC_ALARM_SetCounter
                0x00000000       0x24 CMakeFiles/n7six.ApeX-k1.v7.6.5br3.dir/Drivers/PY32F071_HAL_Driver/Src/py32f071_ll_rtc.c.obj
 .text.LL_RTC_WaitForSynchro
                0x00000000       0x50 CMakeFiles/n7six.ApeX-k1.v7.6.5br3.dir/Drivers/PY32F071_HAL_Driver/Src/py32f071_ll_rtc.c.obj
 .text.LL_RTC_DeInit
                0x00000000       0x56 CMakeFiles/n7six.ApeX-k1.v7.6.5br3.dir/Drivers/PY32F071_HAL_Driver/Src/py32f071_ll_rtc.c.obj
 .text.LL_RTC_Init
                0x00000000       0x68 CMakeFiles/n7six.ApeX-k1.v7.6.5br3.dir/Drivers/PY32F071_HAL_Driver/Src/py32f071_ll_rtc.c.obj
 .comment       0x00000000       0x46 CMakeFiles/n7six.ApeX-k1.v7.6.5br3.dir/Drivers/PY32F071_HAL_Driver/Src/py32f071_ll_rtc.c.obj
 .ARM.attributes
                0x00000000       0x2c CMakeFiles/n7six.ApeX-k1.v7.6.5br3.dir/Drivers/PY32F071_HAL_Driver/Src/py32f071_ll_rtc.c.obj
 .text          0x00000000        0x0 CMakeFiles/n7six.ApeX-k1.v7.6.5br3.dir/Drivers/PY32F071_HAL_Driver/Src/py32f071_ll_spi.c.obj
 .data          0x00000000        0x0 CMakeFiles/n7six.ApeX-k1.v7.6.5br3.dir/Drivers/PY32F071_HAL_Driver/Src/py32f071_ll_spi.c.obj
 .bss           0x00000000        0x0 CMakeFiles/n7six.ApeX-k1.v7.6.5br3.dir/Drivers/PY32F071_HAL_Driver/Src/py32f071_ll_spi.c.obj
 .text.LL_SPI_DeInit
                0x00000000       0x54 CMakeFiles/n7six.ApeX-k1.v7.6.5br3.dir/Drivers/PY32F071_HAL_Driver/Src/py32f071_ll_spi.c.obj
 .text.LL_I2S_DeInit
                0x00000000        0x8 CMakeFiles/n7six.ApeX-k1.v7.6.5br3.dir/Drivers/PY32F071_HAL_Driver/Src/py32f071_ll_spi.c.obj
 .text.LL_I2S_Init
                0x00000000       0x9c CMakeFiles/n7six.ApeX-k1.v7.6.5br3.dir/Drivers/PY32F071_HAL_Driver/Src/py32f071_ll_spi.c.obj
 .text.LL_I2S_StructInit
                0x00000000       0x12 CMakeFiles/n7six.ApeX-k1.v7.6.5br3.dir/Drivers/PY32F071_HAL_Driver/Src/py32f071_ll_spi.c.obj
 .text.LL_I2S_ConfigPrescaler
                0x00000000       0x10 CMakeFiles/n7six.ApeX-k1.v7.6.5br3.dir/Drivers/PY32F071_HAL_Driver/Src/py32f071_ll_spi.c.obj
 .text          0x00000000        0x0 CMakeFiles/n7six.ApeX-k1.v7.6.5br3.dir/Drivers/PY32F071_HAL_Driver/Src/py32f071_ll_tim.c.obj
 .data          0x00000000        0x0 CMakeFiles/n7six.ApeX-k1.v7.6.5br3.dir/Drivers/PY32F071_HAL_Driver/Src/py32f071_ll_tim.c.obj
 .bss           0x00000000        0x0 CMakeFiles/n7six.ApeX-k1.v7.6.5br3.dir/Drivers/PY32F071_HAL_Driver/Src/py32f071_ll_tim.c.obj
 .text.LL_TIM_DeInit
                0x00000000      0x100 CMakeFiles/n7six.ApeX-k1.v7.6.5br3.dir/Drivers/PY32F071_HAL_Driver/Src/py32f071_ll_tim.c.obj
 .text.LL_TIM_StructInit
                0x00000000       0x12 CMakeFiles/n7six.ApeX-k1.v7.6.5br3.dir/Drivers/PY32F071_HAL_Driver/Src/py32f071_ll_tim.c.obj
 .text.LL_TIM_Init
                0x00000000       0x7c CMakeFiles/n7six.ApeX-k1.v7.6.5br3.dir/Drivers/PY32F071_HAL_Driver/Src/py32f071_ll_tim.c.obj
 .text.LL_TIM_OC_StructInit
                0x00000000       0x14 CMakeFiles/n7six.ApeX-k1.v7.6.5br3.dir/Drivers/PY32F071_HAL_Driver/Src/py32f071_ll_tim.c.obj
 .text.LL_TIM_OC_Init
                0x00000000      0x200 CMakeFiles/n7six.ApeX-k1.v7.6.5br3.dir/Drivers/PY32F071_HAL_Driver/Src/py32f071_ll_tim.c.obj
 .text.LL_TIM_IC_StructInit
                0x00000000       0x10 CMakeFiles/n7six.ApeX-k1.v7.6.5br3.dir/Drivers/PY32F071_HAL_Driver/Src/py32f071_ll_tim.c.obj
 .text.LL_TIM_IC_Init
                0x00000000       0xe8 CMakeFiles/n7six.ApeX-k1.v7.6.5br3.dir/Drivers/PY32F071_HAL_Driver/Src/py32f071_ll_tim.c.obj
 .text.LL_TIM_ENCODER_StructInit
                0x00000000       0x1c CMakeFiles/n7six.ApeX-k1.v7.6.5br3.dir/Drivers/PY32F071_HAL_Driver/Src/py32f071_ll_tim.c.obj
 .text.LL_TIM_ENCODER_Init
                0x00000000       0x5c CMakeFiles/n7six.ApeX-k1.v7.6.5br3.dir/Drivers/PY32F071_HAL_Driver/Src/py32f071_ll_tim.c.obj
 .text.LL_TIM_HALLSENSOR_StructInit
                0x00000000        0xc CMakeFiles/n7six.ApeX-k1.v7.6.5br3.dir/Drivers/PY32F071_HAL_Driver/Src/py32f071_ll_tim.c.obj
 .text.LL_TIM_HALLSENSOR_Init
                0x00000000       0x5c CMakeFiles/n7six.ApeX-k1.v7.6.5br3.dir/Drivers/PY32F071_HAL_Driver/Src/py32f071_ll_tim.c.obj
 .text.LL_TIM_BDTR_StructInit
                0x00000000       0x12 CMakeFiles/n7six.ApeX-k1.v7.6.5br3.dir/Drivers/PY32F071_HAL_Driver/Src/py32f071_ll_tim.c.obj
 .text.LL_TIM_BDTR_Init
                0x00000000       0x48 CMakeFiles/n7six.ApeX-k1.v7.6.5br3.dir/Drivers/PY32F071_HAL_Driver/Src/py32f071_ll_tim.c.obj
 .comment       0x00000000       0x46 CMakeFiles/n7six.ApeX-k1.v7.6.5br3.dir/Drivers/PY32F071_HAL_Driver/Src/py32f071_ll_tim.c.obj
 .ARM.attributes
                0x00000000       0x2c CMakeFiles/n7six.ApeX-k1.v7.6.5br3.dir/Drivers/PY32F071_HAL_Driver/Src/py32f071_ll_tim.c.obj
 .text          0x00000000        0x0 CMakeFiles/n7six.ApeX-k1.v7.6.5br3.dir/Drivers/PY32F071_HAL_Driver/Src/py32f071_ll_lptim.c.obj
 .data          0x00000000        0x0 CMakeFiles/n7six.ApeX-k1.v7.6.5br3.dir/Drivers/PY32F071_HAL_Driver/Src/py32f071_ll_lptim.c.obj
 .bss           0x00000000        0x0 CMakeFiles/n7six.ApeX-k1.v7.6.5br3.dir/Drivers/PY32F071_HAL_Driver/Src/py32f071_ll_lptim.c.obj
 .text.LL_LPTIM_DeInit
                0x00000000       0x2c CMakeFiles/n7six.ApeX-k1.v7.6.5br3.dir/Drivers/PY32F071_HAL_Driver/Src/py32f071_ll_lptim.c.obj
 .text.LL_LPTIM_StructInit
                0x00000000        0x8 CMakeFiles/n7six.ApeX-k1.v7.6.5br3.dir/Drivers/PY32F071_HAL_Driver/Src/py32f071_ll_lptim.c.obj
 .text.LL_LPTIM_Init
                0x00000000       0x28 CMakeFiles/n7six.ApeX-k1.v7.6.5br3.dir/Drivers/PY32F071_HAL_Driver/Src/py32f071_ll_lptim.c.obj
 .comment       0x00000000       0x46 CMakeFiles/n7six.ApeX-k1.v7.6.5br3.dir/Drivers/PY32F071_HAL_Driver/Src/py32f071_ll_lptim.c.obj
 .ARM.attributes
                0x00000000       0x2c CMakeFiles/n7six.ApeX-k1.v7.6.5br3.dir/Drivers/PY32F071_HAL_Driver/Src/py32f071_ll_lptim.c.obj
 .text          0x00000000        0x0 CMakeFiles/n7six.ApeX-k1.v7.6.5br3.dir/Drivers/PY32F071_HAL_Driver/Src/py32f071_ll_usart.c.obj
 .data          0x00000000        0x0 CMakeFiles/n7six.ApeX-k1.v7.6.5br3.dir/Drivers/PY32F071_HAL_Driver/Src/py32f071_ll_usart.c.obj
 .bss           0x00000000        0x0 CMakeFiles/n7six.ApeX-k1.v7.6.5br3.dir/Drivers/PY32F071_HAL_Driver/Src/py32f071_ll_usart.c.obj
 .text.LL_USART_DeInit
                0x00000000       0x94 CMakeFiles/n7six.ApeX-k1.v7.6.5br3.dir/Drivers/PY32F071_HAL_Driver/Src/py32f071_ll_usart.c.obj
 .text.LL_USART_ClockInit
                0x00000000       0x40 CMakeFiles/n7six.ApeX-k1.v7.6.5br3.dir/Drivers/PY32F071_HAL_Driver/Src/py32f071_ll_usart.c.obj
 .text.LL_USART_ClockStructInit
                0x00000000        0xc CMakeFiles/n7six.ApeX-k1.v7.6.5br3.dir/Drivers/PY32F071_HAL_Driver/Src/py32f071_ll_usart.c.obj
 .text          0x00000000        0x0 CMakeFiles/n7six.ApeX-k1.v7.6.5br3.dir/App/driver/backlight.c.obj
 .data          0x00000000        0x0 CMakeFiles/n7six.ApeX-k1.v7.6.5br3.dir/App/driver/backlight.c.obj
 .bss           0x00000000        0x0 CMakeFiles/n7six.ApeX-k1.v7.6.5br3.dir/App/driver/backlight.c.obj
 .text.BACKLIGHT_GetBrightness
                0x00000000        0xc CMakeFiles/n7six.ApeX-k1.v7.6.5br3.dir/App/driver/backlight.c.obj
 .text          0x00000000        0x0 CMakeFiles/n7six.ApeX-k1.v7.6.5br3.dir/App/driver/bk4829.c.obj
 .data          0x00000000        0x0 CMakeFiles/n7six.ApeX-k1.v7.6.5br3.dir/App/driver/bk4829.c.obj
 .bss           0x00000000        0x0 CMakeFiles/n7six.ApeX-k1.v7.6.5br3.dir/App/driver/bk4829.c.obj
 .rodata.BK4819_GetRxGain_dB.str1.1
                0x00000000       0x10 CMakeFiles/n7six.ApeX-k1.v7.6.5br3.dir/App/driver/bk4829.c.obj
 .text.BK4819_GetRxGain_dB
                0x00000000       0x78 CMakeFiles/n7six.ApeX-k1.v7.6.5br3.dir/App/driver/bk4829.c.obj
 .text.BK4819_EnableScramble
                0x00000000       0x40 CMakeFiles/n7six.ApeX-k1.v7.6.5br3.dir/App/driver/bk4829.c.obj
 .text.BK4819_CompanderEnabled
                0x00000000        0xe CMakeFiles/n7six.ApeX-k1.v7.6.5br3.dir/App/driver/bk4829.c.obj
 .text.BK4819_GetGlitchIndicator
                0x00000000        0xc CMakeFiles/n7six.ApeX-k1.v7.6.5br3.dir/App/driver/bk4829.c.obj
 .text.BK4819_GetExNoiceIndicator
                0x00000000        0xe CMakeFiles/n7six.ApeX-k1.v7.6.5br3.dir/App/driver/bk4829.c.obj
 .text.BK4819_GetAfTxRx
                0x00000000        0xe CMakeFiles/n7six.ApeX-k1.v7.6.5br3.dir/App/driver/bk4829.c.obj
 .text.BK4819_GetCTCShift
                0x00000000        0xe CMakeFiles/n7six.ApeX-k1.v7.6.5br3.dir/App/driver/bk4829.c.obj
 .text.BK4819_Enable_AfDac_DiscMode_TxDsp
                0x00000000       0x18 CMakeFiles/n7six.ApeX-k1.v7.6.5br3.dir/App/driver/bk4829.c.obj
 .text.BK4819_GetVoxAmp
                0x00000000       0x12 CMakeFiles/n7six.ApeX-k1.v7.6.5br3.dir/App/driver/bk4829.c.obj
 .text.BK4819_SetScrambleFrequencyControlWord
                0x00000000       0x1c CMakeFiles/n7six.ApeX-k1.v7.6.5br3.dir/App/driver/bk4829.c.obj
 .text          0x00000000        0x0 CMakeFiles/n7six.ApeX-k1.v7.6.5br3.dir/App/driver/py25q16.c.obj
 .data          0x00000000        0x0 CMakeFiles/n7six.ApeX-k1.v7.6.5br3.dir/App/driver/py25q16.c.obj
 .bss           0x00000000        0x0 CMakeFiles/n7six.ApeX-k1.v7.6.5br3.dir/App/driver/py25q16.c.obj
 .text          0x00000000        0x0 CMakeFiles/n7six.ApeX-k1.v7.6.5br3.dir/App/driver/gpio.c.obj
 .data          0x00000000        0x0 CMakeFiles/n7six.ApeX-k1.v7.6.5br3.dir/App/driver/gpio.c.obj
 .bss           0x00000000        0x0 CMakeFiles/n7six.ApeX-k1.v7.6.5br3.dir/App/driver/gpio.c.obj
 .comment       0x00000000       0x46 CMakeFiles/n7six.ApeX-k1.v7.6.5br3.dir/App/driver/gpio.c.obj
 .ARM.attributes
                0x00000000       0x2c CMakeFiles/n7six.ApeX-k1.v7.6.5br3.dir/App/driver/gpio.c.obj
 .text          0x00000000        0x0 CMakeFiles/n7six.ApeX-k1.v7.6.5br3.dir/App/driver/i2c.c.obj
 .data          0x00000000        0x0 CMakeFiles/n7six.ApeX-k1.v7.6.5br3.dir/App/driver/i2c.c.obj
 .bss           0x00000000        0x0 CMakeFiles/n7six.ApeX-k1.v7.6.5br3.dir/App/driver/i2c.c.obj
 .text          0x00000000        0x0 CMakeFiles/n7six.ApeX-k1.v7.6.5br3.dir/App/driver/keyboard.c.obj
 .data          0x00000000        0x0 CMakeFiles/n7six.ApeX-k1.v7.6.5br3.dir/App/driver/keyboard.c.obj
 .bss           0x00000000        0x0 CMakeFiles/n7six.ApeX-k1.v7.6.5br3.dir/App/driver/keyboard.c.obj
 .text          0x00000000        0x0 CMakeFiles/n7six.ApeX-k1.v7.6.5br3.dir/App/driver/st7565.c.obj
 .data          0x00000000        0x0 CMakeFiles/n7six.ApeX-k1.v7.6.5br3.dir/App/driver/st7565.c.obj
 .bss           0x00000000        0x0 CMakeFiles/n7six.ApeX-k1.v7.6.5br3.dir/App/driver/st7565.c.obj
 .text          0x00000000        0x0 CMakeFiles/n7six.ApeX-k1.v7.6.5br3.dir/App/driver/system.c.obj
 .data          0x00000000        0x0 CMakeFiles/n7six.ApeX-k1.v7.6.5br3.dir/App/driver/system.c.obj
 .bss           0x00000000        0x0 CMakeFiles/n7six.ApeX-k1.v7.6.5br3.dir/App/driver/system.c.obj
 .text.SYSTEM_ConfigureClocks
                0x00000000        0x2 CMakeFiles/n7six.ApeX-k1.v7.6.5br3.dir/App/driver/system.c.obj
 .text          0x00000000        0x0 CMakeFiles/n7six.ApeX-k1.v7.6.5br3.dir/App/driver/systick.c.obj
 .data          0x00000000        0x0 CMakeFiles/n7six.ApeX-k1.v7.6.5br3.dir/App/driver/systick.c.obj
 .bss           0x00000000        0x0 CMakeFiles/n7six.ApeX-k1.v7.6.5br3.dir/App/driver/systick.c.obj
 .text          0x00000000        0x0 CMakeFiles/n7six.ApeX-k1.v7.6.5br3.dir/App/app/action.c.obj
 .data          0x00000000        0x0 CMakeFiles/n7six.ApeX-k1.v7.6.5br3.dir/App/app/action.c.obj
 .bss           0x00000000        0x0 CMakeFiles/n7six.ApeX-k1.v7.6.5br3.dir/App/app/action.c.obj
 .text          0x00000000        0x0 CMakeFiles/n7six.ApeX-k1.v7.6.5br3.dir/App/app/app.c.obj
 .data          0x00000000        0x0 CMakeFiles/n7six.ApeX-k1.v7.6.5br3.dir/App/app/app.c.obj
 .bss           0x00000000        0x0 CMakeFiles/n7six.ApeX-k1.v7.6.5br3.dir/App/app/app.c.obj
 .text          0x00000000        0x0 CMakeFiles/n7six.ApeX-k1.v7.6.5br3.dir/App/app/chFrScanner.c.obj
 .data          0x00000000        0x0 CMakeFiles/n7six.ApeX-k1.v7.6.5br3.dir/App/app/chFrScanner.c.obj
 .bss           0x00000000        0x0 CMakeFiles/n7six.ApeX-k1.v7.6.5br3.dir/App/app/chFrScanner.c.obj
 .text          0x00000000        0x0 CMakeFiles/n7six.ApeX-k1.v7.6.5br3.dir/App/app/common.c.obj
 .data          0x00000000        0x0 CMakeFiles/n7six.ApeX-k1.v7.6.5br3.dir/App/app/common.c.obj
 .bss           0x00000000        0x0 CMakeFiles/n7six.ApeX-k1.v7.6.5br3.dir/App/app/common.c.obj
 .text          0x00000000        0x0 CMakeFiles/n7six.ApeX-k1.v7.6.5br3.dir/App/app/dtmf.c.obj
 .data          0x00000000        0x0 CMakeFiles/n7six.ApeX-k1.v7.6.5br3.dir/App/app/dtmf.c.obj
 .bss           0x00000000        0x0 CMakeFiles/n7six.ApeX-k1.v7.6.5br3.dir/App/app/dtmf.c.obj
 .text          0x00000000        0x0 CMakeFiles/n7six.ApeX-k1.v7.6.5br3.dir/App/app/events.c.obj
 .data          0x00000000        0x0 CMakeFiles/n7six.ApeX-k1.v7.6.5br3.dir/App/app/events.c.obj
 .bss           0x00000000        0x0 CMakeFiles/n7six.ApeX-k1.v7.6.5br3.dir/App/app/events.c.obj
 .text.APP_UnsubscribeEvent
                0x00000000       0x54 CMakeFiles/n7six.ApeX-k1.v7.6.5br3.dir/App/app/events.c.obj
 .text.APP_RaiseEvent
                0x00000000       0x38 CMakeFiles/n7six.ApeX-k1.v7.6.5br3.dir/App/app/events.c.obj
 .text          0x00000000        0x0 CMakeFiles/n7six.ApeX-k1.v7.6.5br3.dir/App/app/events_handlers.c.obj
 .data          0x00000000        0x0 CMakeFiles/n7six.ApeX-k1.v7.6.5br3.dir/App/app/events_handlers.c.obj
 .bss           0x00000000        0x0 CMakeFiles/n7six.ApeX-k1.v7.6.5br3.dir/App/app/events_handlers.c.obj
 .text          0x00000000        0x0 CMakeFiles/n7six.ApeX-k1.v7.6.5br3.dir/App/app/generic.c.obj
 .data          0x00000000        0x0 CMakeFiles/n7six.ApeX-k1.v7.6.5br3.dir/App/app/generic.c.obj
 .bss           0x00000000        0x0 CMakeFiles/n7six.ApeX-k1.v7.6.5br3.dir/App/app/generic.c.obj
 .text          0x00000000        0x0 CMakeFiles/n7six.ApeX-k1.v7.6.5br3.dir/App/app/main.c.obj
 .data          0x00000000        0x0 CMakeFiles/n7six.ApeX-k1.v7.6.5br3.dir/App/app/main.c.obj
 .bss           0x00000000        0x0 CMakeFiles/n7six.ApeX-k1.v7.6.5br3.dir/App/app/main.c.obj
 .text          0x00000000        0x0 CMakeFiles/n7six.ApeX-k1.v7.6.5br3.dir/App/app/menu.c.obj
 .data          0x00000000        0x0 CMakeFiles/n7six.ApeX-k1.v7.6.5br3.dir/App/app/menu.c.obj
 .bss           0x00000000        0x0 CMakeFiles/n7six.ApeX-k1.v7.6.5br3.dir/App/app/menu.c.obj
 .text          0x00000000        0x0 CMakeFiles/n7six.ApeX-k1.v7.6.5br3.dir/App/app/scanner.c.obj
 .data          0x00000000        0x0 CMakeFiles/n7six.ApeX-k1.v7.6.5br3.dir/App/app/scanner.c.obj
 .bss           0x00000000        0x0 CMakeFiles/n7six.ApeX-k1.v7.6.5br3.dir/App/app/scanner.c.obj
 .text          0x00000000        0x0 CMakeFiles/n7six.ApeX-k1.v7.6.5br3.dir/App/audio.c.obj
 .data          0x00000000        0x0 CMakeFiles/n7six.ApeX-k1.v7.6.5br3.dir/App/audio.c.obj
 .bss           0x00000000        0x0 CMakeFiles/n7six.ApeX-k1.v7.6.5br3.dir/App/audio.c.obj
 .text          0x00000000        0x0 CMakeFiles/n7six.ApeX-k1.v7.6.5br3.dir/App/bitmaps.c.obj
 .data          0x00000000        0x0 CMakeFiles/n7six.ApeX-k1.v7.6.5br3.dir/App/bitmaps.c.obj
 .bss           0x00000000        0x0 CMakeFiles/n7six.ApeX-k1.v7.6.5br3.dir/App/bitmaps.c.obj
 .rodata.BITMAP_USB_C
                0x00000000        0x9 CMakeFiles/n7six.ApeX-k1.v7.6.5br3.dir/App/bitmaps.c.obj
 .text          0x00000000        0x0 CMakeFiles/n7six.ApeX-k1.v7.6.5br3.dir/App/board.c.obj
 .data          0x00000000        0x0 CMakeFiles/n7six.ApeX-k1.v7.6.5br3.dir/App/board.c.obj
 .bss           0x00000000        0x0 CMakeFiles/n7six.ApeX-k1.v7.6.5br3.dir/App/board.c.obj
 .text          0x00000000        0x0 CMakeFiles/n7six.ApeX-k1.v7.6.5br3.dir/App/dcs.c.obj
 .data          0x00000000        0x0 CMakeFiles/n7six.ApeX-k1.v7.6.5br3.dir/App/dcs.c.obj
 .bss           0x00000000        0x0 CMakeFiles/n7six.ApeX-k1.v7.6.5br3.dir/App/dcs.c.obj
 .text          0x00000000        0x0 CMakeFiles/n7six.ApeX-k1.v7.6.5br3.dir/App/font.c.obj
 .data          0x00000000        0x0 CMakeFiles/n7six.ApeX-k1.v7.6.5br3.dir/App/font.c.obj
 .bss           0x00000000        0x0 CMakeFiles/n7six.ApeX-k1.v7.6.5br3.dir/App/font.c.obj
 .text          0x00000000        0x0 CMakeFiles/n7six.ApeX-k1.v7.6.5br3.dir/App/frequencies.c.obj
 .data          0x00000000        0x0 CMakeFiles/n7six.ApeX-k1.v7.6.5br3.dir/App/frequencies.c.obj
 .bss           0x00000000        0x0 CMakeFiles/n7six.ApeX-k1.v7.6.5br3.dir/App/frequencies.c.obj
 .text          0x00000000        0x0 CMakeFiles/n7six.ApeX-k1.v7.6.5br3.dir/App/functions.c.obj
 .data          0x00000000        0x0 CMakeFiles/n7six.ApeX-k1.v7.6.5br3.dir/App/functions.c.obj
 .bss           0x00000000        0x0 CMakeFiles/n7six.ApeX-k1.v7.6.5br3.dir/App/functions.c.obj
 .text          0x00000000        0x0 CMakeFiles/n7six.ApeX-k1.v7.6.5br3.dir/App/helper/battery.c.obj
 .data          0x00000000        0x0 CMakeFiles/n7six.ApeX-k1.v7.6.5br3.dir/App/helper/battery.c.obj
 .bss           0x00000000        0x0 CMakeFiles/n7six.ApeX-k1.v7.6.5br3.dir/App/helper/battery.c.obj
 .rodata.lowBatteryPeriod
                0x00000000        0x2 CMakeFiles/n7six.ApeX-k1.v7.6.5br3.dir/App/helper/battery.c.obj
 .text          0x00000000        0x0 CMakeFiles/n7six.ApeX-k1.v7.6.5br3.dir/App/helper/boot.c.obj
 .data          0x00000000        0x0 CMakeFiles/n7six.ApeX-k1.v7.6.5br3.dir/App/helper/boot.c.obj
 .bss           0x00000000        0x0 CMakeFiles/n7six.ApeX-k1.v7.6.5br3.dir/App/helper/boot.c.obj
 .text          0x00000000        0x0 CMakeFiles/n7six.ApeX-k1.v7.6.5br3.dir/App/misc.c.obj
 .data          0x00000000        0x0 CMakeFiles/n7six.ApeX-k1.v7.6.5br3.dir/App/misc.c.obj
 .bss           0x00000000        0x0 CMakeFiles/n7six.ApeX-k1.v7.6.5br3.dir/App/misc.c.obj
 .bss.gVFO_RSSI
                0x00000000        0x4 CMakeFiles/n7six.ApeX-k1.v7.6.5br3.dir/App/misc.c.obj
 .bss.gTryCount
                0x00000000        0x1 CMakeFiles/n7six.ApeX-k1.v7.6.5br3.dir/App/misc.c.obj
 .rodata.gDefaultAesKey
                0x00000000       0x10 CMakeFiles/n7six.ApeX-k1.v7.6.5br3.dir/App/misc.c.obj
 .rodata.scan_pause_delay_in_7_10ms
                0x00000000        0x2 CMakeFiles/n7six.ApeX-k1.v7.6.5br3.dir/App/misc.c.obj
 .rodata.scan_pause_delay_in_6_10ms
                0x00000000        0x2 CMakeFiles/n7six.ApeX-k1.v7.6.5br3.dir/App/misc.c.obj
 .rodata.scan_pause_delay_in_4_10ms
                0x00000000        0x2 CMakeFiles/n7six.ApeX-k1.v7.6.5br3.dir/App/misc.c.obj
 .rodata.dual_watch_count_after_1_10ms
                0x00000000        0x2 CMakeFiles/n7six.ApeX-k1.v7.6.5br3.dir/App/misc.c.obj
 .text          0x00000000        0x0 CMakeFiles/n7six.ApeX-k1.v7.6.5br3.dir/App/radio.c.obj
 .data          0x00000000        0x0 CMakeFiles/n7six.ApeX-k1.v7.6.5br3.dir/App/radio.c.obj
 .bss           0x00000000        0x0 CMakeFiles/n7six.ApeX-k1.v7.6.5br3.dir/App/radio.c.obj
 .text.RADIO_PrepareCssTX
                0x00000000       0x24 CMakeFiles/n7six.ApeX-k1.v7.6.5br3.dir/App/radio.c.obj
 .text          0x00000000        0x0 CMakeFiles/n7six.ApeX-k1.v7.6.5br3.dir/App/scheduler.c.obj
 .data          0x00000000        0x0 CMakeFiles/n7six.ApeX-k1.v7.6.5br3.dir/App/scheduler.c.obj
 .bss           0x00000000        0x0 CMakeFiles/n7six.ApeX-k1.v7.6.5br3.dir/App/scheduler.c.obj
 .text          0x00000000        0x0 CMakeFiles/n7six.ApeX-k1.v7.6.5br3.dir/App/settings.c.obj
 .data          0x00000000        0x0 CMakeFiles/n7six.ApeX-k1.v7.6.5br3.dir/App/settings.c.obj
 .bss           0x00000000        0x0 CMakeFiles/n7six.ApeX-k1.v7.6.5br3.dir/App/settings.c.obj
 .text          0x00000000        0x0 CMakeFiles/n7six.ApeX-k1.v7.6.5br3.dir/App/ui/battery.c.obj
 .data          0x00000000        0x0 CMakeFiles/n7six.ApeX-k1.v7.6.5br3.dir/App/ui/battery.c.obj
 .bss           0x00000000        0x0 CMakeFiles/n7six.ApeX-k1.v7.6.5br3.dir/App/ui/battery.c.obj
 .text          0x00000000        0x0 CMakeFiles/n7six.ApeX-k1.v7.6.5br3.dir/App/ui/helper.c.obj
 .data          0x00000000        0x0 CMakeFiles/n7six.ApeX-k1.v7.6.5br3.dir/App/ui/helper.c.obj
 .bss           0x00000000        0x0 CMakeFiles/n7six.ApeX-k1.v7.6.5br3.dir/App/ui/helper.c.obj
 .text.UI_PrintStringSmallBufferBold
                0x00000000       0x10 CMakeFiles/n7six.ApeX-k1.v7.6.5br3.dir/App/ui/helper.c.obj
 .text          0x00000000        0x0 CMakeFiles/n7six.ApeX-k1.v7.6.5br3.dir/App/ui/inputbox.c.obj
 .data          0x00000000        0x0 CMakeFiles/n7six.ApeX-k1.v7.6.5br3.dir/App/ui/inputbox.c.obj
 .bss           0x00000000        0x0 CMakeFiles/n7six.ApeX-k1.v7.6.5br3.dir/App/ui/inputbox.c.obj
 .text          0x00000000        0x0 CMakeFiles/n7six.ApeX-k1.v7.6.5br3.dir/App/ui/main.c.obj
 .data          0x00000000        0x0 CMakeFiles/n7six.ApeX-k1.v7.6.5br3.dir/App/ui/main.c.obj
 .bss           0x00000000        0x0 CMakeFiles/n7six.ApeX-k1.v7.6.5br3.dir/App/ui/main.c.obj
 .text          0x00000000        0x0 CMakeFiles/n7six.ApeX-k1.v7.6.5br3.dir/App/ui/menu.c.obj
 .data          0x00000000        0x0 CMakeFiles/n7six.ApeX-k1.v7.6.5br3.dir/App/ui/menu.c.obj
 .bss           0x00000000        0x0 CMakeFiles/n7six.ApeX-k1.v7.6.5br3.dir/App/ui/menu.c.obj
 .rodata.gSubMenu_NA
                0x00000000        0x4 CMakeFiles/n7six.ApeX-k1.v7.6.5br3.dir/App/ui/menu.c.obj
 .text          0x00000000        0x0 CMakeFiles/n7six.ApeX-k1.v7.6.5br3.dir/App/ui/scanner.c.obj
 .data          0x00000000        0x0 CMakeFiles/n7six.ApeX-k1.v7.6.5br3.dir/App/ui/scanner.c.obj
 .bss           0x00000000        0x0 CMakeFiles/n7six.ApeX-k1.v7.6.5br3.dir/App/ui/scanner.c.obj
 .text          0x00000000        0x0 CMakeFiles/n7six.ApeX-k1.v7.6.5br3.dir/App/ui/status.c.obj
 .data          0x00000000        0x0 CMakeFiles/n7six.ApeX-k1.v7.6.5br3.dir/App/ui/status.c.obj
 .bss           0x00000000        0x0 CMakeFiles/n7six.ApeX-k1.v7.6.5br3.dir/App/ui/status.c.obj
 .text          0x00000000        0x0 CMakeFiles/n7six.ApeX-k1.v7.6.5br3.dir/App/ui/ui.c.obj
 .data          0x00000000        0x0 CMakeFiles/n7six.ApeX-k1.v7.6.5br3.dir/App/ui/ui.c.obj
 .bss           0x00000000        0x0 CMakeFiles/n7six.ApeX-k1.v7.6.5br3.dir/App/ui/ui.c.obj
 .text          0x00000000        0x0 CMakeFiles/n7six.ApeX-k1.v7.6.5br3.dir/App/ui/welcome.c.obj
 .data          0x00000000        0x0 CMakeFiles/n7six.ApeX-k1.v7.6.5br3.dir/App/ui/welcome.c.obj
 .bss           0x00000000        0x0 CMakeFiles/n7six.ApeX-k1.v7.6.5br3.dir/App/ui/welcome.c.obj
 .text          0x00000000        0x0 CMakeFiles/n7six.ApeX-k1.v7.6.5br3.dir/App/version.c.obj
 .data          0x00000000        0x0 CMakeFiles/n7six.ApeX-k1.v7.6.5br3.dir/App/version.c.obj
 .bss           0x00000000        0x0 CMakeFiles/n7six.ApeX-k1.v7.6.5br3.dir/App/version.c.obj
 .text          0x00000000        0x0 CMakeFiles/n7six.ApeX-k1.v7.6.5br3.dir/App/main.c.obj
 .data          0x00000000        0x0 CMakeFiles/n7six.ApeX-k1.v7.6.5br3.dir/App/main.c.obj
 .bss           0x00000000        0x0 CMakeFiles/n7six.ApeX-k1.v7.6.5br3.dir/App/main.c.obj
 .text._putchar
                0x00000000       0x12 CMakeFiles/n7six.ApeX-k1.v7.6.5br3.dir/App/main.c.obj
 .text          0x00000000        0x0 CMakeFiles/n7six.ApeX-k1.v7.6.5br3.dir/App/external/printf/printf.c.obj
 .data          0x00000000        0x0 CMakeFiles/n7six.ApeX-k1.v7.6.5br3.dir/App/external/printf/printf.c.obj
 .bss           0x00000000        0x0 CMakeFiles/n7six.ApeX-k1.v7.6.5br3.dir/App/external/printf/printf.c.obj
 .text._out_char
                0x00000000        0xc CMakeFiles/n7six.ApeX-k1.v7.6.5br3.dir/App/external/printf/printf.c.obj
 .text._out_fct
                0x00000000        0xe CMakeFiles/n7six.ApeX-k1.v7.6.5br3.dir/App/external/printf/printf.c.obj
 .text.printf_  0x00000000       0x24 CMakeFiles/n7six.ApeX-k1.v7.6.5br3.dir/App/external/printf/printf.c.obj
 .text.snprintf_
                0x00000000       0x28 CMakeFiles/n7six.ApeX-k1.v7.6.5br3.dir/App/external/printf/printf.c.obj
 .text.vprintf_
                0x00000000       0x1c CMakeFiles/n7six.ApeX-k1.v7.6.5br3.dir/App/external/printf/printf.c.obj
 .text.vsnprintf_
                0x00000000       0x18 CMakeFiles/n7six.ApeX-k1.v7.6.5br3.dir/App/external/printf/printf.c.obj
 .text.fctprintf
                0x00000000       0x2c CMakeFiles/n7six.ApeX-k1.v7.6.5br3.dir/App/external/printf/printf.c.obj
 .text          0x00000000        0x0 CMakeFiles/n7six.ApeX-k1.v7.6.5br3.dir/App/driver/crc.c.obj
 .data          0x00000000        0x0 CMakeFiles/n7six.ApeX-k1.v7.6.5br3.dir/App/driver/crc.c.obj
 .bss           0x00000000        0x0 CMakeFiles/n7six.ApeX-k1.v7.6.5br3.dir/App/driver/crc.c.obj
 .text          0x00000000        0x0 CMakeFiles/n7six.ApeX-k1.v7.6.5br3.dir/App/driver/eeprom_compat.c.obj
 .data          0x00000000        0x0 CMakeFiles/n7six.ApeX-k1.v7.6.5br3.dir/App/driver/eeprom_compat.c.obj
 .bss           0x00000000        0x0 CMakeFiles/n7six.ApeX-k1.v7.6.5br3.dir/App/driver/eeprom_compat.c.obj
 .text          0x00000000        0x0 CMakeFiles/n7six.ApeX-k1.v7.6.5br3.dir/App/driver/uart.c.obj
 .data          0x00000000        0x0 CMakeFiles/n7six.ApeX-k1.v7.6.5br3.dir/App/driver/uart.c.obj
 .bss           0x00000000        0x0 CMakeFiles/n7six.ApeX-k1.v7.6.5br3.dir/App/driver/uart.c.obj
 .text.UART_LogSend
                0x00000000        0x2 CMakeFiles/n7six.ApeX-k1.v7.6.5br3.dir/App/driver/uart.c.obj
 .text          0x00000000        0x0 CMakeFiles/n7six.ApeX-k1.v7.6.5br3.dir/App/app/uart.c.obj
 .data          0x00000000        0x0 CMakeFiles/n7six.ApeX-k1.v7.6.5br3.dir/App/app/uart.c.obj
 .bss           0x00000000        0x0 CMakeFiles/n7six.ApeX-k1.v7.6.5br3.dir/App/app/uart.c.obj
 .text          0x00000000        0x0 CMakeFiles/n7six.ApeX-k1.v7.6.5br3.dir/App/driver/vcp.c.obj
 .data          0x00000000        0x0 CMakeFiles/n7six.ApeX-k1.v7.6.5br3.dir/App/driver/vcp.c.obj
 .bss           0x00000000        0x0 CMakeFiles/n7six.ApeX-k1.v7.6.5br3.dir/App/driver/vcp.c.obj
 .text          0x00000000        0x0 CMakeFiles/n7six.ApeX-k1.v7.6.5br3.dir/App/usb/usbd_cdc_if.c.obj
 .data          0x00000000        0x0 CMakeFiles/n7six.ApeX-k1.v7.6.5br3.dir/App/usb/usbd_cdc_if.c.obj
 .bss           0x00000000        0x0 CMakeFiles/n7six.ApeX-k1.v7.6.5br3.dir/App/usb/usbd_cdc_if.c.obj
 .text.cdc_acm_data_send_with_dtr
                0x00000000       0x30 CMakeFiles/n7six.ApeX-k1.v7.6.5br3.dir/App/usb/usbd_cdc_if.c.obj
 .data.dma_out_ep_idx
                0x00000000        0x1 CMakeFiles/n7six.ApeX-k1.v7.6.5br3.dir/App/usb/usbd_cdc_if.c.obj
 .data.dma_in_ep_idx
                0x00000000        0x1 CMakeFiles/n7six.ApeX-k1.v7.6.5br3.dir/App/usb/usbd_cdc_if.c.obj
 .text          0x00000000        0x0 CMakeFiles/n7six.ApeX-k1.v7.6.5br3.dir/App/driver/bk1080.c.obj
 .data          0x00000000        0x0 CMakeFiles/n7six.ApeX-k1.v7.6.5br3.dir/App/driver/bk1080.c.obj
 .bss           0x00000000        0x0 CMakeFiles/n7six.ApeX-k1.v7.6.5br3.dir/App/driver/bk1080.c.obj
 .text          0x00000000        0x0 CMakeFiles/n7six.ApeX-k1.v7.6.5br3.dir/App/app/fm.c.obj
 .data          0x00000000        0x0 CMakeFiles/n7six.ApeX-k1.v7.6.5br3.dir/App/app/fm.c.obj
 .bss           0x00000000        0x0 CMakeFiles/n7six.ApeX-k1.v7.6.5br3.dir/App/app/fm.c.obj
 .rodata.BUTTON_EVENT_LONG
                0x00000000        0x1 CMakeFiles/n7six.ApeX-k1.v7.6.5br3.dir/App/app/fm.c.obj
 .rodata.BUTTON_EVENT_SHORT
                0x00000000        0x1 CMakeFiles/n7six.ApeX-k1.v7.6.5br3.dir/App/app/fm.c.obj
 .rodata.BUTTON_EVENT_HELD
                0x00000000        0x1 CMakeFiles/n7six.ApeX-k1.v7.6.5br3.dir/App/app/fm.c.obj
 .rodata.BUTTON_EVENT_PRESSED
                0x00000000        0x1 CMakeFiles/n7six.ApeX-k1.v7.6.5br3.dir/App/app/fm.c.obj
 .rodata.BUTTON_STATE_HELD
                0x00000000        0x1 CMakeFiles/n7six.ApeX-k1.v7.6.5br3.dir/App/app/fm.c.obj
 .rodata.BUTTON_STATE_PRESSED
                0x00000000        0x1 CMakeFiles/n7six.ApeX-k1.v7.6.5br3.dir/App/app/fm.c.obj
 .text          0x00000000        0x0 CMakeFiles/n7six.ApeX-k1.v7.6.5br3.dir/App/ui/fmradio.c.obj
 .data          0x00000000        0x0 CMakeFiles/n7six.ApeX-k1.v7.6.5br3.dir/App/ui/fmradio.c.obj
 .bss           0x00000000        0x0 CMakeFiles/n7six.ApeX-k1.v7.6.5br3.dir/App/ui/fmradio.c.obj
 .text          0x00000000        0x0 CMakeFiles/n7six.ApeX-k1.v7.6.5br3.dir/App/app/aircopy.c.obj
 .data          0x00000000        0x0 CMakeFiles/n7six.ApeX-k1.v7.6.5br3.dir/App/app/aircopy.c.obj
 .bss           0x00000000        0x0 CMakeFiles/n7six.ApeX-k1.v7.6.5br3.dir/App/app/aircopy.c.obj
 .text          0x00000000        0x0 CMakeFiles/n7six.ApeX-k1.v7.6.5br3.dir/App/ui/aircopy.c.obj
 .data          0x00000000        0x0 CMakeFiles/n7six.ApeX-k1.v7.6.5br3.dir/App/ui/aircopy.c.obj
 .bss           0x00000000        0x0 CMakeFiles/n7six.ApeX-k1.v7.6.5br3.dir/App/ui/aircopy.c.obj
 .text          0x00000000        0x0 CMakeFiles/n7six.ApeX-k1.v7.6.5br3.dir/App/app/flashlight.c.obj
 .data          0x00000000        0x0 CMakeFiles/n7six.ApeX-k1.v7.6.5br3.dir/App/app/flashlight.c.obj
 .bss           0x00000000        0x0 CMakeFiles/n7six.ApeX-k1.v7.6.5br3.dir/App/app/flashlight.c.obj
 .text          0x00000000        0x0 CMakeFiles/n7six.ApeX-k1.v7.6.5br3.dir/App/app/spectrum.c.obj
 .data          0x00000000        0x0 CMakeFiles/n7six.ApeX-k1.v7.6.5br3.dir/App/app/spectrum.c.obj
 .bss           0x00000000        0x0 CMakeFiles/n7six.ApeX-k1.v7.6.5br3.dir/App/app/spectrum.c.obj
 .text.IsCenterMode
                0x00000000       0x14 CMakeFiles/n7six.ApeX-k1.v7.6.5br3.dir/App/app/spectrum.c.obj
 .text.GetBWRegValueForScan
                0x00000000       0x14 CMakeFiles/n7six.ApeX-k1.v7.6.5br3.dir/App/app/spectrum.c.obj
 .rodata.modTypeReg47Values
                0x00000000        0x3 CMakeFiles/n7six.ApeX-k1.v7.6.5br3.dir/App/app/spectrum.c.obj
 .bss.waterfallUpdateCounter
                0x00000000        0x2 CMakeFiles/n7six.ApeX-k1.v7.6.5br3.dir/App/app/spectrum.c.obj
 .rodata.scanStepBWRegValues
                0x00000000       0x18 CMakeFiles/n7six.ApeX-k1.v7.6.5br3.dir/App/app/spectrum.c.obj
 .text          0x00000000        0x0 CMakeFiles/n7six.ApeX-k1.v7.6.5br3.dir/App/screenshot.c.obj
 .data          0x00000000        0x0 CMakeFiles/n7six.ApeX-k1.v7.6.5br3.dir/App/screenshot.c.obj
 .bss           0x00000000        0x0 CMakeFiles/n7six.ApeX-k1.v7.6.5br3.dir/App/screenshot.c.obj
 .text          0x00000000        0x0 CMakeFiles/n7six.ApeX-k1.v7.6.5br3.dir/Middlewares/CherryUSB/core/usbd_core.c.obj
 .data          0x00000000        0x0 CMakeFiles/n7six.ApeX-k1.v7.6.5br3.dir/Middlewares/CherryUSB/core/usbd_core.c.obj
 .bss           0x00000000        0x0 CMakeFiles/n7six.ApeX-k1.v7.6.5br3.dir/Middlewares/CherryUSB/core/usbd_core.c.obj
 .text.usbd_event_connect_handler
                0x00000000        0xc CMakeFiles/n7six.ApeX-k1.v7.6.5br3.dir/Middlewares/CherryUSB/core/usbd_core.c.obj
 .text.usbd_event_disconnect_handler
                0x00000000        0xc CMakeFiles/n7six.ApeX-k1.v7.6.5br3.dir/Middlewares/CherryUSB/core/usbd_core.c.obj
 .text.usbd_msosv1_desc_register
                0x00000000        0xc CMakeFiles/n7six.ApeX-k1.v7.6.5br3.dir/Middlewares/CherryUSB/core/usbd_core.c.obj
 .text.usbd_msosv2_desc_register
                0x00000000        0xc CMakeFiles/n7six.ApeX-k1.v7.6.5br3.dir/Middlewares/CherryUSB/core/usbd_core.c.obj
 .text.usbd_bos_desc_register
                0x00000000        0xc CMakeFiles/n7six.ApeX-k1.v7.6.5br3.dir/Middlewares/CherryUSB/core/usbd_core.c.obj
 .text.usb_device_is_configured
                0x00000000       0x10 CMakeFiles/n7six.ApeX-k1.v7.6.5br3.dir/Middlewares/CherryUSB/core/usbd_core.c.obj
 .text.usbd_deinitialize
                0x00000000       0x20 CMakeFiles/n7six.ApeX-k1.v7.6.5br3.dir/Middlewares/CherryUSB/core/usbd_core.c.obj
 .text          0x00000000        0x0 CMakeFiles/n7six.ApeX-k1.v7.6.5br3.dir/Middlewares/CherryUSB/port/usb_dc_py32.c.obj
 .data          0x00000000        0x0 CMakeFiles/n7six.ApeX-k1.v7.6.5br3.dir/Middlewares/CherryUSB/port/usb_dc_py32.c.obj
 .bss           0x00000000        0x0 CMakeFiles/n7six.ApeX-k1.v7.6.5br3.dir/Middlewares/CherryUSB/port/usb_dc_py32.c.obj
 .text.usbd_ep0_reset_zlp_flag
                0x00000000        0xc CMakeFiles/n7six.ApeX-k1.v7.6.5br3.dir/Middlewares/CherryUSB/port/usb_dc_py32.c.obj
 .text.usb_dc_low_level_deinit
                0x00000000        0x2 CMakeFiles/n7six.ApeX-k1.v7.6.5br3.dir/Middlewares/CherryUSB/port/usb_dc_py32.c.obj
 .text.usb_dc_deinit
                0x00000000        0x4 CMakeFiles/n7six.ApeX-k1.v7.6.5br3.dir/Middlewares/CherryUSB/port/usb_dc_py32.c.obj
 .text.usbd_activateremotewakeup
                0x00000000       0x10 CMakeFiles/n7six.ApeX-k1.v7.6.5br3.dir/Middlewares/CherryUSB/port/usb_dc_py32.c.obj
 .text.usbd_deactivateremotewakeup
                0x00000000       0x10 CMakeFiles/n7six.ApeX-k1.v7.6.5br3.dir/Middlewares/CherryUSB/port/usb_dc_py32.c.obj
 .text          0x00000000        0x0 CMakeFiles/n7six.ApeX-k1.v7.6.5br3.dir/Middlewares/CherryUSB/class/cdc/usbd_cdc.c.obj
 .data          0x00000000        0x0 CMakeFiles/n7six.ApeX-k1.v7.6.5br3.dir/Middlewares/CherryUSB/class/cdc/usbd_cdc.c.obj
 .bss           0x00000000        0x0 CMakeFiles/n7six.ApeX-k1.v7.6.5br3.dir/Middlewares/CherryUSB/class/cdc/usbd_cdc.c.obj
 .text.usbd_cdc_acm_set_dtr
                0x00000000        0x2 CMakeFiles/n7six.ApeX-k1.v7.6.5br3.dir/Middlewares/CherryUSB/class/cdc/usbd_cdc.c.obj
 .rodata.str1.1
                0x00000000       0x12 CMakeFiles/n7six.ApeX-k1.v7.6.5br3.dir/Middlewares/CherryUSB/class/cdc/usbd_cdc.c.obj
 .data.parity_name
                0x00000000       0x14 CMakeFiles/n7six.ApeX-k1.v7.6.5br3.dir/Middlewares/CherryUSB/class/cdc/usbd_cdc.c.obj
 .data.stop_name
                0x00000000        0xc CMakeFiles/n7six.ApeX-k1.v7.6.5br3.dir/Middlewares/CherryUSB/class/cdc/usbd_cdc.c.obj
 .data          0x00000000        0x0 /opt/toolchain/bin/../lib/gcc/arm-none-eabi/13.3.1/thumb/v6-m/nofp/libgcc.a(_thumb1_case_sqi.o)
 .bss           0x00000000        0x0 /opt/toolchain/bin/../lib/gcc/arm-none-eabi/13.3.1/thumb/v6-m/nofp/libgcc.a(_thumb1_case_sqi.o)
 .data          0x00000000        0x0 /opt/toolchain/bin/../lib/gcc/arm-none-eabi/13.3.1/thumb/v6-m/nofp/libgcc.a(_thumb1_case_uqi.o)
 .bss           0x00000000        0x0 /opt/toolchain/bin/../lib/gcc/arm-none-eabi/13.3.1/thumb/v6-m/nofp/libgcc.a(_thumb1_case_uqi.o)
 .data          0x00000000        0x0 /opt/toolchain/bin/../lib/gcc/arm-none-eabi/13.3.1/thumb/v6-m/nofp/libgcc.a(_thumb1_case_shi.o)
 .bss           0x00000000        0x0 /opt/toolchain/bin/../lib/gcc/arm-none-eabi/13.3.1/thumb/v6-m/nofp/libgcc.a(_thumb1_case_shi.o)
 .data          0x00000000        0x0 /opt/toolchain/bin/../lib/gcc/arm-none-eabi/13.3.1/thumb/v6-m/nofp/libgcc.a(_thumb1_case_uhi.o)
 .bss           0x00000000        0x0 /opt/toolchain/bin/../lib/gcc/arm-none-eabi/13.3.1/thumb/v6-m/nofp/libgcc.a(_thumb1_case_uhi.o)
 .data          0x00000000        0x0 /opt/toolchain/bin/../lib/gcc/arm-none-eabi/13.3.1/thumb/v6-m/nofp/libgcc.a(_udivsi3.o)
 .bss           0x00000000        0x0 /opt/toolchain/bin/../lib/gcc/arm-none-eabi/13.3.1/thumb/v6-m/nofp/libgcc.a(_udivsi3.o)
 .data          0x00000000        0x0 /opt/toolchain/bin/../lib/gcc/arm-none-eabi/13.3.1/thumb/v6-m/nofp/libgcc.a(_divsi3.o)
 .bss           0x00000000        0x0 /opt/toolchain/bin/../lib/gcc/arm-none-eabi/13.3.1/thumb/v6-m/nofp/libgcc.a(_divsi3.o)
 .data          0x00000000        0x0 /opt/toolchain/bin/../lib/gcc/arm-none-eabi/13.3.1/thumb/v6-m/nofp/libgcc.a(_dvmd_tls.o)
 .bss           0x00000000        0x0 /opt/toolchain/bin/../lib/gcc/arm-none-eabi/13.3.1/thumb/v6-m/nofp/libgcc.a(_dvmd_tls.o)
 .data          0x00000000        0x0 /opt/toolchain/bin/../lib/gcc/arm-none-eabi/13.3.1/thumb/v6-m/nofp/libgcc.a(_clzsi2.o)
 .bss           0x00000000        0x0 /opt/toolchain/bin/../lib/gcc/arm-none-eabi/13.3.1/thumb/v6-m/nofp/libgcc.a(_clzsi2.o)
 .text          0x00000000        0x0 /opt/toolchain/bin/../lib/gcc/arm-none-eabi/13.3.1/thumb/v6-m/nofp/libgcc.a(_muldi3.o)
 .data          0x00000000        0x0 /opt/toolchain/bin/../lib/gcc/arm-none-eabi/13.3.1/thumb/v6-m/nofp/libgcc.a(_muldi3.o)
 .bss           0x00000000        0x0 /opt/toolchain/bin/../lib/gcc/arm-none-eabi/13.3.1/thumb/v6-m/nofp/libgcc.a(_muldi3.o)
 .text          0x00000000        0x0 /opt/toolchain/bin/../lib/gcc/arm-none-eabi/13.3.1/../../../../arm-none-eabi/lib/thumb/v6-m/nofp/libg_nano.a(libc_a-exit.o)
 .data          0x00000000        0x0 /opt/toolchain/bin/../lib/gcc/arm-none-eabi/13.3.1/../../../../arm-none-eabi/lib/thumb/v6-m/nofp/libg_nano.a(libc_a-exit.o)
 .bss           0x00000000        0x0 /opt/toolchain/bin/../lib/gcc/arm-none-eabi/13.3.1/../../../../arm-none-eabi/lib/thumb/v6-m/nofp/libg_nano.a(libc_a-exit.o)
 .text.exit     0x00000000       0x28 /opt/toolchain/bin/../lib/gcc/arm-none-eabi/13.3.1/../../../../arm-none-eabi/lib/thumb/v6-m/nofp/libg_nano.a(libc_a-exit.o)
 .debug_frame   0x00000000       0x28 /opt/toolchain/bin/../lib/gcc/arm-none-eabi/13.3.1/../../../../arm-none-eabi/lib/thumb/v6-m/nofp/libg_nano.a(libc_a-exit.o)
 .ARM.attributes
                0x00000000       0x2c /opt/toolchain/bin/../lib/gcc/arm-none-eabi/13.3.1/../../../../arm-none-eabi/lib/thumb/v6-m/nofp/libg_nano.a(libc_a-exit.o)
 .text          0x00000000        0x0 /opt/toolchain/bin/../lib/gcc/arm-none-eabi/13.3.1/../../../../arm-none-eabi/lib/thumb/v6-m/nofp/libg_nano.a(libc_a-init.o)
 .data          0x00000000        0x0 /opt/toolchain/bin/../lib/gcc/arm-none-eabi/13.3.1/../../../../arm-none-eabi/lib/thumb/v6-m/nofp/libg_nano.a(libc_a-init.o)
 .bss           0x00000000        0x0 /opt/toolchain/bin/../lib/gcc/arm-none-eabi/13.3.1/../../../../arm-none-eabi/lib/thumb/v6-m/nofp/libg_nano.a(libc_a-init.o)
 .text          0x00000000        0x0 /opt/toolchain/bin/../lib/gcc/arm-none-eabi/13.3.1/../../../../arm-none-eabi/lib/thumb/v6-m/nofp/libg_nano.a(libc_a-memmove.o)
 .data          0x00000000        0x0 /opt/toolchain/bin/../lib/gcc/arm-none-eabi/13.3.1/../../../../arm-none-eabi/lib/thumb/v6-m/nofp/libg_nano.a(libc_a-memmove.o)
 .bss           0x00000000        0x0 /opt/toolchain/bin/../lib/gcc/arm-none-eabi/13.3.1/../../../../arm-none-eabi/lib/thumb/v6-m/nofp/libg_nano.a(libc_a-memmove.o)
 .text          0x00000000        0x0 /opt/toolchain/bin/../lib/gcc/arm-none-eabi/13.3.1/../../../../arm-none-eabi/lib/thumb/v6-m/nofp/libg_nano.a(libc_a-memset.o)
 .data          0x00000000        0x0 /opt/toolchain/bin/../lib/gcc/arm-none-eabi/13.3.1/../../../../arm-none-eabi/lib/thumb/v6-m/nofp/libg_nano.a(libc_a-memset.o)
 .bss           0x00000000        0x0 /opt/toolchain/bin/../lib/gcc/arm-none-eabi/13.3.1/../../../../arm-none-eabi/lib/thumb/v6-m/nofp/libg_nano.a(libc_a-memset.o)
 .text          0x00000000        0x0 /opt/toolchain/bin/../lib/gcc/arm-none-eabi/13.3.1/../../../../arm-none-eabi/lib/thumb/v6-m/nofp/libg_nano.a(libc_a-memcpy-stub.o)
 .data          0x00000000        0x0 /opt/toolchain/bin/../lib/gcc/arm-none-eabi/13.3.1/../../../../arm-none-eabi/lib/thumb/v6-m/nofp/libg_nano.a(libc_a-memcpy-stub.o)
 .bss           0x00000000        0x0 /opt/toolchain/bin/../lib/gcc/arm-none-eabi/13.3.1/../../../../arm-none-eabi/lib/thumb/v6-m/nofp/libg_nano.a(libc_a-memcpy-stub.o)
 .data          0x00000000        0x0 /opt/toolchain/bin/../lib/gcc/arm-none-eabi/13.3.1/../../../../arm-none-eabi/lib/thumb/v6-m/nofp/libg_nano.a(libc_a-strlen.o)
 .bss           0x00000000        0x0 /opt/toolchain/bin/../lib/gcc/arm-none-eabi/13.3.1/../../../../arm-none-eabi/lib/thumb/v6-m/nofp/libg_nano.a(libc_a-strlen.o)
 .text          0x00000000        0x0 /opt/toolchain/bin/../lib/gcc/arm-none-eabi/13.3.1/../../../../arm-none-eabi/lib/thumb/v6-m/nofp/libg_nano.a(libc_a-findfp.o)
 .data          0x00000000        0x0 /opt/toolchain/bin/../lib/gcc/arm-none-eabi/13.3.1/../../../../arm-none-eabi/lib/thumb/v6-m/nofp/libg_nano.a(libc_a-findfp.o)
 .bss           0x00000000        0x0 /opt/toolchain/bin/../lib/gcc/arm-none-eabi/13.3.1/../../../../arm-none-eabi/lib/thumb/v6-m/nofp/libg_nano.a(libc_a-findfp.o)
 .text.std      0x00000000       0x6c /opt/toolchain/bin/../lib/gcc/arm-none-eabi/13.3.1/../../../../arm-none-eabi/lib/thumb/v6-m/nofp/libg_nano.a(libc_a-findfp.o)
 .text.stdio_exit_handler
                0x00000000       0x1c /opt/toolchain/bin/../lib/gcc/arm-none-eabi/13.3.1/../../../../arm-none-eabi/lib/thumb/v6-m/nofp/libg_nano.a(libc_a-findfp.o)
 .text.cleanup_stdio
                0x00000000       0x3c /opt/toolchain/bin/../lib/gcc/arm-none-eabi/13.3.1/../../../../arm-none-eabi/lib/thumb/v6-m/nofp/libg_nano.a(libc_a-findfp.o)
 .text.__fp_lock
                0x00000000       0x18 /opt/toolchain/bin/../lib/gcc/arm-none-eabi/13.3.1/../../../../arm-none-eabi/lib/thumb/v6-m/nofp/libg_nano.a(libc_a-findfp.o)
 .text.__fp_unlock
                0x00000000       0x18 /opt/toolchain/bin/../lib/gcc/arm-none-eabi/13.3.1/../../../../arm-none-eabi/lib/thumb/v6-m/nofp/libg_nano.a(libc_a-findfp.o)
 .text.global_stdio_init.part.0
                0x00000000       0x3c /opt/toolchain/bin/../lib/gcc/arm-none-eabi/13.3.1/../../../../arm-none-eabi/lib/thumb/v6-m/nofp/libg_nano.a(libc_a-findfp.o)
 .text.__sfp_lock_acquire
                0x00000000       0x10 /opt/toolchain/bin/../lib/gcc/arm-none-eabi/13.3.1/../../../../arm-none-eabi/lib/thumb/v6-m/nofp/libg_nano.a(libc_a-findfp.o)
 .text.__sfp_lock_release
                0x00000000       0x10 /opt/toolchain/bin/../lib/gcc/arm-none-eabi/13.3.1/../../../../arm-none-eabi/lib/thumb/v6-m/nofp/libg_nano.a(libc_a-findfp.o)
 .text.__sfp    0x00000000       0xa8 /opt/toolchain/bin/../lib/gcc/arm-none-eabi/13.3.1/../../../../arm-none-eabi/lib/thumb/v6-m/nofp/libg_nano.a(libc_a-findfp.o)
 .text.__sinit  0x00000000       0x30 /opt/toolchain/bin/../lib/gcc/arm-none-eabi/13.3.1/../../../../arm-none-eabi/lib/thumb/v6-m/nofp/libg_nano.a(libc_a-findfp.o)
 .text.__fp_lock_all
                0x00000000       0x1c /opt/toolchain/bin/../lib/gcc/arm-none-eabi/13.3.1/../../../../arm-none-eabi/lib/thumb/v6-m/nofp/libg_nano.a(libc_a-findfp.o)
 .text.__fp_unlock_all
                0x00000000       0x1c /opt/toolchain/bin/../lib/gcc/arm-none-eabi/13.3.1/../../../../arm-none-eabi/lib/thumb/v6-m/nofp/libg_nano.a(libc_a-findfp.o)
 .data.__sglue  0x00000000        0xc /opt/toolchain/bin/../lib/gcc/arm-none-eabi/13.3.1/../../../../arm-none-eabi/lib/thumb/v6-m/nofp/libg_nano.a(libc_a-findfp.o)
 .bss.__sf      0x00000000      0x138 /opt/toolchain/bin/../lib/gcc/arm-none-eabi/13.3.1/../../../../arm-none-eabi/lib/thumb/v6-m/nofp/libg_nano.a(libc_a-findfp.o)
 .bss.__stdio_exit_handler
                0x00000000        0x4 /opt/toolchain/bin/../lib/gcc/arm-none-eabi/13.3.1/../../../../arm-none-eabi/lib/thumb/v6-m/nofp/libg_nano.a(libc_a-findfp.o)
 .debug_frame   0x00000000      0x138 /opt/toolchain/bin/../lib/gcc/arm-none-eabi/13.3.1/../../../../arm-none-eabi/lib/thumb/v6-m/nofp/libg_nano.a(libc_a-findfp.o)
 .ARM.attributes
                0x00000000       0x2c /opt/toolchain/bin/../lib/gcc/arm-none-eabi/13.3.1/../../../../arm-none-eabi/lib/thumb/v6-m/nofp/libg_nano.a(libc_a-findfp.o)
 .text          0x00000000        0x0 /opt/toolchain/bin/../lib/gcc/arm-none-eabi/13.3.1/../../../../arm-none-eabi/lib/thumb/v6-m/nofp/libg_nano.a(libc_a-strncpy.o)
 .data          0x00000000        0x0 /opt/toolchain/bin/../lib/gcc/arm-none-eabi/13.3.1/../../../../arm-none-eabi/lib/thumb/v6-m/nofp/libg_nano.a(libc_a-strncpy.o)
 .bss           0x00000000        0x0 /opt/toolchain/bin/../lib/gcc/arm-none-eabi/13.3.1/../../../../arm-none-eabi/lib/thumb/v6-m/nofp/libg_nano.a(libc_a-strncpy.o)
 .text          0x00000000        0x0 /opt/toolchain/bin/../lib/gcc/arm-none-eabi/13.3.1/../../../../arm-none-eabi/lib/thumb/v6-m/nofp/libg_nano.a(libc_a-strnlen.o)
 .data          0x00000000        0x0 /opt/toolchain/bin/../lib/gcc/arm-none-eabi/13.3.1/../../../../arm-none-eabi/lib/thumb/v6-m/nofp/libg_nano.a(libc_a-strnlen.o)
 .bss           0x00000000        0x0 /opt/toolchain/bin/../lib/gcc/arm-none-eabi/13.3.1/../../../../arm-none-eabi/lib/thumb/v6-m/nofp/libg_nano.a(libc_a-strnlen.o)
 .text          0x00000000        0x0 /opt/toolchain/bin/../lib/gcc/arm-none-eabi/13.3.1/../../../../arm-none-eabi/lib/thumb/v6-m/nofp/libg_nano.a(libc_a-stdio.o)
 .data          0x00000000        0x0 /opt/toolchain/bin/../lib/gcc/arm-none-eabi/13.3.1/../../../../arm-none-eabi/lib/thumb/v6-m/nofp/libg_nano.a(libc_a-stdio.o)
 .bss           0x00000000        0x0 /opt/toolchain/bin/../lib/gcc/arm-none-eabi/13.3.1/../../../../arm-none-eabi/lib/thumb/v6-m/nofp/libg_nano.a(libc_a-stdio.o)
 .text.__sread  0x00000000       0x28 /opt/toolchain/bin/../lib/gcc/arm-none-eabi/13.3.1/../../../../arm-none-eabi/lib/thumb/v6-m/nofp/libg_nano.a(libc_a-stdio.o)
 .text.__seofread
                0x00000000        0x4 /opt/toolchain/bin/../lib/gcc/arm-none-eabi/13.3.1/../../../../arm-none-eabi/lib/thumb/v6-m/nofp/libg_nano.a(libc_a-stdio.o)
 .text.__swrite
                0x00000000       0x38 /opt/toolchain/bin/../lib/gcc/arm-none-eabi/13.3.1/../../../../arm-none-eabi/lib/thumb/v6-m/nofp/libg_nano.a(libc_a-stdio.o)
 .text.__sseek  0x00000000       0x2c /opt/toolchain/bin/../lib/gcc/arm-none-eabi/13.3.1/../../../../arm-none-eabi/lib/thumb/v6-m/nofp/libg_nano.a(libc_a-stdio.o)
 .text.__sclose
                0x00000000        0xc /opt/toolchain/bin/../lib/gcc/arm-none-eabi/13.3.1/../../../../arm-none-eabi/lib/thumb/v6-m/nofp/libg_nano.a(libc_a-stdio.o)
 .debug_frame   0x00000000       0x90 /opt/toolchain/bin/../lib/gcc/arm-none-eabi/13.3.1/../../../../arm-none-eabi/lib/thumb/v6-m/nofp/libg_nano.a(libc_a-stdio.o)
 .ARM.attributes
                0x00000000       0x2c /opt/toolchain/bin/../lib/gcc/arm-none-eabi/13.3.1/../../../../arm-none-eabi/lib/thumb/v6-m/nofp/libg_nano.a(libc_a-stdio.o)
 .text          0x00000000        0x0 /opt/toolchain/bin/../lib/gcc/arm-none-eabi/13.3.1/../../../../arm-none-eabi/lib/thumb/v6-m/nofp/libg_nano.a(libc_a-lseekr.o)
 .data          0x00000000        0x0 /opt/toolchain/bin/../lib/gcc/arm-none-eabi/13.3.1/../../../../arm-none-eabi/lib/thumb/v6-m/nofp/libg_nano.a(libc_a-lseekr.o)
 .bss           0x00000000        0x0 /opt/toolchain/bin/../lib/gcc/arm-none-eabi/13.3.1/../../../../arm-none-eabi/lib/thumb/v6-m/nofp/libg_nano.a(libc_a-lseekr.o)
 .text._lseek_r
                0x00000000       0x28 /opt/toolchain/bin/../lib/gcc/arm-none-eabi/13.3.1/../../../../arm-none-eabi/lib/thumb/v6-m/nofp/libg_nano.a(libc_a-lseekr.o)
 .debug_frame   0x00000000       0x2c /opt/toolchain/bin/../lib/gcc/arm-none-eabi/13.3.1/../../../../arm-none-eabi/lib/thumb/v6-m/nofp/libg_nano.a(libc_a-lseekr.o)
 .ARM.attributes
                0x00000000       0x2c /opt/toolchain/bin/../lib/gcc/arm-none-eabi/13.3.1/../../../../arm-none-eabi/lib/thumb/v6-m/nofp/libg_nano.a(libc_a-lseekr.o)
 .text          0x00000000        0x0 /opt/toolchain/bin/../lib/gcc/arm-none-eabi/13.3.1/../../../../arm-none-eabi/lib/thumb/v6-m/nofp/libg_nano.a(libc_a-readr.o)
 .data          0x00000000        0x0 /opt/toolchain/bin/../lib/gcc/arm-none-eabi/13.3.1/../../../../arm-none-eabi/lib/thumb/v6-m/nofp/libg_nano.a(libc_a-readr.o)
 .bss           0x00000000        0x0 /opt/toolchain/bin/../lib/gcc/arm-none-eabi/13.3.1/../../../../arm-none-eabi/lib/thumb/v6-m/nofp/libg_nano.a(libc_a-readr.o)
 .text._read_r  0x00000000       0x28 /opt/toolchain/bin/../lib/gcc/arm-none-eabi/13.3.1/../../../../arm-none-eabi/lib/thumb/v6-m/nofp/libg_nano.a(libc_a-readr.o)
 .debug_frame   0x00000000       0x2c /opt/toolchain/bin/../lib/gcc/arm-none-eabi/13.3.1/../../../../arm-none-eabi/lib/thumb/v6-m/nofp/libg_nano.a(libc_a-readr.o)
 .ARM.attributes
                0x00000000       0x2c /opt/toolchain/bin/../lib/gcc/arm-none-eabi/13.3.1/../../../../arm-none-eabi/lib/thumb/v6-m/nofp/libg_nano.a(libc_a-readr.o)
 .text          0x00000000        0x0 /opt/toolchain/bin/../lib/gcc/arm-none-eabi/13.3.1/../../../../arm-none-eabi/lib/thumb/v6-m/nofp/libg_nano.a(libc_a-fwalk.o)
 .data          0x00000000        0x0 /opt/toolchain/bin/../lib/gcc/arm-none-eabi/13.3.1/../../../../arm-none-eabi/lib/thumb/v6-m/nofp/libg_nano.a(libc_a-fwalk.o)
 .bss           0x00000000        0x0 /opt/toolchain/bin/../lib/gcc/arm-none-eabi/13.3.1/../../../../arm-none-eabi/lib/thumb/v6-m/nofp/libg_nano.a(libc_a-fwalk.o)
 .text._fwalk_sglue
                0x00000000       0x38 /opt/toolchain/bin/../lib/gcc/arm-none-eabi/13.3.1/../../../../arm-none-eabi/lib/thumb/v6-m/nofp/libg_nano.a(libc_a-fwalk.o)
 .debug_frame   0x00000000       0x34 /opt/toolchain/bin/../lib/gcc/arm-none-eabi/13.3.1/../../../../arm-none-eabi/lib/thumb/v6-m/nofp/libg_nano.a(libc_a-fwalk.o)
 .ARM.attributes
                0x00000000       0x2c /opt/toolchain/bin/../lib/gcc/arm-none-eabi/13.3.1/../../../../arm-none-eabi/lib/thumb/v6-m/nofp/libg_nano.a(libc_a-fwalk.o)
 .text          0x00000000        0x0 /opt/toolchain/bin/../lib/gcc/arm-none-eabi/13.3.1/../../../../arm-none-eabi/lib/thumb/v6-m/nofp/libg_nano.a(libc_a-memcmp.o)
 .data          0x00000000        0x0 /opt/toolchain/bin/../lib/gcc/arm-none-eabi/13.3.1/../../../../arm-none-eabi/lib/thumb/v6-m/nofp/libg_nano.a(libc_a-memcmp.o)
 .bss           0x00000000        0x0 /opt/toolchain/bin/../lib/gcc/arm-none-eabi/13.3.1/../../../../arm-none-eabi/lib/thumb/v6-m/nofp/libg_nano.a(libc_a-memcmp.o)
 .text          0x00000000        0x0 /opt/toolchain/bin/../lib/gcc/arm-none-eabi/13.3.1/../../../../arm-none-eabi/lib/thumb/v6-m/nofp/libg_nano.a(libc_a-writer.o)
 .data          0x00000000        0x0 /opt/toolchain/bin/../lib/gcc/arm-none-eabi/13.3.1/../../../../arm-none-eabi/lib/thumb/v6-m/nofp/libg_nano.a(libc_a-writer.o)
 .bss           0x00000000        0x0 /opt/toolchain/bin/../lib/gcc/arm-none-eabi/13.3.1/../../../../arm-none-eabi/lib/thumb/v6-m/nofp/libg_nano.a(libc_a-writer.o)
 .text._write_r
                0x00000000       0x28 /opt/toolchain/bin/../lib/gcc/arm-none-eabi/13.3.1/../../../../arm-none-eabi/lib/thumb/v6-m/nofp/libg_nano.a(libc_a-writer.o)
 .debug_frame   0x00000000       0x2c /opt/toolchain/bin/../lib/gcc/arm-none-eabi/13.3.1/../../../../arm-none-eabi/lib/thumb/v6-m/nofp/libg_nano.a(libc_a-writer.o)
 .ARM.attributes
                0x00000000       0x2c /opt/toolchain/bin/../lib/gcc/arm-none-eabi/13.3.1/../../../../arm-none-eabi/lib/thumb/v6-m/nofp/libg_nano.a(libc_a-writer.o)
 .text          0x00000000        0x0 /opt/toolchain/bin/../lib/gcc/arm-none-eabi/13.3.1/../../../../arm-none-eabi/lib/thumb/v6-m/nofp/libg_nano.a(libc_a-lock.o)
 .data          0x00000000        0x0 /opt/toolchain/bin/../lib/gcc/arm-none-eabi/13.3.1/../../../../arm-none-eabi/lib/thumb/v6-m/nofp/libg_nano.a(libc_a-lock.o)
 .bss           0x00000000        0x0 /opt/toolchain/bin/../lib/gcc/arm-none-eabi/13.3.1/../../../../arm-none-eabi/lib/thumb/v6-m/nofp/libg_nano.a(libc_a-lock.o)
 .text.__retarget_lock_init
                0x00000000        0x2 /opt/toolchain/bin/../lib/gcc/arm-none-eabi/13.3.1/../../../../arm-none-eabi/lib/thumb/v6-m/nofp/libg_nano.a(libc_a-lock.o)
 .text.__retarget_lock_init_recursive
                0x00000000        0x2 /opt/toolchain/bin/../lib/gcc/arm-none-eabi/13.3.1/../../../../arm-none-eabi/lib/thumb/v6-m/nofp/libg_nano.a(libc_a-lock.o)
 .text.__retarget_lock_close
                0x00000000        0x2 /opt/toolchain/bin/../lib/gcc/arm-none-eabi/13.3.1/../../../../arm-none-eabi/lib/thumb/v6-m/nofp/libg_nano.a(libc_a-lock.o)
 .text.__retarget_lock_close_recursive
                0x00000000        0x2 /opt/toolchain/bin/../lib/gcc/arm-none-eabi/13.3.1/../../../../arm-none-eabi/lib/thumb/v6-m/nofp/libg_nano.a(libc_a-lock.o)
 .text.__retarget_lock_acquire
                0x00000000        0x2 /opt/toolchain/bin/../lib/gcc/arm-none-eabi/13.3.1/../../../../arm-none-eabi/lib/thumb/v6-m/nofp/libg_nano.a(libc_a-lock.o)
 .text.__retarget_lock_acquire_recursive
                0x00000000        0x2 /opt/toolchain/bin/../lib/gcc/arm-none-eabi/13.3.1/../../../../arm-none-eabi/lib/thumb/v6-m/nofp/libg_nano.a(libc_a-lock.o)
 .text.__retarget_lock_try_acquire
                0x00000000        0x4 /opt/toolchain/bin/../lib/gcc/arm-none-eabi/13.3.1/../../../../arm-none-eabi/lib/thumb/v6-m/nofp/libg_nano.a(libc_a-lock.o)
 .text.__retarget_lock_try_acquire_recursive
                0x00000000        0x4 /opt/toolchain/bin/../lib/gcc/arm-none-eabi/13.3.1/../../../../arm-none-eabi/lib/thumb/v6-m/nofp/libg_nano.a(libc_a-lock.o)
 .text.__retarget_lock_release
                0x00000000        0x2 /opt/toolchain/bin/../lib/gcc/arm-none-eabi/13.3.1/../../../../arm-none-eabi/lib/thumb/v6-m/nofp/libg_nano.a(libc_a-lock.o)
 .text.__retarget_lock_release_recursive
                0x00000000        0x2 /opt/toolchain/bin/../lib/gcc/arm-none-eabi/13.3.1/../../../../arm-none-eabi/lib/thumb/v6-m/nofp/libg_nano.a(libc_a-lock.o)
 .bss.__lock___arc4random_mutex
                0x00000000        0x1 /opt/toolchain/bin/../lib/gcc/arm-none-eabi/13.3.1/../../../../arm-none-eabi/lib/thumb/v6-m/nofp/libg_nano.a(libc_a-lock.o)
 .bss.__lock___dd_hash_mutex
                0x00000000        0x1 /opt/toolchain/bin/../lib/gcc/arm-none-eabi/13.3.1/../../../../arm-none-eabi/lib/thumb/v6-m/nofp/libg_nano.a(libc_a-lock.o)
 .bss.__lock___tz_mutex
                0x00000000        0x1 /opt/toolchain/bin/../lib/gcc/arm-none-eabi/13.3.1/../../../../arm-none-eabi/lib/thumb/v6-m/nofp/libg_nano.a(libc_a-lock.o)
 .bss.__lock___env_recursive_mutex
                0x00000000        0x1 /opt/toolchain/bin/../lib/gcc/arm-none-eabi/13.3.1/../../../../arm-none-eabi/lib/thumb/v6-m/nofp/libg_nano.a(libc_a-lock.o)
 .bss.__lock___malloc_recursive_mutex
                0x00000000        0x1 /opt/toolchain/bin/../lib/gcc/arm-none-eabi/13.3.1/../../../../arm-none-eabi/lib/thumb/v6-m/nofp/libg_nano.a(libc_a-lock.o)
 .bss.__lock___at_quick_exit_mutex
                0x00000000        0x1 /opt/toolchain/bin/../lib/gcc/arm-none-eabi/13.3.1/../../../../arm-none-eabi/lib/thumb/v6-m/nofp/libg_nano.a(libc_a-lock.o)
 .bss.__lock___atexit_recursive_mutex
                0x00000000        0x1 /opt/toolchain/bin/../lib/gcc/arm-none-eabi/13.3.1/../../../../arm-none-eabi/lib/thumb/v6-m/nofp/libg_nano.a(libc_a-lock.o)
 .bss.__lock___sfp_recursive_mutex
                0x00000000        0x1 /opt/toolchain/bin/../lib/gcc/arm-none-eabi/13.3.1/../../../../arm-none-eabi/lib/thumb/v6-m/nofp/libg_nano.a(libc_a-lock.o)
 .debug_frame   0x00000000       0xb0 /opt/toolchain/bin/../lib/gcc/arm-none-eabi/13.3.1/../../../../arm-none-eabi/lib/thumb/v6-m/nofp/libg_nano.a(libc_a-lock.o)
 .ARM.attributes
                0x00000000       0x2c /opt/toolchain/bin/../lib/gcc/arm-none-eabi/13.3.1/../../../../arm-none-eabi/lib/thumb/v6-m/nofp/libg_nano.a(libc_a-lock.o)
 .text          0x00000000        0x0 /opt/toolchain/bin/../lib/gcc/arm-none-eabi/13.3.1/../../../../arm-none-eabi/lib/thumb/v6-m/nofp/libg_nano.a(libc_a-fflush.o)
 .data          0x00000000        0x0 /opt/toolchain/bin/../lib/gcc/arm-none-eabi/13.3.1/../../../../arm-none-eabi/lib/thumb/v6-m/nofp/libg_nano.a(libc_a-fflush.o)
 .bss           0x00000000        0x0 /opt/toolchain/bin/../lib/gcc/arm-none-eabi/13.3.1/../../../../arm-none-eabi/lib/thumb/v6-m/nofp/libg_nano.a(libc_a-fflush.o)
 .text.__sflush_r
                0x00000000      0x10c /opt/toolchain/bin/../lib/gcc/arm-none-eabi/13.3.1/../../../../arm-none-eabi/lib/thumb/v6-m/nofp/libg_nano.a(libc_a-fflush.o)
 .text._fflush_r
                0x00000000       0x56 /opt/toolchain/bin/../lib/gcc/arm-none-eabi/13.3.1/../../../../arm-none-eabi/lib/thumb/v6-m/nofp/libg_nano.a(libc_a-fflush.o)
 .text.fflush   0x00000000       0x30 /opt/toolchain/bin/../lib/gcc/arm-none-eabi/13.3.1/../../../../arm-none-eabi/lib/thumb/v6-m/nofp/libg_nano.a(libc_a-fflush.o)
 .debug_frame   0x00000000       0x68 /opt/toolchain/bin/../lib/gcc/arm-none-eabi/13.3.1/../../../../arm-none-eabi/lib/thumb/v6-m/nofp/libg_nano.a(libc_a-fflush.o)
 .ARM.attributes
                0x00000000       0x2c /opt/toolchain/bin/../lib/gcc/arm-none-eabi/13.3.1/../../../../arm-none-eabi/lib/thumb/v6-m/nofp/libg_nano.a(libc_a-fflush.o)
 .text          0x00000000        0x0 /opt/toolchain/bin/../lib/gcc/arm-none-eabi/13.3.1/../../../../arm-none-eabi/lib/thumb/v6-m/nofp/libg_nano.a(libc_a-mallocr.o)
 .data          0x00000000        0x0 /opt/toolchain/bin/../lib/gcc/arm-none-eabi/13.3.1/../../../../arm-none-eabi/lib/thumb/v6-m/nofp/libg_nano.a(libc_a-mallocr.o)
 .bss           0x00000000        0x0 /opt/toolchain/bin/../lib/gcc/arm-none-eabi/13.3.1/../../../../arm-none-eabi/lib/thumb/v6-m/nofp/libg_nano.a(libc_a-mallocr.o)
 .text.sbrk_aligned
                0x00000000       0x44 /opt/toolchain/bin/../lib/gcc/arm-none-eabi/13.3.1/../../../../arm-none-eabi/lib/thumb/v6-m/nofp/libg_nano.a(libc_a-mallocr.o)
 .text._malloc_r
                0x00000000      0x100 /opt/toolchain/bin/../lib/gcc/arm-none-eabi/13.3.1/../../../../arm-none-eabi/lib/thumb/v6-m/nofp/libg_nano.a(libc_a-mallocr.o)
 .bss.__malloc_sbrk_start
                0x00000000        0x4 /opt/toolchain/bin/../lib/gcc/arm-none-eabi/13.3.1/../../../../arm-none-eabi/lib/thumb/v6-m/nofp/libg_nano.a(libc_a-mallocr.o)
 .bss.__malloc_free_list
                0x00000000        0x4 /opt/toolchain/bin/../lib/gcc/arm-none-eabi/13.3.1/../../../../arm-none-eabi/lib/thumb/v6-m/nofp/libg_nano.a(libc_a-mallocr.o)
 .debug_frame   0x00000000       0x50 /opt/toolchain/bin/../lib/gcc/arm-none-eabi/13.3.1/../../../../arm-none-eabi/lib/thumb/v6-m/nofp/libg_nano.a(libc_a-mallocr.o)
 .ARM.attributes
                0x00000000       0x2c /opt/toolchain/bin/../lib/gcc/arm-none-eabi/13.3.1/../../../../arm-none-eabi/lib/thumb/v6-m/nofp/libg_nano.a(libc_a-mallocr.o)
 .text          0x00000000        0x0 /opt/toolchain/bin/../lib/gcc/arm-none-eabi/13.3.1/../../../../arm-none-eabi/lib/thumb/v6-m/nofp/libg_nano.a(libc_a-closer.o)
 .data          0x00000000        0x0 /opt/toolchain/bin/../lib/gcc/arm-none-eabi/13.3.1/../../../../arm-none-eabi/lib/thumb/v6-m/nofp/libg_nano.a(libc_a-closer.o)
 .bss           0x00000000        0x0 /opt/toolchain/bin/../lib/gcc/arm-none-eabi/13.3.1/../../../../arm-none-eabi/lib/thumb/v6-m/nofp/libg_nano.a(libc_a-closer.o)
 .text._close_r
                0x00000000       0x24 /opt/toolchain/bin/../lib/gcc/arm-none-eabi/13.3.1/../../../../arm-none-eabi/lib/thumb/v6-m/nofp/libg_nano.a(libc_a-closer.o)
 .debug_frame   0x00000000       0x2c /opt/toolchain/bin/../lib/gcc/arm-none-eabi/13.3.1/../../../../arm-none-eabi/lib/thumb/v6-m/nofp/libg_nano.a(libc_a-closer.o)
 .ARM.attributes
                0x00000000       0x2c /opt/toolchain/bin/../lib/gcc/arm-none-eabi/13.3.1/../../../../arm-none-eabi/lib/thumb/v6-m/nofp/libg_nano.a(libc_a-closer.o)
 .text          0x00000000        0x0 /opt/toolchain/bin/../lib/gcc/arm-none-eabi/13.3.1/../../../../arm-none-eabi/lib/thumb/v6-m/nofp/libg_nano.a(libc_a-reent.o)
 .data          0x00000000        0x0 /opt/toolchain/bin/../lib/gcc/arm-none-eabi/13.3.1/../../../../arm-none-eabi/lib/thumb/v6-m/nofp/libg_nano.a(libc_a-reent.o)
 .bss           0x00000000        0x0 /opt/toolchain/bin/../lib/gcc/arm-none-eabi/13.3.1/../../../../arm-none-eabi/lib/thumb/v6-m/nofp/libg_nano.a(libc_a-reent.o)
 .text._reclaim_reent
                0x00000000       0xd4 /opt/toolchain/bin/../lib/gcc/arm-none-eabi/13.3.1/../../../../arm-none-eabi/lib/thumb/v6-m/nofp/libg_nano.a(libc_a-reent.o)
 .bss.errno     0x00000000        0x4 /opt/toolchain/bin/../lib/gcc/arm-none-eabi/13.3.1/../../../../arm-none-eabi/lib/thumb/v6-m/nofp/libg_nano.a(libc_a-reent.o)
 .debug_frame   0x00000000       0x2c /opt/toolchain/bin/../lib/gcc/arm-none-eabi/13.3.1/../../../../arm-none-eabi/lib/thumb/v6-m/nofp/libg_nano.a(libc_a-reent.o)
 .ARM.attributes
                0x00000000       0x2c /opt/toolchain/bin/../lib/gcc/arm-none-eabi/13.3.1/../../../../arm-none-eabi/lib/thumb/v6-m/nofp/libg_nano.a(libc_a-reent.o)
 .text          0x00000000        0x0 /opt/toolchain/bin/../lib/gcc/arm-none-eabi/13.3.1/../../../../arm-none-eabi/lib/thumb/v6-m/nofp/libg_nano.a(libc_a-impure.o)
 .data          0x00000000        0x0 /opt/toolchain/bin/../lib/gcc/arm-none-eabi/13.3.1/../../../../arm-none-eabi/lib/thumb/v6-m/nofp/libg_nano.a(libc_a-impure.o)
 .bss           0x00000000        0x0 /opt/toolchain/bin/../lib/gcc/arm-none-eabi/13.3.1/../../../../arm-none-eabi/lib/thumb/v6-m/nofp/libg_nano.a(libc_a-impure.o)
 .data._impure_ptr
                0x00000000        0x4 /opt/toolchain/bin/../lib/gcc/arm-none-eabi/13.3.1/../../../../arm-none-eabi/lib/thumb/v6-m/nofp/libg_nano.a(libc_a-impure.o)
 .data._impure_data
                0x00000000       0x4c /opt/toolchain/bin/../lib/gcc/arm-none-eabi/13.3.1/../../../../arm-none-eabi/lib/thumb/v6-m/nofp/libg_nano.a(libc_a-impure.o)
 .ARM.attributes
                0x00000000       0x2c /opt/toolchain/bin/../lib/gcc/arm-none-eabi/13.3.1/../../../../arm-none-eabi/lib/thumb/v6-m/nofp/libg_nano.a(libc_a-impure.o)
 .text          0x00000000        0x0 /opt/toolchain/bin/../lib/gcc/arm-none-eabi/13.3.1/../../../../arm-none-eabi/lib/thumb/v6-m/nofp/libg_nano.a(libc_a-mlock.o)
 .data          0x00000000        0x0 /opt/toolchain/bin/../lib/gcc/arm-none-eabi/13.3.1/../../../../arm-none-eabi/lib/thumb/v6-m/nofp/libg_nano.a(libc_a-mlock.o)
 .bss           0x00000000        0x0 /opt/toolchain/bin/../lib/gcc/arm-none-eabi/13.3.1/../../../../arm-none-eabi/lib/thumb/v6-m/nofp/libg_nano.a(libc_a-mlock.o)
 .text.__malloc_lock
                0x00000000       0x10 /opt/toolchain/bin/../lib/gcc/arm-none-eabi/13.3.1/../../../../arm-none-eabi/lib/thumb/v6-m/nofp/libg_nano.a(libc_a-mlock.o)
 .text.__malloc_unlock
                0x00000000       0x10 /opt/toolchain/bin/../lib/gcc/arm-none-eabi/13.3.1/../../../../arm-none-eabi/lib/thumb/v6-m/nofp/libg_nano.a(libc_a-mlock.o)
 .debug_frame   0x00000000       0x40 /opt/toolchain/bin/../lib/gcc/arm-none-eabi/13.3.1/../../../../arm-none-eabi/lib/thumb/v6-m/nofp/libg_nano.a(libc_a-mlock.o)
 .ARM.attributes
                0x00000000       0x2c /opt/toolchain/bin/../lib/gcc/arm-none-eabi/13.3.1/../../../../arm-none-eabi/lib/thumb/v6-m/nofp/libg_nano.a(libc_a-mlock.o)
 .text          0x00000000        0x0 /opt/toolchain/bin/../lib/gcc/arm-none-eabi/13.3.1/../../../../arm-none-eabi/lib/thumb/v6-m/nofp/libg_nano.a(libc_a-sbrkr.o)
 .data          0x00000000        0x0 /opt/toolchain/bin/../lib/gcc/arm-none-eabi/13.3.1/../../../../arm-none-eabi/lib/thumb/v6-m/nofp/libg_nano.a(libc_a-sbrkr.o)
 .bss           0x00000000        0x0 /opt/toolchain/bin/../lib/gcc/arm-none-eabi/13.3.1/../../../../arm-none-eabi/lib/thumb/v6-m/nofp/libg_nano.a(libc_a-sbrkr.o)
 .text._sbrk_r  0x00000000       0x24 /opt/toolchain/bin/../lib/gcc/arm-none-eabi/13.3.1/../../../../arm-none-eabi/lib/thumb/v6-m/nofp/libg_nano.a(libc_a-sbrkr.o)
 .debug_frame   0x00000000       0x2c /opt/toolchain/bin/../lib/gcc/arm-none-eabi/13.3.1/../../../../arm-none-eabi/lib/thumb/v6-m/nofp/libg_nano.a(libc_a-sbrkr.o)
 .ARM.attributes
                0x00000000       0x2c /opt/toolchain/bin/../lib/gcc/arm-none-eabi/13.3.1/../../../../arm-none-eabi/lib/thumb/v6-m/nofp/libg_nano.a(libc_a-sbrkr.o)
 .text          0x00000000        0x0 /opt/toolchain/bin/../lib/gcc/arm-none-eabi/13.3.1/../../../../arm-none-eabi/lib/thumb/v6-m/nofp/libg_nano.a(libc_a-freer.o)
 .data          0x00000000        0x0 /opt/toolchain/bin/../lib/gcc/arm-none-eabi/13.3.1/../../../../arm-none-eabi/lib/thumb/v6-m/nofp/libg_nano.a(libc_a-freer.o)
 .bss           0x00000000        0x0 /opt/toolchain/bin/../lib/gcc/arm-none-eabi/13.3.1/../../../../arm-none-eabi/lib/thumb/v6-m/nofp/libg_nano.a(libc_a-freer.o)
 .text._free_r  0x00000000       0x94 /opt/toolchain/bin/../lib/gcc/arm-none-eabi/13.3.1/../../../../arm-none-eabi/lib/thumb/v6-m/nofp/libg_nano.a(libc_a-freer.o)
 .debug_frame   0x00000000       0x2c /opt/toolchain/bin/../lib/gcc/arm-none-eabi/13.3.1/../../../../arm-none-eabi/lib/thumb/v6-m/nofp/libg_nano.a(libc_a-freer.o)
 .ARM.attributes
                0x00000000       0x2c /opt/toolchain/bin/../lib/gcc/arm-none-eabi/13.3.1/../../../../arm-none-eabi/lib/thumb/v6-m/nofp/libg_nano.a(libc_a-freer.o)
 .text          0x00000000        0x0 /opt/toolchain/bin/../lib/gcc/arm-none-eabi/13.3.1/thumb/v6-m/nofp/crtend.o
 .data          0x00000000        0x0 /opt/toolchain/bin/../lib/gcc/arm-none-eabi/13.3.1/thumb/v6-m/nofp/crtend.o
 .bss           0x00000000        0x0 /opt/toolchain/bin/../lib/gcc/arm-none-eabi/13.3.1/thumb/v6-m/nofp/crtend.o
 .rodata.all_implied_fbits
                0x00000000       0x24 /opt/toolchain/bin/../lib/gcc/arm-none-eabi/13.3.1/thumb/v6-m/nofp/crtend.o
 .eh_frame      0x00000000        0x4 /opt/toolchain/bin/../lib/gcc/arm-none-eabi/13.3.1/thumb/v6-m/nofp/crtend.o
 .text          0x00000000        0x0 /opt/toolchain/bin/../lib/gcc/arm-none-eabi/13.3.1/thumb/v6-m/nofp/crtn.o
 .data          0x00000000        0x0 /opt/toolchain/bin/../lib/gcc/arm-none-eabi/13.3.1/thumb/v6-m/nofp/crtn.o
 .bss           0x00000000        0x0 /opt/toolchain/bin/../lib/gcc/arm-none-eabi/13.3.1/thumb/v6-m/nofp/crtn.o

Memory Configuration

Name             Origin             Length             Attributes
RAM              0x20000000         0x00004000         xrw
FLASH            0x08002800         0x0001d800         xr
*default*        0x00000000         0xffffffff

Linker script and memory map

LOAD /opt/toolchain/bin/../lib/gcc/arm-none-eabi/13.3.1/thumb/v6-m/nofp/crti.o
LOAD /opt/toolchain/bin/../lib/gcc/arm-none-eabi/13.3.1/thumb/v6-m/nofp/crtbegin.o
LOAD /opt/toolchain/bin/../lib/gcc/arm-none-eabi/13.3.1/../../../../arm-none-eabi/lib/thumb/v6-m/nofp/crt0.o
LOAD CMakeFiles/n7six.ApeX-k1.v7.6.5br3.dir/Core/Src/main.c.obj
LOAD CMakeFiles/n7six.ApeX-k1.v7.6.5br3.dir/Core/Src/py32f071_it.c.obj
LOAD CMakeFiles/n7six.ApeX-k1.v7.6.5br3.dir/Core/Src/system_py32f071.c.obj
LOAD CMakeFiles/n7six.ApeX-k1.v7.6.5br3.dir/Core/startup_py32f071xx.s.obj
LOAD CMakeFiles/n7six.ApeX-k1.v7.6.5br3.dir/Drivers/PY32F071_HAL_Driver/Src/py32f071_ll_rcc.c.obj
LOAD CMakeFiles/n7six.ApeX-k1.v7.6.5br3.dir/Drivers/PY32F071_HAL_Driver/Src/py32f071_ll_pwr.c.obj
LOAD CMakeFiles/n7six.ApeX-k1.v7.6.5br3.dir/Drivers/PY32F071_HAL_Driver/Src/py32f071_ll_dma.c.obj
LOAD CMakeFiles/n7six.ApeX-k1.v7.6.5br3.dir/Drivers/PY32F071_HAL_Driver/Src/py32f071_ll_gpio.c.obj
LOAD CMakeFiles/n7six.ApeX-k1.v7.6.5br3.dir/Drivers/PY32F071_HAL_Driver/Src/py32f071_ll_utils.c.obj
LOAD CMakeFiles/n7six.ApeX-k1.v7.6.5br3.dir/Drivers/PY32F071_HAL_Driver/Src/py32f071_ll_adc.c.obj
LOAD CMakeFiles/n7six.ApeX-k1.v7.6.5br3.dir/Drivers/PY32F071_HAL_Driver/Src/py32f071_ll_comp.c.obj
LOAD CMakeFiles/n7six.ApeX-k1.v7.6.5br3.dir/Drivers/PY32F071_HAL_Driver/Src/py32f071_ll_crc.c.obj
LOAD CMakeFiles/n7six.ApeX-k1.v7.6.5br3.dir/Drivers/PY32F071_HAL_Driver/Src/py32f071_ll_dac.c.obj
LOAD CMakeFiles/n7six.ApeX-k1.v7.6.5br3.dir/Drivers/PY32F071_HAL_Driver/Src/py32f071_ll_exti.c.obj
LOAD CMakeFiles/n7six.ApeX-k1.v7.6.5br3.dir/Drivers/PY32F071_HAL_Driver/Src/py32f071_ll_i2c.c.obj
LOAD CMakeFiles/n7six.ApeX-k1.v7.6.5br3.dir/Drivers/PY32F071_HAL_Driver/Src/py32f071_ll_rtc.c.obj
LOAD CMakeFiles/n7six.ApeX-k1.v7.6.5br3.dir/Drivers/PY32F071_HAL_Driver/Src/py32f071_ll_spi.c.obj
LOAD CMakeFiles/n7six.ApeX-k1.v7.6.5br3.dir/Drivers/PY32F071_HAL_Driver/Src/py32f071_ll_tim.c.obj
LOAD CMakeFiles/n7six.ApeX-k1.v7.6.5br3.dir/Drivers/PY32F071_HAL_Driver/Src/py32f071_ll_lptim.c.obj
LOAD CMakeFiles/n7six.ApeX-k1.v7.6.5br3.dir/Drivers/PY32F071_HAL_Driver/Src/py32f071_ll_usart.c.obj
LOAD CMakeFiles/n7six.ApeX-k1.v7.6.5br3.dir/App/driver/backlight.c.obj
LOAD CMakeFiles/n7six.ApeX-k1.v7.6.5br3.dir/App/driver/bk4829.c.obj
LOAD CMakeFiles/n7six.ApeX-k1.v7.6.5br3.dir/App/driver/py25q16.c.obj
LOAD CMakeFiles/n7six.ApeX-k1.v7.6.5br3.dir/App/driver/gpio.c.obj
LOAD CMakeFiles/n7six.ApeX-k1.v7.6.5br3.dir/App/driver/i2c.c.obj
LOAD CMakeFiles/n7six.ApeX-k1.v7.6.5br3.dir/App/driver/keyboard.c.obj
LOAD CMakeFiles/n7six.ApeX-k1.v7.6.5br3.dir/App/driver/st7565.c.obj
LOAD CMakeFiles/n7six.ApeX-k1.v7.6.5br3.dir/App/driver/system.c.obj
LOAD CMakeFiles/n7six.ApeX-k1.v7.6.5br3.dir/App/driver/systick.c.obj
LOAD CMakeFiles/n7six.ApeX-k1.v7.6.5br3.dir/App/app/action.c.obj
LOAD CMakeFiles/n7six.ApeX-k1.v7.6.5br3.dir/App/app/app.c.obj
LOAD CMakeFiles/n7six.ApeX-k1.v7.6.5br3.dir/App/app/chFrScanner.c.obj
LOAD CMakeFiles/n7six.ApeX-k1.v7.6.5br3.dir/App/app/common.c.obj
LOAD CMakeFiles/n7six.ApeX-k1.v7.6.5br3.dir/App/app/dtmf.c.obj
LOAD CMakeFiles/n7six.ApeX-k1.v7.6.5br3.dir/App/app/events.c.obj
LOAD CMakeFiles/n7six.ApeX-k1.v7.6.5br3.dir/App/app/events_handlers.c.obj
LOAD CMakeFiles/n7six.ApeX-k1.v7.6.5br3.dir/App/app/generic.c.obj
LOAD CMakeFiles/n7six.ApeX-k1.v7.6.5br3.dir/App/app/main.c.obj
LOAD CMakeFiles/n7six.ApeX-k1.v7.6.5br3.dir/App/app/menu.c.obj
LOAD CMakeFiles/n7six.ApeX-k1.v7.6.5br3.dir/App/app/scanner.c.obj
LOAD CMakeFiles/n7six.ApeX-k1.v7.6.5br3.dir/App/audio.c.obj
LOAD CMakeFiles/n7six.ApeX-k1.v7.6.5br3.dir/App/bitmaps.c.obj
LOAD CMakeFiles/n7six.ApeX-k1.v7.6.5br3.dir/App/board.c.obj
LOAD CMakeFiles/n7six.ApeX-k1.v7.6.5br3.dir/App/dcs.c.obj
LOAD CMakeFiles/n7six.ApeX-k1.v7.6.5br3.dir/App/font.c.obj
LOAD CMakeFiles/n7six.ApeX-k1.v7.6.5br3.dir/App/frequencies.c.obj
LOAD CMakeFiles/n7six.ApeX-k1.v7.6.5br3.dir/App/functions.c.obj
LOAD CMakeFiles/n7six.ApeX-k1.v7.6.5br3.dir/App/helper/battery.c.obj
LOAD CMakeFiles/n7six.ApeX-k1.v7.6.5br3.dir/App/helper/boot.c.obj
LOAD CMakeFiles/n7six.ApeX-k1.v7.6.5br3.dir/App/misc.c.obj
LOAD CMakeFiles/n7six.ApeX-k1.v7.6.5br3.dir/App/radio.c.obj
LOAD CMakeFiles/n7six.ApeX-k1.v7.6.5br3.dir/App/scheduler.c.obj
LOAD CMakeFiles/n7six.ApeX-k1.v7.6.5br3.dir/App/settings.c.obj
LOAD CMakeFiles/n7six.ApeX-k1.v7.6.5br3.dir/App/ui/battery.c.obj
LOAD CMakeFiles/n7six.ApeX-k1.v7.6.5br3.dir/App/ui/helper.c.obj
LOAD CMakeFiles/n7six.ApeX-k1.v7.6.5br3.dir/App/ui/inputbox.c.obj
LOAD CMakeFiles/n7six.ApeX-k1.v7.6.5br3.dir/App/ui/main.c.obj
LOAD CMakeFiles/n7six.ApeX-k1.v7.6.5br3.dir/App/ui/menu.c.obj
LOAD CMakeFiles/n7six.ApeX-k1.v7.6.5br3.dir/App/ui/scanner.c.obj
LOAD CMakeFiles/n7six.ApeX-k1.v7.6.5br3.dir/App/ui/status.c.obj
LOAD CMakeFiles/n7six.ApeX-k1.v7.6.5br3.dir/App/ui/ui.c.obj
LOAD CMakeFiles/n7six.ApeX-k1.v7.6.5br3.dir/App/ui/welcome.c.obj
LOAD CMakeFiles/n7six.ApeX-k1.v7.6.5br3.dir/App/version.c.obj
LOAD CMakeFiles/n7six.ApeX-k1.v7.6.5br3.dir/App/main.c.obj
LOAD CMakeFiles/n7six.ApeX-k1.v7.6.5br3.dir/App/external/printf/printf.c.obj
LOAD CMakeFiles/n7six.ApeX-k1.v7.6.5br3.dir/App/driver/crc.c.obj
LOAD CMakeFiles/n7six.ApeX-k1.v7.6.5br3.dir/App/driver/eeprom_compat.c.obj
LOAD CMakeFiles/n7six.ApeX-k1.v7.6.5br3.dir/App/driver/uart.c.obj
LOAD CMakeFiles/n7six.ApeX-k1.v7.6.5br3.dir/App/app/uart.c.obj
LOAD CMakeFiles/n7six.ApeX-k1.v7.6.5br3.dir/App/driver/vcp.c.obj
LOAD CMakeFiles/n7six.ApeX-k1.v7.6.5br3.dir/App/usb/usbd_cdc_if.c.obj
LOAD CMakeFiles/n7six.ApeX-k1.v7.6.5br3.dir/App/driver/bk1080.c.obj
LOAD CMakeFiles/n7six.ApeX-k1.v7.6.5br3.dir/App/app/fm.c.obj
LOAD CMakeFiles/n7six.ApeX-k1.v7.6.5br3.dir/App/ui/fmradio.c.obj
LOAD CMakeFiles/n7six.ApeX-k1.v7.6.5br3.dir/App/app/aircopy.c.obj
LOAD CMakeFiles/n7six.ApeX-k1.v7.6.5br3.dir/App/ui/aircopy.c.obj
LOAD CMakeFiles/n7six.ApeX-k1.v7.6.5br3.dir/App/app/flashlight.c.obj
LOAD CMakeFiles/n7six.ApeX-k1.v7.6.5br3.dir/App/app/spectrum.c.obj
LOAD CMakeFiles/n7six.ApeX-k1.v7.6.5br3.dir/App/screenshot.c.obj
LOAD CMakeFiles/n7six.ApeX-k1.v7.6.5br3.dir/Middlewares/CherryUSB/core/usbd_core.c.obj
LOAD CMakeFiles/n7six.ApeX-k1.v7.6.5br3.dir/Middlewares/CherryUSB/port/usb_dc_py32.c.obj
LOAD CMakeFiles/n7six.ApeX-k1.v7.6.5br3.dir/Middlewares/CherryUSB/class/cdc/usbd_cdc.c.obj
LOAD /opt/toolchain/bin/../lib/gcc/arm-none-eabi/13.3.1/../../../../arm-none-eabi/lib/thumb/v6-m/nofp/libm.a
START GROUP
LOAD /opt/toolchain/bin/../lib/gcc/arm-none-eabi/13.3.1/thumb/v6-m/nofp/libgcc.a
LOAD /opt/toolchain/bin/../lib/gcc/arm-none-eabi/13.3.1/../../../../arm-none-eabi/lib/thumb/v6-m/nofp/libg_nano.a
LOAD /opt/toolchain/bin/../lib/gcc/arm-none-eabi/13.3.1/../../../../arm-none-eabi/lib/thumb/v6-m/nofp/libc_nano.a
END GROUP
START GROUP
LOAD /opt/toolchain/bin/../lib/gcc/arm-none-eabi/13.3.1/thumb/v6-m/nofp/libgcc.a
LOAD /opt/toolchain/bin/../lib/gcc/arm-none-eabi/13.3.1/../../../../arm-none-eabi/lib/thumb/v6-m/nofp/libc_nano.a
END GROUP
LOAD /opt/toolchain/bin/../lib/gcc/arm-none-eabi/13.3.1/thumb/v6-m/nofp/crtend.o
LOAD /opt/toolchain/bin/../lib/gcc/arm-none-eabi/13.3.1/thumb/v6-m/nofp/crtn.o
                0x20004000                        _estack = (ORIGIN (RAM) + LENGTH (RAM))
                0x00000200                        _Min_Heap_Size = 0x200
                0x00000400                        _Min_Stack_Size = 0x400

.isr_vector     0x08002800       0xc0
                0x08002800                        . = ALIGN (0x4)
 *(.isr_vector)
 .isr_vector    0x08002800       0xc0 CMakeFiles/n7six.ApeX-k1.v7.6.5br3.dir/Core/startup_py32f071xx.s.obj
                0x08002800                g_pfnVectors
                0x080028c0                        . = ALIGN (0x4)

.text           0x080028c0    0x1310c
                0x080028c0                        . = ALIGN (0x4)
 *(.text)
 .text          0x080028c0       0x14 /opt/toolchain/bin/../lib/gcc/arm-none-eabi/13.3.1/thumb/v6-m/nofp/libgcc.a(_thumb1_case_sqi.o)
                0x080028c0                __gnu_thumb1_case_sqi
 .text          0x080028d4       0x14 /opt/toolchain/bin/../lib/gcc/arm-none-eabi/13.3.1/thumb/v6-m/nofp/libgcc.a(_thumb1_case_uqi.o)
                0x080028d4                __gnu_thumb1_case_uqi
 .text          0x080028e8       0x14 /opt/toolchain/bin/../lib/gcc/arm-none-eabi/13.3.1/thumb/v6-m/nofp/libgcc.a(_thumb1_case_shi.o)
                0x080028e8                __gnu_thumb1_case_shi
 .text          0x080028fc       0x14 /opt/toolchain/bin/../lib/gcc/arm-none-eabi/13.3.1/thumb/v6-m/nofp/libgcc.a(_thumb1_case_uhi.o)
                0x080028fc                __gnu_thumb1_case_uhi
 .text          0x08002910      0x114 /opt/toolchain/bin/../lib/gcc/arm-none-eabi/13.3.1/thumb/v6-m/nofp/libgcc.a(_udivsi3.o)
                0x08002910                __udivsi3
                0x08002910                __aeabi_uidiv
                0x08002a1c                __aeabi_uidivmod
 .text          0x08002a24      0x1d4 /opt/toolchain/bin/../lib/gcc/arm-none-eabi/13.3.1/thumb/v6-m/nofp/libgcc.a(_divsi3.o)
                0x08002a24                __aeabi_idiv
                0x08002a24                __divsi3
                0x08002bf0                __aeabi_idivmod
 .text          0x08002bf8        0x4 /opt/toolchain/bin/../lib/gcc/arm-none-eabi/13.3.1/thumb/v6-m/nofp/libgcc.a(_dvmd_tls.o)
                0x08002bf8                __aeabi_ldiv0
                0x08002bf8                __aeabi_idiv0
 .text          0x08002bfc       0x3c /opt/toolchain/bin/../lib/gcc/arm-none-eabi/13.3.1/thumb/v6-m/nofp/libgcc.a(_clzsi2.o)
                0x08002bfc                __clzsi2
 .text          0x08002c38        0xe /opt/toolchain/bin/../lib/gcc/arm-none-eabi/13.3.1/../../../../arm-none-eabi/lib/thumb/v6-m/nofp/libg_nano.a(libc_a-strlen.o)
                0x08002c38                strlen
 *(.text*)
 *fill*         0x08002c46        0x2 
 .text.deregister_tm_clones
                0x08002c48       0x20 /opt/toolchain/bin/../lib/gcc/arm-none-eabi/13.3.1/thumb/v6-m/nofp/crtbegin.o
 .text.register_tm_clones
                0x08002c68       0x28 /opt/toolchain/bin/../lib/gcc/arm-none-eabi/13.3.1/thumb/v6-m/nofp/crtbegin.o
 .text.__do_global_dtors_aux
                0x08002c90       0x2c /opt/toolchain/bin/../lib/gcc/arm-none-eabi/13.3.1/thumb/v6-m/nofp/crtbegin.o
 .text.frame_dummy
                0x08002cbc       0x24 /opt/toolchain/bin/../lib/gcc/arm-none-eabi/13.3.1/thumb/v6-m/nofp/crtbegin.o
 .text.startup.main
                0x08002ce0       0x3c CMakeFiles/n7six.ApeX-k1.v7.6.5br3.dir/Core/Src/main.c.obj
                0x08002ce0                main
 .text.NMI_Handler
                0x08002d1c        0x2 CMakeFiles/n7six.ApeX-k1.v7.6.5br3.dir/Core/Src/py32f071_it.c.obj
                0x08002d1c                NMI_Handler
 .text.HardFault_Handler
                0x08002d1e        0x2 CMakeFiles/n7six.ApeX-k1.v7.6.5br3.dir/Core/Src/py32f071_it.c.obj
                0x08002d1e                HardFault_Handler
 .text.SVC_Handler
                0x08002d20        0x2 CMakeFiles/n7six.ApeX-k1.v7.6.5br3.dir/Core/Src/py32f071_it.c.obj
                0x08002d20                SVC_Handler
 .text.PendSV_Handler
                0x08002d22        0x2 CMakeFiles/n7six.ApeX-k1.v7.6.5br3.dir/Core/Src/py32f071_it.c.obj
                0x08002d22                PendSV_Handler
 .text.SystemInit
                0x08002d24       0x10 CMakeFiles/n7six.ApeX-k1.v7.6.5br3.dir/Core/Src/system_py32f071.c.obj
                0x08002d24                SystemInit
 .text.Reset_Handler
                0x08002d34       0x50 CMakeFiles/n7six.ApeX-k1.v7.6.5br3.dir/Core/startup_py32f071xx.s.obj
                0x08002d34                Reset_Handler
 .text.Default_Handler
                0x08002d84        0x2 CMakeFiles/n7six.ApeX-k1.v7.6.5br3.dir/Core/startup_py32f071xx.s.obj
                0x08002d84                TIM1_CC_IRQHandler
                0x08002d84                PVD_IRQHandler
                0x08002d84                I2C1_IRQHandler
                0x08002d84                SPI1_IRQHandler
                0x08002d84                EXTI2_3_IRQHandler
                0x08002d84                I2C2_IRQHandler
                0x08002d84                TIM17_IRQHandler
                0x08002d84                USART3_IRQHandler
                0x08002d84                RTC_IRQHandler
                0x08002d84                LCD_IRQHandler
                0x08002d84                TIM16_IRQHandler
                0x08002d84                TIM3_IRQHandler
                0x08002d84                EXTI4_15_IRQHandler
                0x08002d84                RCC_IRQHandler
                0x08002d84                DMA1_Channel1_IRQHandler
                0x08002d84                Default_Handler
                0x08002d84                TIM14_IRQHandler
                0x08002d84                TIM7_IRQHandler
                0x08002d84                TIM15_IRQHandler
                0x08002d84                EXTI0_1_IRQHandler
                0x08002d84                SPI2_IRQHandler
                0x08002d84                WWDG_IRQHandler
                0x08002d84                TIM2_IRQHandler
                0x08002d84                DMA1_Channel2_3_IRQHandler
                0x08002d84                ADC_COMP_IRQHandler
                0x08002d84                USART2_IRQHandler
                0x08002d84                TIM6_LPTIM1_DAC_IRQHandler
                0x08002d84                FLASH_IRQHandler
                0x08002d84                USART1_IRQHandler
                0x08002d84                TIM1_BRK_UP_TRG_COM_IRQHandler
 *fill*         0x08002d86        0x2 
 .text.RCC_GetHCLKClockFreq
                0x08002d88       0x20 CMakeFiles/n7six.ApeX-k1.v7.6.5br3.dir/Drivers/PY32F071_HAL_Driver/Src/py32f071_ll_rcc.c.obj
                0x08002d88                RCC_GetHCLKClockFreq
 .text.RCC_GetPCLK1ClockFreq
                0x08002da8       0x20 CMakeFiles/n7six.ApeX-k1.v7.6.5br3.dir/Drivers/PY32F071_HAL_Driver/Src/py32f071_ll_rcc.c.obj
                0x08002da8                RCC_GetPCLK1ClockFreq
 .text.RCC_PLL_GetFreqDomain_SYS
                0x08002dc8       0x38 CMakeFiles/n7six.ApeX-k1.v7.6.5br3.dir/Drivers/PY32F071_HAL_Driver/Src/py32f071_ll_rcc.c.obj
                0x08002dc8                RCC_PLL_GetFreqDomain_SYS
 .text.RCC_GetSystemClockFreq
                0x08002e00       0x50 CMakeFiles/n7six.ApeX-k1.v7.6.5br3.dir/Drivers/PY32F071_HAL_Driver/Src/py32f071_ll_rcc.c.obj
                0x08002e00                RCC_GetSystemClockFreq
 .text.LL_RCC_GetSystemClocksFreq
                0x08002e50       0x18 CMakeFiles/n7six.ApeX-k1.v7.6.5br3.dir/Drivers/PY32F071_HAL_Driver/Src/py32f071_ll_rcc.c.obj
                0x08002e50                LL_RCC_GetSystemClocksFreq
 .text.LL_DMA_Init
                0x08002e68       0x4c CMakeFiles/n7six.ApeX-k1.v7.6.5br3.dir/Drivers/PY32F071_HAL_Driver/Src/py32f071_ll_dma.c.obj
                0x08002e68                LL_DMA_Init
 .text.LL_DMA_StructInit
                0x08002eb4       0x18 CMakeFiles/n7six.ApeX-k1.v7.6.5br3.dir/Drivers/PY32F071_HAL_Driver/Src/py32f071_ll_dma.c.obj
                0x08002eb4                LL_DMA_StructInit
 .text.LL_GPIO_Init
                0x08002ecc       0xa4 CMakeFiles/n7six.ApeX-k1.v7.6.5br3.dir/Drivers/PY32F071_HAL_Driver/Src/py32f071_ll_gpio.c.obj
                0x08002ecc                LL_GPIO_Init
 .text.LL_GPIO_StructInit
                0x08002f70       0x18 CMakeFiles/n7six.ApeX-k1.v7.6.5br3.dir/Drivers/PY32F071_HAL_Driver/Src/py32f071_ll_gpio.c.obj
                0x08002f70                LL_GPIO_StructInit
 .text.LL_SetSystemCoreClock
                0x08002f88        0xc CMakeFiles/n7six.ApeX-k1.v7.6.5br3.dir/Drivers/PY32F071_HAL_Driver/Src/py32f071_ll_utils.c.obj
                0x08002f88                LL_SetSystemCoreClock
 .text.LL_SPI_Init
                0x08002f94       0x68 CMakeFiles/n7six.ApeX-k1.v7.6.5br3.dir/Drivers/PY32F071_HAL_Driver/Src/py32f071_ll_spi.c.obj
                0x08002f94                LL_SPI_Init
 .text.LL_SPI_StructInit
                0x08002ffc       0x1a CMakeFiles/n7six.ApeX-k1.v7.6.5br3.dir/Drivers/PY32F071_HAL_Driver/Src/py32f071_ll_spi.c.obj
                0x08002ffc                LL_SPI_StructInit
 *fill*         0x08003016        0x2 
 .text.LL_USART_Init
                0x08003018       0xe4 CMakeFiles/n7six.ApeX-k1.v7.6.5br3.dir/Drivers/PY32F071_HAL_Driver/Src/py32f071_ll_usart.c.obj
                0x08003018                LL_USART_Init
 .text.LL_USART_StructInit
                0x080030fc       0x18 CMakeFiles/n7six.ApeX-k1.v7.6.5br3.dir/Drivers/PY32F071_HAL_Driver/Src/py32f071_ll_usart.c.obj
                0x080030fc                LL_USART_StructInit
 .text.BACKLIGHT_Sound
                0x08003114       0x28 CMakeFiles/n7six.ApeX-k1.v7.6.5br3.dir/App/driver/backlight.c.obj
 .text.BACKLIGHT_InitHardware
                0x0800313c       0xc4 CMakeFiles/n7six.ApeX-k1.v7.6.5br3.dir/App/driver/backlight.c.obj
                0x0800313c                BACKLIGHT_InitHardware
 .text.BACKLIGHT_IsOn
                0x08003200        0xc CMakeFiles/n7six.ApeX-k1.v7.6.5br3.dir/App/driver/backlight.c.obj
                0x08003200                BACKLIGHT_IsOn
 .text.BACKLIGHT_SetBrightness
                0x0800320c       0xbc CMakeFiles/n7six.ApeX-k1.v7.6.5br3.dir/App/driver/backlight.c.obj
                0x0800320c                BACKLIGHT_SetBrightness
 .text.BACKLIGHT_TurnOff
                0x080032c8       0x24 CMakeFiles/n7six.ApeX-k1.v7.6.5br3.dir/App/driver/backlight.c.obj
                0x080032c8                BACKLIGHT_TurnOff
 .text.BACKLIGHT_TurnOn
                0x080032ec       0x8c CMakeFiles/n7six.ApeX-k1.v7.6.5br3.dir/App/driver/backlight.c.obj
                0x080032ec                BACKLIGHT_TurnOn
 .text.BK4819_WriteU8
                0x08003378       0x54 CMakeFiles/n7six.ApeX-k1.v7.6.5br3.dir/App/driver/bk4829.c.obj
                0x08003378                BK4819_WriteU8
 .text.BK4819_ReadRegister
                0x080033cc       0x98 CMakeFiles/n7six.ApeX-k1.v7.6.5br3.dir/App/driver/bk4829.c.obj
                0x080033cc                BK4819_ReadRegister
 .text.BK4819_WriteU16
                0x08003464       0x54 CMakeFiles/n7six.ApeX-k1.v7.6.5br3.dir/App/driver/bk4829.c.obj
                0x08003464                BK4819_WriteU16
 .text.BK4819_WriteRegister
                0x080034b8       0x4c CMakeFiles/n7six.ApeX-k1.v7.6.5br3.dir/App/driver/bk4829.c.obj
                0x080034b8                BK4819_WriteRegister
 .text.BK4819_Init
                0x08003504      0x1d0 CMakeFiles/n7six.ApeX-k1.v7.6.5br3.dir/App/driver/bk4829.c.obj
                0x08003504                BK4819_Init
 .text.BK4819_SetAGC
                0x080036d4       0x30 CMakeFiles/n7six.ApeX-k1.v7.6.5br3.dir/App/driver/bk4829.c.obj
                0x080036d4                BK4819_SetAGC
 .text.BK4819_InitAGC
                0x08003704       0x64 CMakeFiles/n7six.ApeX-k1.v7.6.5br3.dir/App/driver/bk4829.c.obj
                0x08003704                BK4819_InitAGC
 .text.BK4819_ToggleGpioOut
                0x08003768       0x2c CMakeFiles/n7six.ApeX-k1.v7.6.5br3.dir/App/driver/bk4829.c.obj
                0x08003768                BK4819_ToggleGpioOut
 .text.BK4819_SetCDCSSCodeWord
                0x08003794       0x38 CMakeFiles/n7six.ApeX-k1.v7.6.5br3.dir/App/driver/bk4829.c.obj
                0x08003794                BK4819_SetCDCSSCodeWord
 .text.BK4819_SetCTCSSFrequency
                0x080037cc       0x48 CMakeFiles/n7six.ApeX-k1.v7.6.5br3.dir/App/driver/bk4829.c.obj
                0x080037cc                BK4819_SetCTCSSFrequency
 .text.BK4819_SetTailDetection
                0x08003814       0x24 CMakeFiles/n7six.ApeX-k1.v7.6.5br3.dir/App/driver/bk4829.c.obj
                0x08003814                BK4819_SetTailDetection
 .text.BK4819_EnableVox
                0x08003838       0x48 CMakeFiles/n7six.ApeX-k1.v7.6.5br3.dir/App/driver/bk4829.c.obj
                0x08003838                BK4819_EnableVox
 .text.BK4819_SetFilterBandwidth
                0x08003880       0x1c CMakeFiles/n7six.ApeX-k1.v7.6.5br3.dir/App/driver/bk4829.c.obj
                0x08003880                BK4819_SetFilterBandwidth
 .text.BK4819_SetupPowerAmplifier
                0x0800389c       0x20 CMakeFiles/n7six.ApeX-k1.v7.6.5br3.dir/App/driver/bk4829.c.obj
                0x0800389c                BK4819_SetupPowerAmplifier
 .text.BK4819_SetFrequency
                0x080038bc       0x16 CMakeFiles/n7six.ApeX-k1.v7.6.5br3.dir/App/driver/bk4829.c.obj
                0x080038bc                BK4819_SetFrequency
 *fill*         0x080038d2        0x2 
 .text.BK4819_SetAF
                0x080038d4       0x14 CMakeFiles/n7six.ApeX-k1.v7.6.5br3.dir/App/driver/bk4829.c.obj
                0x080038d4                BK4819_SetAF
 .text.BK4819_SetRegValue
                0x080038e8       0x2e CMakeFiles/n7six.ApeX-k1.v7.6.5br3.dir/App/driver/bk4829.c.obj
                0x080038e8                BK4819_SetRegValue
 *fill*         0x08003916        0x2 
 .text.BK4819_RX_TurnOn
                0x08003918       0x24 CMakeFiles/n7six.ApeX-k1.v7.6.5br3.dir/App/driver/bk4829.c.obj
                0x08003918                BK4819_RX_TurnOn
 .text.BK4819_SetupSquelch
                0x0800393c       0x56 CMakeFiles/n7six.ApeX-k1.v7.6.5br3.dir/App/driver/bk4829.c.obj
                0x0800393c                BK4819_SetupSquelch
 *fill*         0x08003992        0x2 
 .text.BK4819_PickRXFilterPathBasedOnFrequency
                0x08003994       0x30 CMakeFiles/n7six.ApeX-k1.v7.6.5br3.dir/App/driver/bk4829.c.obj
                0x08003994                BK4819_PickRXFilterPathBasedOnFrequency
 .text.BK4819_DisableScramble
                0x080039c4       0x1e CMakeFiles/n7six.ApeX-k1.v7.6.5br3.dir/App/driver/bk4829.c.obj
                0x080039c4                BK4819_DisableScramble
 *fill*         0x080039e2        0x2 
 .text.BK4819_SetCompander
                0x080039e4       0x54 CMakeFiles/n7six.ApeX-k1.v7.6.5br3.dir/App/driver/bk4829.c.obj
                0x080039e4                BK4819_SetCompander
 .text.BK4819_DisableVox
                0x08003a38       0x16 CMakeFiles/n7six.ApeX-k1.v7.6.5br3.dir/App/driver/bk4829.c.obj
                0x08003a38                BK4819_DisableVox
 .text.BK4819_DisableDTMF
                0x08003a4e        0xc CMakeFiles/n7six.ApeX-k1.v7.6.5br3.dir/App/driver/bk4829.c.obj
                0x08003a4e                BK4819_DisableDTMF
 *fill*         0x08003a5a        0x2 
 .text.BK4819_EnableDTMF
                0x08003a5c       0x1c CMakeFiles/n7six.ApeX-k1.v7.6.5br3.dir/App/driver/bk4829.c.obj
                0x08003a5c                BK4819_EnableDTMF
 .text.BK4819_EnterTxMute
                0x08003a78       0x10 CMakeFiles/n7six.ApeX-k1.v7.6.5br3.dir/App/driver/bk4829.c.obj
                0x08003a78                BK4819_EnterTxMute
 .text.BK4819_PlayTone
                0x08003a88       0x58 CMakeFiles/n7six.ApeX-k1.v7.6.5br3.dir/App/driver/bk4829.c.obj
                0x08003a88                BK4819_PlayTone
 .text.BK4819_ExitTxMute
                0x08003ae0       0x10 CMakeFiles/n7six.ApeX-k1.v7.6.5br3.dir/App/driver/bk4829.c.obj
                0x08003ae0                BK4819_ExitTxMute
 .text.BK4819_Sleep
                0x08003af0       0x16 CMakeFiles/n7six.ApeX-k1.v7.6.5br3.dir/App/driver/bk4829.c.obj
                0x08003af0                BK4819_Sleep
 *fill*         0x08003b06        0x2 
 .text.BK4819_TurnsOffTones_TurnsOnRX
                0x08003b08       0x2c CMakeFiles/n7six.ApeX-k1.v7.6.5br3.dir/App/driver/bk4829.c.obj
                0x08003b08                BK4819_TurnsOffTones_TurnsOnRX
 .text.BK4819_SetupAircopy
                0x08003b34       0x44 CMakeFiles/n7six.ApeX-k1.v7.6.5br3.dir/App/driver/bk4829.c.obj
                0x08003b34                BK4819_SetupAircopy
 .text.BK4819_Idle
                0x08003b78        0xc CMakeFiles/n7six.ApeX-k1.v7.6.5br3.dir/App/driver/bk4829.c.obj
                0x08003b78                BK4819_Idle
 .text.BK4819_ResetFSK
                0x08003b84       0x1e CMakeFiles/n7six.ApeX-k1.v7.6.5br3.dir/App/driver/bk4829.c.obj
                0x08003b84                BK4819_ResetFSK
 .text.BK4819_ExitBypass
                0x08003ba2       0x20 CMakeFiles/n7six.ApeX-k1.v7.6.5br3.dir/App/driver/bk4829.c.obj
                0x08003ba2                BK4819_ExitBypass
 *fill*         0x08003bc2        0x2 
 .text.BK4819_TxOn_Beep
                0x08003bc4       0x38 CMakeFiles/n7six.ApeX-k1.v7.6.5br3.dir/App/driver/bk4829.c.obj
                0x08003bc4                BK4819_TxOn_Beep
 .text.BK4819_PrepareTransmit
                0x08003bfc       0x10 CMakeFiles/n7six.ApeX-k1.v7.6.5br3.dir/App/driver/bk4829.c.obj
                0x08003bfc                BK4819_PrepareTransmit
 .text.BK4819_ExitSubAu
                0x08003c0c        0xc CMakeFiles/n7six.ApeX-k1.v7.6.5br3.dir/App/driver/bk4829.c.obj
                0x08003c0c                BK4819_ExitSubAu
 .text.BK4819_Conditional_RX_TurnOn_and_GPIO6_Enable
                0x08003c18       0x1c CMakeFiles/n7six.ApeX-k1.v7.6.5br3.dir/App/driver/bk4829.c.obj
                0x08003c18                BK4819_Conditional_RX_TurnOn_and_GPIO6_Enable
 .text.BK4819_ExitDTMF_TX
                0x08003c34       0x30 CMakeFiles/n7six.ApeX-k1.v7.6.5br3.dir/App/driver/bk4829.c.obj
                0x08003c34                BK4819_ExitDTMF_TX
 .text.BK4819_EnableTXLink
                0x08003c64       0x10 CMakeFiles/n7six.ApeX-k1.v7.6.5br3.dir/App/driver/bk4829.c.obj
                0x08003c64                BK4819_EnableTXLink
 .text.BK4819_PlaySingleTone
                0x08003c74       0x94 CMakeFiles/n7six.ApeX-k1.v7.6.5br3.dir/App/driver/bk4829.c.obj
                0x08003c74                BK4819_PlaySingleTone
 .text.BK4819_EnterDTMF_TX
                0x08003d08       0x2c CMakeFiles/n7six.ApeX-k1.v7.6.5br3.dir/App/driver/bk4829.c.obj
                0x08003d08                BK4819_EnterDTMF_TX
 .text.BK4819_PlayDTMF
                0x08003d34       0x7c CMakeFiles/n7six.ApeX-k1.v7.6.5br3.dir/App/driver/bk4829.c.obj
                0x08003d34                BK4819_PlayDTMF
 .text.BK4819_PlayDTMFString
                0x08003db0       0x5a CMakeFiles/n7six.ApeX-k1.v7.6.5br3.dir/App/driver/bk4829.c.obj
                0x08003db0                BK4819_PlayDTMFString
 *fill*         0x08003e0a        0x2 
 .text.BK4819_TransmitTone
                0x08003e0c       0x48 CMakeFiles/n7six.ApeX-k1.v7.6.5br3.dir/App/driver/bk4829.c.obj
                0x08003e0c                BK4819_TransmitTone
 .text.BK4819_GenTail
                0x08003e54       0x40 CMakeFiles/n7six.ApeX-k1.v7.6.5br3.dir/App/driver/bk4829.c.obj
                0x08003e54                BK4819_GenTail
 .text.BK4819_PlayCDCSSTail
                0x08003e94       0x18 CMakeFiles/n7six.ApeX-k1.v7.6.5br3.dir/App/driver/bk4829.c.obj
                0x08003e94                BK4819_PlayCDCSSTail
 .text.BK4819_PlayCTCSSTail
                0x08003eac       0x18 CMakeFiles/n7six.ApeX-k1.v7.6.5br3.dir/App/driver/bk4829.c.obj
                0x08003eac                BK4819_PlayCTCSSTail
 .text.BK4819_GetRSSI
                0x08003ec4        0xe CMakeFiles/n7six.ApeX-k1.v7.6.5br3.dir/App/driver/bk4829.c.obj
                0x08003ec4                BK4819_GetRSSI
 .text.BK4819_GetRSSI_dBm
                0x08003ed2        0xe CMakeFiles/n7six.ApeX-k1.v7.6.5br3.dir/App/driver/bk4829.c.obj
                0x08003ed2                BK4819_GetRSSI_dBm
 .text.BK4819_GetVoiceAmplitudeOut
                0x08003ee0        0xa CMakeFiles/n7six.ApeX-k1.v7.6.5br3.dir/App/driver/bk4829.c.obj
                0x08003ee0                BK4819_GetVoiceAmplitudeOut
 *fill*         0x08003eea        0x2 
 .text.BK4819_GetFrequencyScanResult
                0x08003eec       0x30 CMakeFiles/n7six.ApeX-k1.v7.6.5br3.dir/App/driver/bk4829.c.obj
                0x08003eec                BK4819_GetFrequencyScanResult
 .text.BK4819_GetCxCSSScanResult
                0x08003f1c       0x58 CMakeFiles/n7six.ApeX-k1.v7.6.5br3.dir/App/driver/bk4829.c.obj
                0x08003f1c                BK4819_GetCxCSSScanResult
 .text.BK4819_DisableFrequencyScan
                0x08003f74        0xe CMakeFiles/n7six.ApeX-k1.v7.6.5br3.dir/App/driver/bk4829.c.obj
                0x08003f74                BK4819_DisableFrequencyScan
 *fill*         0x08003f82        0x2 
 .text.BK4819_EnableFrequencyScan
                0x08003f84       0x10 CMakeFiles/n7six.ApeX-k1.v7.6.5br3.dir/App/driver/bk4829.c.obj
                0x08003f84                BK4819_EnableFrequencyScan
 .text.BK4819_SetScanFrequency
                0x08003f94       0x16 CMakeFiles/n7six.ApeX-k1.v7.6.5br3.dir/App/driver/bk4829.c.obj
                0x08003f94                BK4819_SetScanFrequency
 .text.BK4819_Disable
                0x08003faa        0x8 CMakeFiles/n7six.ApeX-k1.v7.6.5br3.dir/App/driver/bk4829.c.obj
                0x08003faa                BK4819_Disable
 .text.BK4819_StopScan
                0x08003fb2        0xc CMakeFiles/n7six.ApeX-k1.v7.6.5br3.dir/App/driver/bk4829.c.obj
                0x08003fb2                BK4819_StopScan
 .text.BK4819_GetDTMF_5TONE_Code
                0x08003fbe        0xe CMakeFiles/n7six.ApeX-k1.v7.6.5br3.dir/App/driver/bk4829.c.obj
                0x08003fbe                BK4819_GetDTMF_5TONE_Code
 .text.BK4819_GetCDCSSCodeType
                0x08003fcc        0xe CMakeFiles/n7six.ApeX-k1.v7.6.5br3.dir/App/driver/bk4829.c.obj
                0x08003fcc                BK4819_GetCDCSSCodeType
 .text.BK4819_GetCTCType
                0x08003fda        0xe CMakeFiles/n7six.ApeX-k1.v7.6.5br3.dir/App/driver/bk4829.c.obj
                0x08003fda                BK4819_GetCTCType
 .text.BK4819_SendFSKData
                0x08003fe8       0x7c CMakeFiles/n7six.ApeX-k1.v7.6.5br3.dir/App/driver/bk4829.c.obj
                0x08003fe8                BK4819_SendFSKData
 .text.BK4819_PrepareFSKReceive
                0x08004064       0x40 CMakeFiles/n7six.ApeX-k1.v7.6.5br3.dir/App/driver/bk4829.c.obj
                0x08004064                BK4819_PrepareFSKReceive
 .text.BK4819_PlayRogerMDC
                0x080040a4       0x78 CMakeFiles/n7six.ApeX-k1.v7.6.5br3.dir/App/driver/bk4829.c.obj
                0x080040a4                BK4819_PlayRogerMDC
 .text.BK4819_PlayRoger
                0x0800411c       0x80 CMakeFiles/n7six.ApeX-k1.v7.6.5br3.dir/App/driver/bk4829.c.obj
                0x0800411c                BK4819_PlayRoger
 .text.BK4819_PlayDTMFEx
                0x0800419c       0x3c CMakeFiles/n7six.ApeX-k1.v7.6.5br3.dir/App/driver/bk4829.c.obj
                0x0800419c                BK4819_PlayDTMFEx
 .text.SPI_WriteByte
                0x080041d8       0x20 CMakeFiles/n7six.ApeX-k1.v7.6.5br3.dir/App/driver/py25q16.c.obj
 .text.WriteAddr
                0x080041f8       0x1c CMakeFiles/n7six.ApeX-k1.v7.6.5br3.dir/App/driver/py25q16.c.obj
 .text.WaitWIP  0x08004214       0x30 CMakeFiles/n7six.ApeX-k1.v7.6.5br3.dir/App/driver/py25q16.c.obj
 .text.SectorErase
                0x08004244       0x2e CMakeFiles/n7six.ApeX-k1.v7.6.5br3.dir/App/driver/py25q16.c.obj
 *fill*         0x08004272        0x2 
 .text.SectorProgram
                0x08004274      0x12c CMakeFiles/n7six.ApeX-k1.v7.6.5br3.dir/App/driver/py25q16.c.obj
 .text.PY25Q16_Init
                0x080043a0       0xf0 CMakeFiles/n7six.ApeX-k1.v7.6.5br3.dir/App/driver/py25q16.c.obj
                0x080043a0                PY25Q16_Init
 .text.PY25Q16_ReadBuffer
                0x08004490       0xf4 CMakeFiles/n7six.ApeX-k1.v7.6.5br3.dir/App/driver/py25q16.c.obj
                0x08004490                PY25Q16_ReadBuffer
 .text.PY25Q16_WriteBuffer
                0x08004584       0xdc CMakeFiles/n7six.ApeX-k1.v7.6.5br3.dir/App/driver/py25q16.c.obj
                0x08004584                PY25Q16_WriteBuffer
 .text.PY25Q16_SectorErase
                0x08004660       0x2c CMakeFiles/n7six.ApeX-k1.v7.6.5br3.dir/App/driver/py25q16.c.obj
                0x08004660                PY25Q16_SectorErase
 .text.DMA1_Channel4_5_6_7_IRQHandler
                0x0800468c       0x64 CMakeFiles/n7six.ApeX-k1.v7.6.5br3.dir/App/driver/py25q16.c.obj
                0x0800468c                DMA1_Channel4_5_6_7_IRQHandler
 .text.I2C_Start
                0x080046f0       0x30 CMakeFiles/n7six.ApeX-k1.v7.6.5br3.dir/App/driver/i2c.c.obj
                0x080046f0                I2C_Start
 .text.I2C_Stop
                0x08004720       0x30 CMakeFiles/n7six.ApeX-k1.v7.6.5br3.dir/App/driver/i2c.c.obj
                0x08004720                I2C_Stop
 .text.I2C_Read
                0x08004750       0x98 CMakeFiles/n7six.ApeX-k1.v7.6.5br3.dir/App/driver/i2c.c.obj
                0x08004750                I2C_Read
 .text.I2C_Write
                0x080047e8       0xa4 CMakeFiles/n7six.ApeX-k1.v7.6.5br3.dir/App/driver/i2c.c.obj
                0x080047e8                I2C_Write
 .text.I2C_ReadBuffer
                0x0800488c       0x3e CMakeFiles/n7six.ApeX-k1.v7.6.5br3.dir/App/driver/i2c.c.obj
                0x0800488c                I2C_ReadBuffer
 .text.I2C_WriteBuffer
                0x080048ca       0x20 CMakeFiles/n7six.ApeX-k1.v7.6.5br3.dir/App/driver/i2c.c.obj
                0x080048ca                I2C_WriteBuffer
 *fill*         0x080048ea        0x2 
 .text.KEYBOARD_Poll
                0x080048ec       0x8c CMakeFiles/n7six.ApeX-k1.v7.6.5br3.dir/App/driver/keyboard.c.obj
                0x080048ec                KEYBOARD_Poll
 .text.SPI_WriteByte.isra.0
                0x08004978       0x1c CMakeFiles/n7six.ApeX-k1.v7.6.5br3.dir/App/driver/st7565.c.obj
 .text.map      0x08004994       0x1c CMakeFiles/n7six.ApeX-k1.v7.6.5br3.dir/App/driver/st7565.c.obj
                0x08004994                map
 .text.ST7565_Gauge
                0x080049b0       0x50 CMakeFiles/n7six.ApeX-k1.v7.6.5br3.dir/App/driver/st7565.c.obj
                0x080049b0                ST7565_Gauge
 .text.ST7565_HardwareReset
                0x08004a00        0x2 CMakeFiles/n7six.ApeX-k1.v7.6.5br3.dir/App/driver/st7565.c.obj
                0x08004a00                ST7565_HardwareReset
 .text.ST7565_SelectColumnAndLine
                0x08004a02       0x28 CMakeFiles/n7six.ApeX-k1.v7.6.5br3.dir/App/driver/st7565.c.obj
                0x08004a02                ST7565_SelectColumnAndLine
 .text.DrawLine
                0x08004a2a       0x30 CMakeFiles/n7six.ApeX-k1.v7.6.5br3.dir/App/driver/st7565.c.obj
 *fill*         0x08004a5a        0x2 
 .text.ST7565_DrawLine
                0x08004a5c       0x18 CMakeFiles/n7six.ApeX-k1.v7.6.5br3.dir/App/driver/st7565.c.obj
                0x08004a5c                ST7565_DrawLine
 .text.ST7565_WriteByte
                0x08004a74       0x10 CMakeFiles/n7six.ApeX-k1.v7.6.5br3.dir/App/driver/st7565.c.obj
                0x08004a74                ST7565_WriteByte
 .text.ST7565_BlitScreen
                0x08004a84       0x5c CMakeFiles/n7six.ApeX-k1.v7.6.5br3.dir/App/driver/st7565.c.obj
 .text.ST7565_BlitFullScreen
                0x08004ae0        0xa CMakeFiles/n7six.ApeX-k1.v7.6.5br3.dir/App/driver/st7565.c.obj
                0x08004ae0                ST7565_BlitFullScreen
 .text.ST7565_BlitLine
                0x08004aea        0xc CMakeFiles/n7six.ApeX-k1.v7.6.5br3.dir/App/driver/st7565.c.obj
                0x08004aea                ST7565_BlitLine
 .text.ST7565_BlitStatusLine
                0x08004af6        0xa CMakeFiles/n7six.ApeX-k1.v7.6.5br3.dir/App/driver/st7565.c.obj
                0x08004af6                ST7565_BlitStatusLine
 .text.ST7565_FillScreen
                0x08004b00       0x5c CMakeFiles/n7six.ApeX-k1.v7.6.5br3.dir/App/driver/st7565.c.obj
                0x08004b00                ST7565_FillScreen
 .text.ST7565_Cmd
                0x08004b5c       0x34 CMakeFiles/n7six.ApeX-k1.v7.6.5br3.dir/App/driver/st7565.c.obj
 .text.ST7565_FixInterfGlitch
                0x08004b90       0x24 CMakeFiles/n7six.ApeX-k1.v7.6.5br3.dir/App/driver/st7565.c.obj
                0x08004b90                ST7565_FixInterfGlitch
 .text.ST7565_ContrastAndInv
                0x08004bb4       0x28 CMakeFiles/n7six.ApeX-k1.v7.6.5br3.dir/App/driver/st7565.c.obj
                0x08004bb4                ST7565_ContrastAndInv
 .text.ST7565_Init
                0x08004bdc      0x10c CMakeFiles/n7six.ApeX-k1.v7.6.5br3.dir/App/driver/st7565.c.obj
                0x08004bdc                ST7565_Init
 .text.ST7565_ShutDown
                0x08004ce8       0x24 CMakeFiles/n7six.ApeX-k1.v7.6.5br3.dir/App/driver/st7565.c.obj
                0x08004ce8                ST7565_ShutDown
 .text.SYSTEM_DelayMs
                0x08004d0c        0xe CMakeFiles/n7six.ApeX-k1.v7.6.5br3.dir/App/driver/system.c.obj
                0x08004d0c                SYSTEM_DelayMs
 *fill*         0x08004d1a        0x2 
 .text.SYSTICK_Init
                0x08004d1c       0x40 CMakeFiles/n7six.ApeX-k1.v7.6.5br3.dir/App/driver/systick.c.obj
                0x08004d1c                SYSTICK_Init
 .text.SYSTICK_DelayUs
                0x08004d5c       0x34 CMakeFiles/n7six.ApeX-k1.v7.6.5br3.dir/App/driver/systick.c.obj
                0x08004d5c                SYSTICK_DelayUs
 .text.ACTION_Power
                0x08004d90       0x34 CMakeFiles/n7six.ApeX-k1.v7.6.5br3.dir/App/app/action.c.obj
                0x08004d90                ACTION_Power
 .text.ACTION_SwitchDemodul
                0x08004dc4       0x24 CMakeFiles/n7six.ApeX-k1.v7.6.5br3.dir/App/app/action.c.obj
                0x08004dc4                ACTION_SwitchDemodul
 .text.ACTION_Vox
                0x08004de8       0x28 CMakeFiles/n7six.ApeX-k1.v7.6.5br3.dir/App/app/action.c.obj
                0x08004de8                ACTION_Vox
 .text.ACTION_Ptt
                0x08004e10       0x10 CMakeFiles/n7six.ApeX-k1.v7.6.5br3.dir/App/app/action.c.obj
                0x08004e10                ACTION_Ptt
 .text.ACTION_Power_High
                0x08004e20       0x1c CMakeFiles/n7six.ApeX-k1.v7.6.5br3.dir/App/app/action.c.obj
                0x08004e20                ACTION_Power_High
 .text.ACTION_Remove_Offset
                0x08004e3c       0x1c CMakeFiles/n7six.ApeX-k1.v7.6.5br3.dir/App/app/action.c.obj
                0x08004e3c                ACTION_Remove_Offset
 .text.ACTION_BackLight
                0x08004e58       0x28 CMakeFiles/n7six.ApeX-k1.v7.6.5br3.dir/App/app/action.c.obj
                0x08004e58                ACTION_BackLight
 .text.ACTION_Mute
                0x08004e80       0x60 CMakeFiles/n7six.ApeX-k1.v7.6.5br3.dir/App/app/action.c.obj
                0x08004e80                ACTION_Mute
 .text.ACTION_Monitor
                0x08004ee0       0xd8 CMakeFiles/n7six.ApeX-k1.v7.6.5br3.dir/App/app/action.c.obj
                0x08004ee0                ACTION_Monitor
 .text.ACTION_FM
                0x08004fb8       0x64 CMakeFiles/n7six.ApeX-k1.v7.6.5br3.dir/App/app/action.c.obj
                0x08004fb8                ACTION_FM
 .text.ACTION_Wn
                0x0800501c       0x5c CMakeFiles/n7six.ApeX-k1.v7.6.5br3.dir/App/app/action.c.obj
                0x0800501c                ACTION_Wn
 .text.ACTION_1750
                0x08005078       0x48 CMakeFiles/n7six.ApeX-k1.v7.6.5br3.dir/App/app/action.c.obj
 .text.ACTION_Scan
                0x080050c0      0x15c CMakeFiles/n7six.ApeX-k1.v7.6.5br3.dir/App/app/action.c.obj
                0x080050c0                ACTION_Scan
 .text.ACTION_ScanRestart
                0x0800521c        0xa CMakeFiles/n7six.ApeX-k1.v7.6.5br3.dir/App/app/action.c.obj
 *fill*         0x08005226        0x2 
 .text.ACTION_Handle
                0x08005228       0xd0 CMakeFiles/n7six.ApeX-k1.v7.6.5br3.dir/App/app/action.c.obj
                0x08005228                ACTION_Handle
 .text.ACTION_Update
                0x080052f8       0x20 CMakeFiles/n7six.ApeX-k1.v7.6.5br3.dir/App/app/action.c.obj
                0x080052f8                ACTION_Update
 .text.ACTION_RxMode
                0x08005318       0x34 CMakeFiles/n7six.ApeX-k1.v7.6.5br3.dir/App/app/action.c.obj
                0x08005318                ACTION_RxMode
 .text.ACTION_MainOnly
                0x0800534c       0x44 CMakeFiles/n7six.ApeX-k1.v7.6.5br3.dir/App/app/action.c.obj
                0x0800534c                ACTION_MainOnly
 .text.ACTION_BackLightOnDemand
                0x08005390       0x4c CMakeFiles/n7six.ApeX-k1.v7.6.5br3.dir/App/app/action.c.obj
                0x08005390                ACTION_BackLightOnDemand
 .text.NOAA_IncreaseChannel
                0x080053dc       0x18 CMakeFiles/n7six.ApeX-k1.v7.6.5br3.dir/App/app/app.c.obj
 .text.DualwatchAlternate
                0x080053f4       0xac CMakeFiles/n7six.ApeX-k1.v7.6.5br3.dir/App/app/app.c.obj
 .text.HandleReceive
                0x080054a0      0x228 CMakeFiles/n7six.ApeX-k1.v7.6.5br3.dir/App/app/app.c.obj
 .text.CheckForIncoming
                0x080056c8       0xc0 CMakeFiles/n7six.ApeX-k1.v7.6.5br3.dir/App/app/app.c.obj
 .text.HandlePowerSave
                0x08005788       0x14 CMakeFiles/n7six.ApeX-k1.v7.6.5br3.dir/App/app/app.c.obj
 .text.APP_StartListening
                0x0800579c      0x16c CMakeFiles/n7six.ApeX-k1.v7.6.5br3.dir/App/app/app.c.obj
                0x0800579c                APP_StartListening
 .text.HandleIncoming
                0x08005908       0xc8 CMakeFiles/n7six.ApeX-k1.v7.6.5br3.dir/App/app/app.c.obj
 .text.APP_SetFreqByStepAndLimits
                0x080059d0       0x2c CMakeFiles/n7six.ApeX-k1.v7.6.5br3.dir/App/app/app.c.obj
                0x080059d0                APP_SetFreqByStepAndLimits
 .text.APP_SetFrequencyByStep
                0x080059fc       0x1c CMakeFiles/n7six.ApeX-k1.v7.6.5br3.dir/App/app/app.c.obj
                0x080059fc                APP_SetFrequencyByStep
 .text.APP_EndTransmission
                0x08005a18       0x28 CMakeFiles/n7six.ApeX-k1.v7.6.5br3.dir/App/app/app.c.obj
                0x08005a18                APP_EndTransmission
 .text.cancelUserInputModes
                0x08005a40       0x7c CMakeFiles/n7six.ApeX-k1.v7.6.5br3.dir/App/app/app.c.obj
                0x08005a40                cancelUserInputModes
 .text.ProcessKey
                0x08005abc      0x6bc CMakeFiles/n7six.ApeX-k1.v7.6.5br3.dir/App/app/app.c.obj
 .text.APP_Update
                0x08006178      0x568 CMakeFiles/n7six.ApeX-k1.v7.6.5br3.dir/App/app/app.c.obj
                0x08006178                APP_Update
 .text.APP_TimeSlice10ms
                0x080066e0      0x614 CMakeFiles/n7six.ApeX-k1.v7.6.5br3.dir/App/app/app.c.obj
                0x080066e0                APP_TimeSlice10ms
 .text.APP_TimeSlice500ms
                0x08006cf4      0x494 CMakeFiles/n7six.ApeX-k1.v7.6.5br3.dir/App/app/app.c.obj
                0x08006cf4                APP_TimeSlice500ms
 .text.NextMemChannel
                0x08007188      0x118 CMakeFiles/n7six.ApeX-k1.v7.6.5br3.dir/App/app/chFrScanner.c.obj
 .text.NextFreqChannel
                0x080072a0       0x60 CMakeFiles/n7six.ApeX-k1.v7.6.5br3.dir/App/app/chFrScanner.c.obj
 .text.CHFRSCANNER_Start
                0x08007300       0xb4 CMakeFiles/n7six.ApeX-k1.v7.6.5br3.dir/App/app/chFrScanner.c.obj
                0x08007300                CHFRSCANNER_Start
 .text.CHFRSCANNER_ContinueScanning
                0x080073b4       0x6c CMakeFiles/n7six.ApeX-k1.v7.6.5br3.dir/App/app/chFrScanner.c.obj
                0x080073b4                CHFRSCANNER_ContinueScanning
 .text.CHFRSCANNER_Found
                0x08007420       0x78 CMakeFiles/n7six.ApeX-k1.v7.6.5br3.dir/App/app/chFrScanner.c.obj
                0x08007420                CHFRSCANNER_Found
 .text.CHFRSCANNER_Stop
                0x08007498       0xb4 CMakeFiles/n7six.ApeX-k1.v7.6.5br3.dir/App/app/chFrScanner.c.obj
                0x08007498                CHFRSCANNER_Stop
 .text.COMMON_KeypadLockToggle
                0x0800754c       0x30 CMakeFiles/n7six.ApeX-k1.v7.6.5br3.dir/App/app/common.c.obj
                0x0800754c                COMMON_KeypadLockToggle
 .text.COMMON_SwitchVFOs
                0x0800757c       0x54 CMakeFiles/n7six.ApeX-k1.v7.6.5br3.dir/App/app/common.c.obj
                0x0800757c                COMMON_SwitchVFOs
 .text.COMMON_SwitchVFOMode
                0x080075d0       0x5c CMakeFiles/n7six.ApeX-k1.v7.6.5br3.dir/App/app/common.c.obj
                0x080075d0                COMMON_SwitchVFOMode
 .text.DTMF_BufferShiftAppend
                0x0800762c       0x3c CMakeFiles/n7six.ApeX-k1.v7.6.5br3.dir/App/app/dtmf.c.obj
                0x0800762c                DTMF_BufferShiftAppend
 .text.DTMF_SendEndOfTransmission
                0x08007668       0xa4 CMakeFiles/n7six.ApeX-k1.v7.6.5br3.dir/App/app/dtmf.c.obj
                0x08007668                DTMF_SendEndOfTransmission
 .text.DTMF_IsValidChar
                0x0800770c       0x20 CMakeFiles/n7six.ApeX-k1.v7.6.5br3.dir/App/app/dtmf.c.obj
                0x0800770c                DTMF_IsValidChar
 .text.DTMF_ValidateCodes
                0x0800772c       0x34 CMakeFiles/n7six.ApeX-k1.v7.6.5br3.dir/App/app/dtmf.c.obj
                0x0800772c                DTMF_ValidateCodes
 .text.DTMF_GetCharacter
                0x08007760       0x20 CMakeFiles/n7six.ApeX-k1.v7.6.5br3.dir/App/app/dtmf.c.obj
                0x08007760                DTMF_GetCharacter
 .text.DTMF_clear_input_box
                0x08007780       0x24 CMakeFiles/n7six.ApeX-k1.v7.6.5br3.dir/App/app/dtmf.c.obj
                0x08007780                DTMF_clear_input_box
 .text.DTMF_Append
                0x080077a4       0x34 CMakeFiles/n7six.ApeX-k1.v7.6.5br3.dir/App/app/dtmf.c.obj
                0x080077a4                DTMF_Append
 .text.DTMF_Reply
                0x080077d8       0xb8 CMakeFiles/n7six.ApeX-k1.v7.6.5br3.dir/App/app/dtmf.c.obj
                0x080077d8                DTMF_Reply
 .text.APP_SubscribeEvent
                0x08007890       0x48 CMakeFiles/n7six.ApeX-k1.v7.6.5br3.dir/App/app/events.c.obj
                0x08007890                APP_SubscribeEvent
 .text.APP_EventSystem_Init
                0x080078d8       0x20 CMakeFiles/n7six.ApeX-k1.v7.6.5br3.dir/App/app/events.c.obj
                0x080078d8                APP_EventSystem_Init
 .text.APP_InitializeEventHandlers
                0x080078f8       0x28 CMakeFiles/n7six.ApeX-k1.v7.6.5br3.dir/App/app/events_handlers.c.obj
                0x080078f8                APP_InitializeEventHandlers
 .text.GENERIC_Key_F
                0x08007920       0x9c CMakeFiles/n7six.ApeX-k1.v7.6.5br3.dir/App/app/generic.c.obj
                0x08007920                GENERIC_Key_F
 .text.GENERIC_Key_PTT
                0x080079bc      0x18c CMakeFiles/n7six.ApeX-k1.v7.6.5br3.dir/App/app/generic.c.obj
                0x080079bc                GENERIC_Key_PTT
 .text.processFKeyFunction
                0x08007b48      0x3bc CMakeFiles/n7six.ApeX-k1.v7.6.5br3.dir/App/app/main.c.obj
 .text.MAIN_Key_UP_DOWN.part.0
                0x08007f04      0x108 CMakeFiles/n7six.ApeX-k1.v7.6.5br3.dir/App/app/main.c.obj
 .text.channelMove
                0x0800800c       0x60 CMakeFiles/n7six.ApeX-k1.v7.6.5br3.dir/App/app/main.c.obj
                0x0800800c                channelMove
 .text.channelMoveSwitch
                0x0800806c       0x68 CMakeFiles/n7six.ApeX-k1.v7.6.5br3.dir/App/app/main.c.obj
                0x0800806c                channelMoveSwitch
 .text.MAIN_ProcessKeys
                0x080080d4      0x628 CMakeFiles/n7six.ApeX-k1.v7.6.5br3.dir/App/app/main.c.obj
                0x080080d4                MAIN_ProcessKeys
 .text.MENU_StartCssScan
                0x080086fc       0x24 CMakeFiles/n7six.ApeX-k1.v7.6.5br3.dir/App/app/menu.c.obj
                0x080086fc                MENU_StartCssScan
 .text.MENU_StopCssScan
                0x08008720       0x20 CMakeFiles/n7six.ApeX-k1.v7.6.5br3.dir/App/app/menu.c.obj
                0x08008720                MENU_StopCssScan
 .text.MENU_GetLimits
                0x08008740       0xe8 CMakeFiles/n7six.ApeX-k1.v7.6.5br3.dir/App/app/menu.c.obj
                0x08008740                MENU_GetLimits
 .text.MENU_Key_UP_DOWN
                0x08008828      0x1c8 CMakeFiles/n7six.ApeX-k1.v7.6.5br3.dir/App/app/menu.c.obj
 .text.MENU_AcceptSetting
                0x080089f0      0x5d8 CMakeFiles/n7six.ApeX-k1.v7.6.5br3.dir/App/app/menu.c.obj
                0x080089f0                MENU_AcceptSetting
 .text.MENU_ShowCurrentSetting
                0x08008fc8      0x420 CMakeFiles/n7six.ApeX-k1.v7.6.5br3.dir/App/app/menu.c.obj
                0x08008fc8                MENU_ShowCurrentSetting
 .text.MENU_CssScanFound
                0x080093e8       0x3c CMakeFiles/n7six.ApeX-k1.v7.6.5br3.dir/App/app/menu.c.obj
                0x080093e8                MENU_CssScanFound
 .text.MENU_ProcessKeys
                0x08009424      0x55c CMakeFiles/n7six.ApeX-k1.v7.6.5br3.dir/App/app/menu.c.obj
                0x08009424                MENU_ProcessKeys
 .text.SCANNER_Key_UP_DOWN
                0x08009980       0x68 CMakeFiles/n7six.ApeX-k1.v7.6.5br3.dir/App/app/scanner.c.obj
 .text.SCANNER_Start
                0x080099e8      0x120 CMakeFiles/n7six.ApeX-k1.v7.6.5br3.dir/App/app/scanner.c.obj
                0x080099e8                SCANNER_Start
 .text.SCANNER_IsScanning
                0x08009b08       0x20 CMakeFiles/n7six.ApeX-k1.v7.6.5br3.dir/App/app/scanner.c.obj
                0x08009b08                SCANNER_IsScanning
 .text.SCANNER_Stop
                0x08009b28       0x50 CMakeFiles/n7six.ApeX-k1.v7.6.5br3.dir/App/app/scanner.c.obj
                0x08009b28                SCANNER_Stop
 .text.SCANNER_ProcessKeys
                0x08009b78      0x2bc CMakeFiles/n7six.ApeX-k1.v7.6.5br3.dir/App/app/scanner.c.obj
                0x08009b78                SCANNER_ProcessKeys
 .text.SCANNER_TimeSlice10ms
                0x08009e34      0x184 CMakeFiles/n7six.ApeX-k1.v7.6.5br3.dir/App/app/scanner.c.obj
                0x08009e34                SCANNER_TimeSlice10ms
 .text.SCANNER_TimeSlice500ms
                0x08009fb8       0x48 CMakeFiles/n7six.ApeX-k1.v7.6.5br3.dir/App/app/scanner.c.obj
                0x08009fb8                SCANNER_TimeSlice500ms
 .text.AUDIO_PlayBeep
                0x0800a000      0x178 CMakeFiles/n7six.ApeX-k1.v7.6.5br3.dir/App/audio.c.obj
                0x0800a000                AUDIO_PlayBeep
 .text.BOARD_GPIO_Init
                0x0800a178       0xbc CMakeFiles/n7six.ApeX-k1.v7.6.5br3.dir/App/board.c.obj
                0x0800a178                BOARD_GPIO_Init
 .text.BOARD_ADC_Init
                0x0800a234      0x1bc CMakeFiles/n7six.ApeX-k1.v7.6.5br3.dir/App/board.c.obj
                0x0800a234                BOARD_ADC_Init
 .text.BOARD_ADC_GetBatteryInfo
                0x0800a3f0       0x2c CMakeFiles/n7six.ApeX-k1.v7.6.5br3.dir/App/board.c.obj
                0x0800a3f0                BOARD_ADC_GetBatteryInfo
 .text.BOARD_Init
                0x0800a41c       0x20 CMakeFiles/n7six.ApeX-k1.v7.6.5br3.dir/App/board.c.obj
                0x0800a41c                BOARD_Init
 .text.DCS_GetGolayCodeWord
                0x0800a43c       0x4c CMakeFiles/n7six.ApeX-k1.v7.6.5br3.dir/App/dcs.c.obj
                0x0800a43c                DCS_GetGolayCodeWord
 .text.DCS_GetCdcssCode
                0x0800a488       0x5c CMakeFiles/n7six.ApeX-k1.v7.6.5br3.dir/App/dcs.c.obj
                0x0800a488                DCS_GetCdcssCode
 .text.DCS_GetCtcssCode
                0x0800a4e4       0x2c CMakeFiles/n7six.ApeX-k1.v7.6.5br3.dir/App/dcs.c.obj
                0x0800a4e4                DCS_GetCtcssCode
 .text.FREQUENCY_GetStepIdxFromSortedIdx
                0x0800a510        0xc CMakeFiles/n7six.ApeX-k1.v7.6.5br3.dir/App/frequencies.c.obj
                0x0800a510                FREQUENCY_GetStepIdxFromSortedIdx
 .text.FREQUENCY_GetSortedIdxFromStepIdx
                0x0800a51c       0x1c CMakeFiles/n7six.ApeX-k1.v7.6.5br3.dir/App/frequencies.c.obj
                0x0800a51c                FREQUENCY_GetSortedIdxFromStepIdx
 .text.FREQUENCY_GetBand
                0x0800a538       0x1c CMakeFiles/n7six.ApeX-k1.v7.6.5br3.dir/App/frequencies.c.obj
                0x0800a538                FREQUENCY_GetBand
 .text.FREQUENCY_CalculateOutputPower
                0x0800a554       0x36 CMakeFiles/n7six.ApeX-k1.v7.6.5br3.dir/App/frequencies.c.obj
                0x0800a554                FREQUENCY_CalculateOutputPower
 *fill*         0x0800a58a        0x2 
 .text.FREQUENCY_RoundToStep
                0x0800a58c       0x64 CMakeFiles/n7six.ApeX-k1.v7.6.5br3.dir/App/frequencies.c.obj
                0x0800a58c                FREQUENCY_RoundToStep
 .text.TX_freq_check
                0x0800a5f0      0x1a4 CMakeFiles/n7six.ApeX-k1.v7.6.5br3.dir/App/frequencies.c.obj
                0x0800a5f0                TX_freq_check
 .text.RX_freq_check
                0x0800a794       0x34 CMakeFiles/n7six.ApeX-k1.v7.6.5br3.dir/App/frequencies.c.obj
                0x0800a794                RX_freq_check
 .text.FUNCTION_IsRx
                0x0800a7c8       0x18 CMakeFiles/n7six.ApeX-k1.v7.6.5br3.dir/App/functions.c.obj
                0x0800a7c8                FUNCTION_IsRx
 .text.FUNCTION_Init
                0x0800a7e0       0xa4 CMakeFiles/n7six.ApeX-k1.v7.6.5br3.dir/App/functions.c.obj
                0x0800a7e0                FUNCTION_Init
 .text.FUNCTION_Foreground
                0x0800a884       0x44 CMakeFiles/n7six.ApeX-k1.v7.6.5br3.dir/App/functions.c.obj
                0x0800a884                FUNCTION_Foreground
 .text.FUNCTION_PowerSave
                0x0800a8c8       0x80 CMakeFiles/n7six.ApeX-k1.v7.6.5br3.dir/App/functions.c.obj
                0x0800a8c8                FUNCTION_PowerSave
 .text.FUNCTION_Transmit
                0x0800a948       0xd0 CMakeFiles/n7six.ApeX-k1.v7.6.5br3.dir/App/functions.c.obj
                0x0800a948                FUNCTION_Transmit
 .text.FUNCTION_Select
                0x0800aa18       0xd0 CMakeFiles/n7six.ApeX-k1.v7.6.5br3.dir/App/functions.c.obj
                0x0800aa18                FUNCTION_Select
 .text.BATTERY_VoltsToPercent
                0x0800aae8       0x7c CMakeFiles/n7six.ApeX-k1.v7.6.5br3.dir/App/helper/battery.c.obj
                0x0800aae8                BATTERY_VoltsToPercent
 .text.BATTERY_GetReadings
                0x0800ab64      0x16c CMakeFiles/n7six.ApeX-k1.v7.6.5br3.dir/App/helper/battery.c.obj
                0x0800ab64                BATTERY_GetReadings
 .text.BATTERY_TimeSlice500ms
                0x0800acd0       0xb4 CMakeFiles/n7six.ApeX-k1.v7.6.5br3.dir/App/helper/battery.c.obj
                0x0800acd0                BATTERY_TimeSlice500ms
 .text.BATTERY_IsVoltageSafeForCriticalOps
                0x0800ad84       0x18 CMakeFiles/n7six.ApeX-k1.v7.6.5br3.dir/App/helper/battery.c.obj
                0x0800ad84                BATTERY_IsVoltageSafeForCriticalOps
 .text.BOOT_GetMode
                0x0800ad9c       0x74 CMakeFiles/n7six.ApeX-k1.v7.6.5br3.dir/App/helper/boot.c.obj
                0x0800ad9c                BOOT_GetMode
 .text.BOOT_ProcessMode
                0x0800ae10       0x9c CMakeFiles/n7six.ApeX-k1.v7.6.5br3.dir/App/helper/boot.c.obj
                0x0800ae10                BOOT_ProcessMode
 .text.FUNCTION_NOP
                0x0800aeac        0x2 CMakeFiles/n7six.ApeX-k1.v7.6.5br3.dir/App/misc.c.obj
                0x0800aeac                FUNCTION_NOP
 *fill*         0x0800aeae        0x2 
 .text.NUMBER_AddWithWraparound
                0x0800aeb0       0x20 CMakeFiles/n7six.ApeX-k1.v7.6.5br3.dir/App/misc.c.obj
                0x0800aeb0                NUMBER_AddWithWraparound
 .text.StrToUL  0x0800aed0       0x2a CMakeFiles/n7six.ApeX-k1.v7.6.5br3.dir/App/misc.c.obj
                0x0800aed0                StrToUL
 *fill*         0x0800aefa        0x2 
 .text.RADIO_SelectCurrentVfo
                0x0800aefc       0x34 CMakeFiles/n7six.ApeX-k1.v7.6.5br3.dir/App/radio.c.obj
 .text.RADIO_CheckValidChannel
                0x0800af30       0x88 CMakeFiles/n7six.ApeX-k1.v7.6.5br3.dir/App/radio.c.obj
                0x0800af30                RADIO_CheckValidChannel
 .text.RADIO_FindNextChannel
                0x0800afb8       0x3c CMakeFiles/n7six.ApeX-k1.v7.6.5br3.dir/App/radio.c.obj
                0x0800afb8                RADIO_FindNextChannel
 .text.RADIO_ConfigureSquelchAndOutputPower
                0x0800aff4      0x1d4 CMakeFiles/n7six.ApeX-k1.v7.6.5br3.dir/App/radio.c.obj
                0x0800aff4                RADIO_ConfigureSquelchAndOutputPower
 .text.RADIO_InitInfo
                0x0800b1c8       0x6c CMakeFiles/n7six.ApeX-k1.v7.6.5br3.dir/App/radio.c.obj
                0x0800b1c8                RADIO_InitInfo
 .text.RADIO_ApplyOffset
                0x0800b234       0x1c CMakeFiles/n7six.ApeX-k1.v7.6.5br3.dir/App/radio.c.obj
                0x0800b234                RADIO_ApplyOffset
 .text.RADIO_ConfigureChannel
                0x0800b250      0x400 CMakeFiles/n7six.ApeX-k1.v7.6.5br3.dir/App/radio.c.obj
                0x0800b250                RADIO_ConfigureChannel
 .text.RADIO_SelectVfos
                0x0800b650       0x48 CMakeFiles/n7six.ApeX-k1.v7.6.5br3.dir/App/radio.c.obj
                0x0800b650                RADIO_SelectVfos
 .text.RADIO_ConfigureNOAA
                0x0800b698       0x98 CMakeFiles/n7six.ApeX-k1.v7.6.5br3.dir/App/radio.c.obj
                0x0800b698                RADIO_ConfigureNOAA
 .text.RADIO_SetTxParameters
                0x0800b730       0xe4 CMakeFiles/n7six.ApeX-k1.v7.6.5br3.dir/App/radio.c.obj
                0x0800b730                RADIO_SetTxParameters
 .text.RADIO_SetupAGC
                0x0800b814       0x38 CMakeFiles/n7six.ApeX-k1.v7.6.5br3.dir/App/radio.c.obj
                0x0800b814                RADIO_SetupAGC
 .text.RADIO_SetupRegisters
                0x0800b84c      0x250 CMakeFiles/n7six.ApeX-k1.v7.6.5br3.dir/App/radio.c.obj
                0x0800b84c                RADIO_SetupRegisters
 .text.RADIO_SetModulation
                0x0800ba9c      0x110 CMakeFiles/n7six.ApeX-k1.v7.6.5br3.dir/App/radio.c.obj
                0x0800ba9c                RADIO_SetModulation
 .text.RADIO_SetVfoState
                0x0800bbac       0x54 CMakeFiles/n7six.ApeX-k1.v7.6.5br3.dir/App/radio.c.obj
                0x0800bbac                RADIO_SetVfoState
 .text.RADIO_PrepareTX
                0x0800bc00      0x148 CMakeFiles/n7six.ApeX-k1.v7.6.5br3.dir/App/radio.c.obj
                0x0800bc00                RADIO_PrepareTX
 .text.RADIO_SendCssTail
                0x0800bd48       0x28 CMakeFiles/n7six.ApeX-k1.v7.6.5br3.dir/App/radio.c.obj
                0x0800bd48                RADIO_SendCssTail
 .text.RADIO_SendEndOfTransmission
                0x0800bd70       0x24 CMakeFiles/n7six.ApeX-k1.v7.6.5br3.dir/App/radio.c.obj
                0x0800bd70                RADIO_SendEndOfTransmission
 .text.RADIO_OnSaveChannel
                0x0800bd94        0xa CMakeFiles/n7six.ApeX-k1.v7.6.5br3.dir/App/radio.c.obj
                0x0800bd94                RADIO_OnSaveChannel
 *fill*         0x0800bd9e        0x2 
 .text.SysTick_Handler
                0x0800bda0      0x27c CMakeFiles/n7six.ApeX-k1.v7.6.5br3.dir/App/scheduler.c.obj
                0x0800bda0                SysTick_Handler
 .text.SETTINGS_ApplySnapshot
                0x0800c01c       0xa0 CMakeFiles/n7six.ApeX-k1.v7.6.5br3.dir/App/settings.c.obj
 .text.SETTINGS_CanPersist
                0x0800c0bc       0x28 CMakeFiles/n7six.ApeX-k1.v7.6.5br3.dir/App/settings.c.obj
 .text.SETTINGS_ReadSnapshot
                0x0800c0e4       0x54 CMakeFiles/n7six.ApeX-k1.v7.6.5br3.dir/App/settings.c.obj
 .text.SETTINGS_LoadSnapshotIfAvailable
                0x0800c138       0x64 CMakeFiles/n7six.ApeX-k1.v7.6.5br3.dir/App/settings.c.obj
 .text.SETTINGS_SaveSnapshot.isra.0
                0x0800c19c      0x148 CMakeFiles/n7six.ApeX-k1.v7.6.5br3.dir/App/settings.c.obj
 .text.SETTINGS_InitEEPROM
                0x0800c2e4      0x644 CMakeFiles/n7six.ApeX-k1.v7.6.5br3.dir/App/settings.c.obj
                0x0800c2e4                SETTINGS_InitEEPROM
 .text.SETTINGS_FetchChannelFrequency
                0x0800c928       0x10 CMakeFiles/n7six.ApeX-k1.v7.6.5br3.dir/App/settings.c.obj
                0x0800c928                SETTINGS_FetchChannelFrequency
 .text.SETTINGS_FetchChannelName
                0x0800c938       0x52 CMakeFiles/n7six.ApeX-k1.v7.6.5br3.dir/App/settings.c.obj
                0x0800c938                SETTINGS_FetchChannelName
 *fill*         0x0800c98a        0x2 
 .text.SETTINGS_FactoryReset
                0x0800c98c       0xe4 CMakeFiles/n7six.ApeX-k1.v7.6.5br3.dir/App/settings.c.obj
                0x0800c98c                SETTINGS_FactoryReset
 .text.SETTINGS_SaveFM
                0x0800ca70       0x60 CMakeFiles/n7six.ApeX-k1.v7.6.5br3.dir/App/settings.c.obj
                0x0800ca70                SETTINGS_SaveFM
 .text.SETTINGS_SaveVfoIndices
                0x0800cad0       0x3c CMakeFiles/n7six.ApeX-k1.v7.6.5br3.dir/App/settings.c.obj
                0x0800cad0                SETTINGS_SaveVfoIndices
 .text.SETTINGS_SaveSettings
                0x0800cb0c      0x380 CMakeFiles/n7six.ApeX-k1.v7.6.5br3.dir/App/settings.c.obj
                0x0800cb0c                SETTINGS_SaveSettings
 .text.SETTINGS_SaveBatteryCalibration
                0x0800ce8c       0x20 CMakeFiles/n7six.ApeX-k1.v7.6.5br3.dir/App/settings.c.obj
                0x0800ce8c                SETTINGS_SaveBatteryCalibration
 .text.SETTINGS_LoadCalibration
                0x0800ceac      0x1ac CMakeFiles/n7six.ApeX-k1.v7.6.5br3.dir/App/settings.c.obj
                0x0800ceac                SETTINGS_LoadCalibration
 .text.SETTINGS_SaveChannelName
                0x0800d058       0x4c CMakeFiles/n7six.ApeX-k1.v7.6.5br3.dir/App/settings.c.obj
                0x0800d058                SETTINGS_SaveChannelName
 .text.SETTINGS_UpdateChannel
                0x0800d0a4       0xd4 CMakeFiles/n7six.ApeX-k1.v7.6.5br3.dir/App/settings.c.obj
                0x0800d0a4                SETTINGS_UpdateChannel
 .text.SETTINGS_SaveChannel
                0x0800d178       0xe2 CMakeFiles/n7six.ApeX-k1.v7.6.5br3.dir/App/settings.c.obj
                0x0800d178                SETTINGS_SaveChannel
 *fill*         0x0800d25a        0x2 
 .text.SETTINGS_WriteBuildOptions
                0x0800d25c       0x30 CMakeFiles/n7six.ApeX-k1.v7.6.5br3.dir/App/settings.c.obj
                0x0800d25c                SETTINGS_WriteBuildOptions
 .text.SETTINGS_WriteCurrentState
                0x0800d28c       0x50 CMakeFiles/n7six.ApeX-k1.v7.6.5br3.dir/App/settings.c.obj
                0x0800d28c                SETTINGS_WriteCurrentState
 .text.SETTINGS_ResetTxLock
                0x0800d2dc       0x4e CMakeFiles/n7six.ApeX-k1.v7.6.5br3.dir/App/settings.c.obj
                0x0800d2dc                SETTINGS_ResetTxLock
 .text.SETTINGS_OnSaveChannel
                0x0800d32a        0x8 CMakeFiles/n7six.ApeX-k1.v7.6.5br3.dir/App/settings.c.obj
                0x0800d32a                SETTINGS_OnSaveChannel
 *fill*         0x0800d332        0x2 
 .text.UI_DrawBattery
                0x0800d334       0x50 CMakeFiles/n7six.ApeX-k1.v7.6.5br3.dir/App/ui/battery.c.obj
                0x0800d334                UI_DrawBattery
 .text.UI_DisplayBattery
                0x0800d384       0x1c CMakeFiles/n7six.ApeX-k1.v7.6.5br3.dir/App/ui/battery.c.obj
                0x0800d384                UI_DisplayBattery
 .text.UI_GenerateChannelString
                0x0800d3a0       0x4c CMakeFiles/n7six.ApeX-k1.v7.6.5br3.dir/App/ui/helper.c.obj
                0x0800d3a0                UI_GenerateChannelString
 .text.UI_GenerateChannelStringEx
                0x0800d3ec       0x68 CMakeFiles/n7six.ApeX-k1.v7.6.5br3.dir/App/ui/helper.c.obj
                0x0800d3ec                UI_GenerateChannelStringEx
 .text.UI_PrintStringBuffer
                0x0800d454       0x4c CMakeFiles/n7six.ApeX-k1.v7.6.5br3.dir/App/ui/helper.c.obj
                0x0800d454                UI_PrintStringBuffer
 .text.UI_PrintString
                0x0800d4a0       0x90 CMakeFiles/n7six.ApeX-k1.v7.6.5br3.dir/App/ui/helper.c.obj
                0x0800d4a0                UI_PrintString
 .text.UI_PrintStringSmall
                0x0800d530       0x40 CMakeFiles/n7six.ApeX-k1.v7.6.5br3.dir/App/ui/helper.c.obj
                0x0800d530                UI_PrintStringSmall
 .text.UI_PrintStringSmallNormal
                0x0800d570       0x14 CMakeFiles/n7six.ApeX-k1.v7.6.5br3.dir/App/ui/helper.c.obj
                0x0800d570                UI_PrintStringSmallNormal
 .text.UI_PrintStringSmallBold
                0x0800d584       0x14 CMakeFiles/n7six.ApeX-k1.v7.6.5br3.dir/App/ui/helper.c.obj
                0x0800d584                UI_PrintStringSmallBold
 .text.UI_PrintStringSmallBufferNormal
                0x0800d598       0x10 CMakeFiles/n7six.ApeX-k1.v7.6.5br3.dir/App/ui/helper.c.obj
                0x0800d598                UI_PrintStringSmallBufferNormal
 .text.UI_DisplayFrequency
                0x0800d5a8       0xcc CMakeFiles/n7six.ApeX-k1.v7.6.5br3.dir/App/ui/helper.c.obj
                0x0800d5a8                UI_DisplayFrequency
 .text.UI_DrawPixelBuffer
                0x0800d674       0x2e CMakeFiles/n7six.ApeX-k1.v7.6.5br3.dir/App/ui/helper.c.obj
                0x0800d674                UI_DrawPixelBuffer
 *fill*         0x0800d6a2        0x2 
 .text.PutPixel
                0x0800d6a4       0x18 CMakeFiles/n7six.ApeX-k1.v7.6.5br3.dir/App/ui/helper.c.obj
                0x0800d6a4                PutPixel
 .text.PutPixelStatus
                0x0800d6bc       0x18 CMakeFiles/n7six.ApeX-k1.v7.6.5br3.dir/App/ui/helper.c.obj
                0x0800d6bc                PutPixelStatus
 .text.GUI_DisplaySmallest
                0x0800d6d4       0x7c CMakeFiles/n7six.ApeX-k1.v7.6.5br3.dir/App/ui/helper.c.obj
                0x0800d6d4                GUI_DisplaySmallest
 .text.UI_Draw5x5Char
                0x0800d750       0xb0 CMakeFiles/n7six.ApeX-k1.v7.6.5br3.dir/App/ui/helper.c.obj
                0x0800d750                UI_Draw5x5Char
 .text.UI_Draw5x5String
                0x0800d800       0x24 CMakeFiles/n7six.ApeX-k1.v7.6.5br3.dir/App/ui/helper.c.obj
                0x0800d800                UI_Draw5x5String
 .text.UI_DrawLineBuffer
                0x0800d824       0x94 CMakeFiles/n7six.ApeX-k1.v7.6.5br3.dir/App/ui/helper.c.obj
                0x0800d824                UI_DrawLineBuffer
 .text.UI_DrawRectangleBuffer
                0x0800d8b8       0x54 CMakeFiles/n7six.ApeX-k1.v7.6.5br3.dir/App/ui/helper.c.obj
                0x0800d8b8                UI_DrawRectangleBuffer
 .text.UI_FillRectangleBuffer
                0x0800d90c       0x56 CMakeFiles/n7six.ApeX-k1.v7.6.5br3.dir/App/ui/helper.c.obj
                0x0800d90c                UI_FillRectangleBuffer
 *fill*         0x0800d962        0x2 
 .text.UI_DisplayClear
                0x0800d964       0x14 CMakeFiles/n7six.ApeX-k1.v7.6.5br3.dir/App/ui/helper.c.obj
                0x0800d964                UI_DisplayClear
 .text.UI_DisplayPopup
                0x0800d978       0x2c CMakeFiles/n7six.ApeX-k1.v7.6.5br3.dir/App/ui/helper.c.obj
                0x0800d978                UI_DisplayPopup
 .text.INPUTBOX_Append
                0x0800d9a4       0x30 CMakeFiles/n7six.ApeX-k1.v7.6.5br3.dir/App/ui/inputbox.c.obj
                0x0800d9a4                INPUTBOX_Append
 .text.INPUTBOX_GetAscii
                0x0800d9d4       0x28 CMakeFiles/n7six.ApeX-k1.v7.6.5br3.dir/App/ui/inputbox.c.obj
                0x0800d9d4                INPUTBOX_GetAscii
 .text.isMainOnly
                0x0800d9fc       0x1c CMakeFiles/n7six.ApeX-k1.v7.6.5br3.dir/App/ui/main.c.obj
 .text.DrawLevelBar
                0x0800da18       0x88 CMakeFiles/n7six.ApeX-k1.v7.6.5br3.dir/App/ui/main.c.obj
 .text.log2_approx
                0x0800daa0       0x10 CMakeFiles/n7six.ApeX-k1.v7.6.5br3.dir/App/ui/main.c.obj
                0x0800daa0                log2_approx
 .text.UI_DisplayAudioBar
                0x0800dab0      0x130 CMakeFiles/n7six.ApeX-k1.v7.6.5br3.dir/App/ui/main.c.obj
                0x0800dab0                UI_DisplayAudioBar
 .text.DisplayRSSIBar
                0x0800dbe0      0x1e4 CMakeFiles/n7six.ApeX-k1.v7.6.5br3.dir/App/ui/main.c.obj
                0x0800dbe0                DisplayRSSIBar
 .text.UI_MAIN_TimeSlice500ms
                0x0800ddc4       0xa4 CMakeFiles/n7six.ApeX-k1.v7.6.5br3.dir/App/ui/main.c.obj
                0x0800ddc4                UI_MAIN_TimeSlice500ms
 .text.UI_DisplayMain
                0x0800de68      0xd44 CMakeFiles/n7six.ApeX-k1.v7.6.5br3.dir/App/ui/main.c.obj
                0x0800de68                UI_DisplayMain
 .text.UI_MENU_GetCurrentMenuId
                0x0800ebac       0x1c CMakeFiles/n7six.ApeX-k1.v7.6.5br3.dir/App/ui/menu.c.obj
                0x0800ebac                UI_MENU_GetCurrentMenuId
 .text.UI_MENU_GetMenuIdx
                0x0800ebc8       0x20 CMakeFiles/n7six.ApeX-k1.v7.6.5br3.dir/App/ui/menu.c.obj
                0x0800ebc8                UI_MENU_GetMenuIdx
 .text.UI_DisplayMenu
                0x0800ebe8      0xb78 CMakeFiles/n7six.ApeX-k1.v7.6.5br3.dir/App/ui/menu.c.obj
                0x0800ebe8                UI_DisplayMenu
 .text.UI_DisplayScanner
                0x0800f760      0x198 CMakeFiles/n7six.ApeX-k1.v7.6.5br3.dir/App/ui/scanner.c.obj
                0x0800f760                UI_DisplayScanner
 .text.convertTime.constprop.0
                0x0800f8f8       0x64 CMakeFiles/n7six.ApeX-k1.v7.6.5br3.dir/App/ui/status.c.obj
 .text.UI_DisplayStatus
                0x0800f95c      0x2dc CMakeFiles/n7six.ApeX-k1.v7.6.5br3.dir/App/ui/status.c.obj
                0x0800f95c                UI_DisplayStatus
 .text.GUI_DisplayScreen
                0x0800fc38       0x1c CMakeFiles/n7six.ApeX-k1.v7.6.5br3.dir/App/ui/ui.c.obj
                0x0800fc38                GUI_DisplayScreen
 .text.GUI_SelectNextDisplay
                0x0800fc54       0x7c CMakeFiles/n7six.ApeX-k1.v7.6.5br3.dir/App/ui/ui.c.obj
                0x0800fc54                GUI_SelectNextDisplay
 .text.UI_OnChannelChange
                0x0800fcd0        0xc CMakeFiles/n7six.ApeX-k1.v7.6.5br3.dir/App/ui/ui.c.obj
                0x0800fcd0                UI_OnChannelChange
 .text.UI_DisplayReleaseKeys
                0x0800fcdc       0x48 CMakeFiles/n7six.ApeX-k1.v7.6.5br3.dir/App/ui/welcome.c.obj
                0x0800fcdc                UI_DisplayReleaseKeys
 .text.UI_DisplayWelcome
                0x0800fd24      0x1a8 CMakeFiles/n7six.ApeX-k1.v7.6.5br3.dir/App/ui/welcome.c.obj
                0x0800fd24                UI_DisplayWelcome
 .text.Main     0x0800fecc      0x358 CMakeFiles/n7six.ApeX-k1.v7.6.5br3.dir/App/main.c.obj
                0x0800fecc                Main
 .text._out_buffer
                0x08010224        0x8 CMakeFiles/n7six.ApeX-k1.v7.6.5br3.dir/App/external/printf/printf.c.obj
 .text._out_null
                0x0801022c        0x2 CMakeFiles/n7six.ApeX-k1.v7.6.5br3.dir/App/external/printf/printf.c.obj
 .text._ntoa_long
                0x0801022e      0x1c2 CMakeFiles/n7six.ApeX-k1.v7.6.5br3.dir/App/external/printf/printf.c.obj
 .text._vsnprintf
                0x080103f0      0x42c CMakeFiles/n7six.ApeX-k1.v7.6.5br3.dir/App/external/printf/printf.c.obj
 .text.sprintf_
                0x0801081c       0x28 CMakeFiles/n7six.ApeX-k1.v7.6.5br3.dir/App/external/printf/printf.c.obj
                0x0801081c                sprintf_
 .text.CRC_Init
                0x08010844        0x2 CMakeFiles/n7six.ApeX-k1.v7.6.5br3.dir/App/driver/crc.c.obj
                0x08010844                CRC_Init
 *fill*         0x08010846        0x2 
 .text.CRC_Calculate
                0x08010848       0x3c CMakeFiles/n7six.ApeX-k1.v7.6.5br3.dir/App/driver/crc.c.obj
                0x08010848                CRC_Calculate
 .text.AddrTranslate
                0x08010884       0x70 CMakeFiles/n7six.ApeX-k1.v7.6.5br3.dir/App/driver/eeprom_compat.c.obj
 .text.EEPROM_ReadBuffer
                0x080108f4       0x52 CMakeFiles/n7six.ApeX-k1.v7.6.5br3.dir/App/driver/eeprom_compat.c.obj
                0x080108f4                EEPROM_ReadBuffer
 .text.EEPROM_WriteBuffer
                0x08010946       0x4a CMakeFiles/n7six.ApeX-k1.v7.6.5br3.dir/App/driver/eeprom_compat.c.obj
                0x08010946                EEPROM_WriteBuffer
 .text.UART_Init
                0x08010990      0x130 CMakeFiles/n7six.ApeX-k1.v7.6.5br3.dir/App/driver/uart.c.obj
                0x08010990                UART_Init
 .text.UART_Send
                0x08010ac0       0x20 CMakeFiles/n7six.ApeX-k1.v7.6.5br3.dir/App/driver/uart.c.obj
                0x08010ac0                UART_Send
 .text.UART_IsCableConnected
                0x08010ae0       0x24 CMakeFiles/n7six.ApeX-k1.v7.6.5br3.dir/App/driver/uart.c.obj
                0x08010ae0                UART_IsCableConnected
 .text.SendReply
                0x08010b04       0xd0 CMakeFiles/n7six.ApeX-k1.v7.6.5br3.dir/App/app/uart.c.obj
 .text.UART_IsCommandAvailable
                0x08010bd4      0x184 CMakeFiles/n7six.ApeX-k1.v7.6.5br3.dir/App/app/uart.c.obj
                0x08010bd4                UART_IsCommandAvailable
 .text.UART_HandleCommand
                0x08010d58      0x210 CMakeFiles/n7six.ApeX-k1.v7.6.5br3.dir/App/app/uart.c.obj
                0x08010d58                UART_HandleCommand
 .text.VCP_Init
                0x08010f68       0x74 CMakeFiles/n7six.ApeX-k1.v7.6.5br3.dir/App/driver/vcp.c.obj
                0x08010f68                VCP_Init
 .text.usbd_cdc_acm_bulk_out
                0x08010fdc       0x74 CMakeFiles/n7six.ApeX-k1.v7.6.5br3.dir/App/usb/usbd_cdc_if.c.obj
                0x08010fdc                usbd_cdc_acm_bulk_out
 .text.usbd_cdc_acm_bulk_in
                0x08011050       0x28 CMakeFiles/n7six.ApeX-k1.v7.6.5br3.dir/App/usb/usbd_cdc_if.c.obj
                0x08011050                usbd_cdc_acm_bulk_in
 .text.usbd_configure_done_callback
                0x08011078       0x14 CMakeFiles/n7six.ApeX-k1.v7.6.5br3.dir/App/usb/usbd_cdc_if.c.obj
                0x08011078                usbd_configure_done_callback
 .text.cdc_acm_init
                0x0801108c       0x60 CMakeFiles/n7six.ApeX-k1.v7.6.5br3.dir/App/usb/usbd_cdc_if.c.obj
                0x0801108c                cdc_acm_init
 .text.usbd_cdc_acm_set_dtr
                0x080110ec       0x14 CMakeFiles/n7six.ApeX-k1.v7.6.5br3.dir/App/usb/usbd_cdc_if.c.obj
                0x080110ec                usbd_cdc_acm_set_dtr
 .text.cdc_acm_data_send_with_dtr_async
                0x08011100       0x12 CMakeFiles/n7six.ApeX-k1.v7.6.5br3.dir/App/usb/usbd_cdc_if.c.obj
                0x08011100                cdc_acm_data_send_with_dtr_async
 .text.BK1080_ReadRegister
                0x08011112       0x30 CMakeFiles/n7six.ApeX-k1.v7.6.5br3.dir/App/driver/bk1080.c.obj
                0x08011112                BK1080_ReadRegister
 .text.BK1080_WriteRegister
                0x08011142       0x30 CMakeFiles/n7six.ApeX-k1.v7.6.5br3.dir/App/driver/bk1080.c.obj
                0x08011142                BK1080_WriteRegister
 *fill*         0x08011172        0x2 
 .text.BK1080_Init0
                0x08011174       0x10 CMakeFiles/n7six.ApeX-k1.v7.6.5br3.dir/App/driver/bk1080.c.obj
                0x08011174                BK1080_Init0
 .text.BK1080_Mute
                0x08011184       0x1c CMakeFiles/n7six.ApeX-k1.v7.6.5br3.dir/App/driver/bk1080.c.obj
                0x08011184                BK1080_Mute
 .text.BK1080_SetFrequency
                0x080111a0       0x50 CMakeFiles/n7six.ApeX-k1.v7.6.5br3.dir/App/driver/bk1080.c.obj
                0x080111a0                BK1080_SetFrequency
 .text.BK1080_Init
                0x080111f0       0x98 CMakeFiles/n7six.ApeX-k1.v7.6.5br3.dir/App/driver/bk1080.c.obj
                0x080111f0                BK1080_Init
 .text.BK1080_GetFrequencyDeviation
                0x08011288       0x1c CMakeFiles/n7six.ApeX-k1.v7.6.5br3.dir/App/driver/bk1080.c.obj
                0x08011288                BK1080_GetFrequencyDeviation
 .text.BK1080_GetFreqLoLimit
                0x080112a4       0x10 CMakeFiles/n7six.ApeX-k1.v7.6.5br3.dir/App/driver/bk1080.c.obj
                0x080112a4                BK1080_GetFreqLoLimit
 .text.BK1080_GetFreqHiLimit
                0x080112b4       0x10 CMakeFiles/n7six.ApeX-k1.v7.6.5br3.dir/App/driver/bk1080.c.obj
                0x080112b4                BK1080_GetFreqHiLimit
 .text.FM_CheckValidChannel
                0x080112c4       0x3c CMakeFiles/n7six.ApeX-k1.v7.6.5br3.dir/App/app/fm.c.obj
                0x080112c4                FM_CheckValidChannel
 .text.FM_FindNextChannel
                0x08011300       0x34 CMakeFiles/n7six.ApeX-k1.v7.6.5br3.dir/App/app/fm.c.obj
                0x08011300                FM_FindNextChannel
 .text.FM_ConfigureChannelState
                0x08011334       0x3c CMakeFiles/n7six.ApeX-k1.v7.6.5br3.dir/App/app/fm.c.obj
                0x08011334                FM_ConfigureChannelState
 .text.Key_FUNC
                0x08011370       0xa8 CMakeFiles/n7six.ApeX-k1.v7.6.5br3.dir/App/app/fm.c.obj
 .text.FM_TurnOff
                0x08011418       0x58 CMakeFiles/n7six.ApeX-k1.v7.6.5br3.dir/App/app/fm.c.obj
                0x08011418                FM_TurnOff
 .text.FM_EraseChannels
                0x08011470       0x1c CMakeFiles/n7six.ApeX-k1.v7.6.5br3.dir/App/app/fm.c.obj
                0x08011470                FM_EraseChannels
 .text.FM_Tune  0x0801148c       0xb4 CMakeFiles/n7six.ApeX-k1.v7.6.5br3.dir/App/app/fm.c.obj
                0x0801148c                FM_Tune
 .text.Key_UP_DOWN
                0x08011540      0x104 CMakeFiles/n7six.ApeX-k1.v7.6.5br3.dir/App/app/fm.c.obj
 .text.FM_PlayAndUpdate
                0x08011644       0x68 CMakeFiles/n7six.ApeX-k1.v7.6.5br3.dir/App/app/fm.c.obj
                0x08011644                FM_PlayAndUpdate
 .text.FM_CheckFrequencyLock
                0x080116ac       0x94 CMakeFiles/n7six.ApeX-k1.v7.6.5br3.dir/App/app/fm.c.obj
                0x080116ac                FM_CheckFrequencyLock
 .text.FM_ProcessKeys
                0x08011740      0x2ac CMakeFiles/n7six.ApeX-k1.v7.6.5br3.dir/App/app/fm.c.obj
                0x08011740                FM_ProcessKeys
 .text.FM_Play  0x080119ec       0xb4 CMakeFiles/n7six.ApeX-k1.v7.6.5br3.dir/App/app/fm.c.obj
                0x080119ec                FM_Play
 .text.FM_Start
                0x08011aa0       0x68 CMakeFiles/n7six.ApeX-k1.v7.6.5br3.dir/App/app/fm.c.obj
                0x08011aa0                FM_Start
 .text.UI_DisplayFM
                0x08011b08      0x1d0 CMakeFiles/n7six.ApeX-k1.v7.6.5br3.dir/App/ui/fmradio.c.obj
                0x08011b08                UI_DisplayFM
 .text.AIRCOPY_clear
                0x08011cd8       0x18 CMakeFiles/n7six.ApeX-k1.v7.6.5br3.dir/App/app/aircopy.c.obj
 .text.AIRCOPY_SendMessage
                0x08011cf0       0xb4 CMakeFiles/n7six.ApeX-k1.v7.6.5br3.dir/App/app/aircopy.c.obj
                0x08011cf0                AIRCOPY_SendMessage
 .text.AIRCOPY_StorePacket
                0x08011da4       0xe0 CMakeFiles/n7six.ApeX-k1.v7.6.5br3.dir/App/app/aircopy.c.obj
                0x08011da4                AIRCOPY_StorePacket
 .text.AIRCOPY_ProcessKeys
                0x08011e84      0x158 CMakeFiles/n7six.ApeX-k1.v7.6.5br3.dir/App/app/aircopy.c.obj
                0x08011e84                AIRCOPY_ProcessKeys
 .text.UI_DisplayAircopy
                0x08011fdc      0x1f8 CMakeFiles/n7six.ApeX-k1.v7.6.5br3.dir/App/ui/aircopy.c.obj
                0x08011fdc                UI_DisplayAircopy
 .text.FlashlightTimeSlice
                0x080121d4       0xa4 CMakeFiles/n7six.ApeX-k1.v7.6.5br3.dir/App/app/flashlight.c.obj
                0x080121d4                FlashlightTimeSlice
 .text.ACTION_FlashLight
                0x08012278       0x38 CMakeFiles/n7six.ApeX-k1.v7.6.5br3.dir/App/app/flashlight.c.obj
                0x08012278                ACTION_FlashLight
 .text.Rssi2DBm
                0x080122b0       0x20 CMakeFiles/n7six.ApeX-k1.v7.6.5br3.dir/App/app/spectrum.c.obj
 .text.ResetScanStats
                0x080122d0       0x14 CMakeFiles/n7six.ApeX-k1.v7.6.5br3.dir/App/app/spectrum.c.obj
 .text.MarkSpectrumSettingsDirty
                0x080122e4       0x18 CMakeFiles/n7six.ApeX-k1.v7.6.5br3.dir/App/app/spectrum.c.obj
 .text.UpdatePeakInfo
                0x080122fc       0x90 CMakeFiles/n7six.ApeX-k1.v7.6.5br3.dir/App/app/spectrum.c.obj
 .text.MapMeasurementToDisplay
                0x0801238c       0x20 CMakeFiles/n7six.ApeX-k1.v7.6.5br3.dir/App/app/spectrum.c.obj
 .text.SetRssiHistory
                0x080123ac       0x1c CMakeFiles/n7six.ApeX-k1.v7.6.5br3.dir/App/app/spectrum.c.obj
 .text.GetRegMenuValue
                0x080123c8       0x20 CMakeFiles/n7six.ApeX-k1.v7.6.5br3.dir/App/app/spectrum.c.obj
 .text.RestoreRegisters
                0x080123e8       0x2c CMakeFiles/n7six.ApeX-k1.v7.6.5br3.dir/App/app/spectrum.c.obj
 .text.SetF     0x08012414       0x38 CMakeFiles/n7six.ApeX-k1.v7.6.5br3.dir/App/app/spectrum.c.obj
 .text.ResetBlacklist
                0x0801244c       0x3c CMakeFiles/n7six.ApeX-k1.v7.6.5br3.dir/App/app/spectrum.c.obj
 .text.ToggleListeningBW
                0x08012488       0x4c CMakeFiles/n7six.ApeX-k1.v7.6.5br3.dir/App/app/spectrum.c.obj
 .text.ToggleBacklight
                0x080124d4       0x24 CMakeFiles/n7six.ApeX-k1.v7.6.5br3.dir/App/app/spectrum.c.obj
 .text.SaveSettings
                0x080124f8       0x44 CMakeFiles/n7six.ApeX-k1.v7.6.5br3.dir/App/app/spectrum.c.obj
 .text.SPECTRUM_SaveSettings
                0x0801253c       0x98 CMakeFiles/n7six.ApeX-k1.v7.6.5br3.dir/App/app/spectrum.c.obj
 .text.DrawF    0x080125d4       0x90 CMakeFiles/n7six.ApeX-k1.v7.6.5br3.dir/App/app/spectrum.c.obj
 .text.RecomputeSmoothedTrace
                0x08012664       0x64 CMakeFiles/n7six.ApeX-k1.v7.6.5br3.dir/App/app/spectrum.c.obj
 .text.UpdateDisplayTrace.part.0
                0x080126c8       0x48 CMakeFiles/n7six.ApeX-k1.v7.6.5br3.dir/App/app/spectrum.c.obj
 .text.SetBandLed.part.0.constprop.0
                0x08012710       0x3c CMakeFiles/n7six.ApeX-k1.v7.6.5br3.dir/App/app/spectrum.c.obj
 .text.ToggleRX
                0x0801274c      0x130 CMakeFiles/n7six.ApeX-k1.v7.6.5br3.dir/App/app/spectrum.c.obj
 .text.UpdateDBMax
                0x0801287c       0x78 CMakeFiles/n7six.ApeX-k1.v7.6.5br3.dir/App/app/spectrum.c.obj
 .text.SYSTEM_DelayUs
                0x080128f4       0x12 CMakeFiles/n7six.ApeX-k1.v7.6.5br3.dir/App/app/spectrum.c.obj
                0x080128f4                SYSTEM_DelayUs
 .text.DrawLine
                0x08012906       0x8c CMakeFiles/n7six.ApeX-k1.v7.6.5br3.dir/App/app/spectrum.c.obj
                0x08012906                DrawLine
 *fill*         0x08012992        0x2 
 .text.LockAGC  0x08012994       0x24 CMakeFiles/n7six.ApeX-k1.v7.6.5br3.dir/App/app/spectrum.c.obj
                0x08012994                LockAGC
 .text.SetRegMenuValue
                0x080129b8       0xb0 CMakeFiles/n7six.ApeX-k1.v7.6.5br3.dir/App/app/spectrum.c.obj
 .text.IsPeakOverLevel
                0x08012a68       0x1c CMakeFiles/n7six.ApeX-k1.v7.6.5br3.dir/App/app/spectrum.c.obj
                0x08012a68                IsPeakOverLevel
 .text.GetScanStep
                0x08012a84       0x14 CMakeFiles/n7six.ApeX-k1.v7.6.5br3.dir/App/app/spectrum.c.obj
                0x08012a84                GetScanStep
 .text.GetStepsCount
                0x08012a98       0x38 CMakeFiles/n7six.ApeX-k1.v7.6.5br3.dir/App/app/spectrum.c.obj
                0x08012a98                GetStepsCount
 .text.GetDisplayWidth
                0x08012ad0       0x38 CMakeFiles/n7six.ApeX-k1.v7.6.5br3.dir/App/app/spectrum.c.obj
 .text.UpdateWaterfall
                0x08012b08       0xf8 CMakeFiles/n7six.ApeX-k1.v7.6.5br3.dir/App/app/spectrum.c.obj
 .text.SpecIdxToX
                0x08012c00       0x1e CMakeFiles/n7six.ApeX-k1.v7.6.5br3.dir/App/app/spectrum.c.obj
 .text.GetBW    0x08012c1e       0x10 CMakeFiles/n7six.ApeX-k1.v7.6.5br3.dir/App/app/spectrum.c.obj
                0x08012c1e                GetBW
 *fill*         0x08012c2e        0x2 
 .text.GetFStart
                0x08012c30       0x38 CMakeFiles/n7six.ApeX-k1.v7.6.5br3.dir/App/app/spectrum.c.obj
                0x08012c30                GetFStart
 .text.InitScan
                0x08012c68       0x34 CMakeFiles/n7six.ApeX-k1.v7.6.5br3.dir/App/app/spectrum.c.obj
 .text.GetCentroidFrequency
                0x08012c9c       0x94 CMakeFiles/n7six.ApeX-k1.v7.6.5br3.dir/App/app/spectrum.c.obj
 .text.TuneToPeak
                0x08012d30       0x28 CMakeFiles/n7six.ApeX-k1.v7.6.5br3.dir/App/app/spectrum.c.obj
 .text.GetFEnd  0x08012d58       0x3c CMakeFiles/n7six.ApeX-k1.v7.6.5br3.dir/App/app/spectrum.c.obj
                0x08012d58                GetFEnd
 .text.GetRssi  0x08012d94       0x40 CMakeFiles/n7six.ApeX-k1.v7.6.5br3.dir/App/app/spectrum.c.obj
                0x08012d94                GetRssi
 .text.Measure  0x08012dd4       0x30 CMakeFiles/n7six.ApeX-k1.v7.6.5br3.dir/App/app/spectrum.c.obj
 .text.RelaunchScan
                0x08012e04       0x60 CMakeFiles/n7six.ApeX-k1.v7.6.5br3.dir/App/app/spectrum.c.obj
 .text.ToggleModulation
                0x08012e64       0x30 CMakeFiles/n7six.ApeX-k1.v7.6.5br3.dir/App/app/spectrum.c.obj
 .text.UpdateFreqChangeStep
                0x08012e94       0x88 CMakeFiles/n7six.ApeX-k1.v7.6.5br3.dir/App/app/spectrum.c.obj
 .text.UpdateCurrentFreq
                0x08012f1c       0x6c CMakeFiles/n7six.ApeX-k1.v7.6.5br3.dir/App/app/spectrum.c.obj
 .text.SetState
                0x08012f88       0x3c CMakeFiles/n7six.ApeX-k1.v7.6.5br3.dir/App/app/spectrum.c.obj
                0x08012f88                SetState
 .text.FreqInput
                0x08012fc4       0x3c CMakeFiles/n7six.ApeX-k1.v7.6.5br3.dir/App/app/spectrum.c.obj
 .text.UpdateFreqInput
                0x08013000      0x19c CMakeFiles/n7six.ApeX-k1.v7.6.5br3.dir/App/app/spectrum.c.obj
 .text.Rssi2PX  0x0801319c       0x64 CMakeFiles/n7six.ApeX-k1.v7.6.5br3.dir/App/app/spectrum.c.obj
                0x0801319c                Rssi2PX
 .text.Rssi2Y   0x08013200       0x20 CMakeFiles/n7six.ApeX-k1.v7.6.5br3.dir/App/app/spectrum.c.obj
                0x08013200                Rssi2Y
 .text.RenderSpectrum
                0x08013220      0x604 CMakeFiles/n7six.ApeX-k1.v7.6.5br3.dir/App/app/spectrum.c.obj
 .text.UpdateRssiTriggerLevel
                0x08013824       0xd4 CMakeFiles/n7six.ApeX-k1.v7.6.5br3.dir/App/app/spectrum.c.obj
                0x08013824                UpdateRssiTriggerLevel
 .text.OnKeyDownStill
                0x080138f8      0x114 CMakeFiles/n7six.ApeX-k1.v7.6.5br3.dir/App/app/spectrum.c.obj
                0x080138f8                OnKeyDownStill
 .text.APP_RunSpectrum
                0x08013a0c      0xf88 CMakeFiles/n7six.ApeX-k1.v7.6.5br3.dir/App/app/spectrum.c.obj
                0x08013a0c                APP_RunSpectrum
 .text.getScreenShot
                0x08014994      0x1a4 CMakeFiles/n7six.ApeX-k1.v7.6.5br3.dir/App/screenshot.c.obj
                0x08014994                getScreenShot
 .text.usbd_class_event_notify_handler
                0x08014b38       0x24 CMakeFiles/n7six.ApeX-k1.v7.6.5br3.dir/Middlewares/CherryUSB/core/usbd_core.c.obj
 .text.usbd_set_endpoint
                0x08014b5c       0x2c CMakeFiles/n7six.ApeX-k1.v7.6.5br3.dir/Middlewares/CherryUSB/core/usbd_core.c.obj
 .text.usbd_setup_request_handler.constprop.0
                0x08014b88      0x380 CMakeFiles/n7six.ApeX-k1.v7.6.5br3.dir/Middlewares/CherryUSB/core/usbd_core.c.obj
 .text.usbd_event_resume_handler
                0x08014f08        0xc CMakeFiles/n7six.ApeX-k1.v7.6.5br3.dir/Middlewares/CherryUSB/core/usbd_core.c.obj
                0x08014f08                usbd_event_resume_handler
 .text.usbd_event_suspend_handler
                0x08014f14        0xc CMakeFiles/n7six.ApeX-k1.v7.6.5br3.dir/Middlewares/CherryUSB/core/usbd_core.c.obj
                0x08014f14                usbd_event_suspend_handler
 .text.usbd_event_reset_handler
                0x08014f20       0x38 CMakeFiles/n7six.ApeX-k1.v7.6.5br3.dir/Middlewares/CherryUSB/core/usbd_core.c.obj
                0x08014f20                usbd_event_reset_handler
 .text.usbd_event_ep0_setup_complete_handler
                0x08014f58       0x94 CMakeFiles/n7six.ApeX-k1.v7.6.5br3.dir/Middlewares/CherryUSB/core/usbd_core.c.obj
                0x08014f58                usbd_event_ep0_setup_complete_handler
 .text.usbd_event_ep_in_complete_handler
                0x08014fec       0x58 CMakeFiles/n7six.ApeX-k1.v7.6.5br3.dir/Middlewares/CherryUSB/core/usbd_core.c.obj
                0x08014fec                usbd_event_ep_in_complete_handler
 .text.usbd_event_ep_out_complete_handler
                0x08015044       0x64 CMakeFiles/n7six.ApeX-k1.v7.6.5br3.dir/Middlewares/CherryUSB/core/usbd_core.c.obj
                0x08015044                usbd_event_ep_out_complete_handler
 .text.usbd_desc_register
                0x080150a8       0x14 CMakeFiles/n7six.ApeX-k1.v7.6.5br3.dir/Middlewares/CherryUSB/core/usbd_core.c.obj
                0x080150a8                usbd_desc_register
 .text.usbd_add_interface
                0x080150bc       0x2c CMakeFiles/n7six.ApeX-k1.v7.6.5br3.dir/Middlewares/CherryUSB/core/usbd_core.c.obj
                0x080150bc                usbd_add_interface
 .text.usbd_add_endpoint
                0x080150e8       0x2c CMakeFiles/n7six.ApeX-k1.v7.6.5br3.dir/Middlewares/CherryUSB/core/usbd_core.c.obj
                0x080150e8                usbd_add_endpoint
 .text.usbd_initialize
                0x08015114        0x8 CMakeFiles/n7six.ApeX-k1.v7.6.5br3.dir/Middlewares/CherryUSB/core/usbd_core.c.obj
                0x08015114                usbd_initialize
 .text.pyusb_write_packet
                0x0801511c       0x20 CMakeFiles/n7six.ApeX-k1.v7.6.5br3.dir/Middlewares/CherryUSB/port/usb_dc_py32.c.obj
 .text.usbd_ep0_set_zlp_flag
                0x0801513c        0xc CMakeFiles/n7six.ApeX-k1.v7.6.5br3.dir/Middlewares/CherryUSB/port/usb_dc_py32.c.obj
                0x0801513c                usbd_ep0_set_zlp_flag
 .text.usb_dc_low_level_init
                0x08015148        0x2 CMakeFiles/n7six.ApeX-k1.v7.6.5br3.dir/Middlewares/CherryUSB/port/usb_dc_py32.c.obj
                0x08015148                usb_dc_low_level_init
 *fill*         0x0801514a        0x2 
 .text.usb_dc_init
                0x0801514c       0x20 CMakeFiles/n7six.ApeX-k1.v7.6.5br3.dir/Middlewares/CherryUSB/port/usb_dc_py32.c.obj
                0x0801514c                usb_dc_init
 .text.usbd_set_address
                0x0801516c       0x18 CMakeFiles/n7six.ApeX-k1.v7.6.5br3.dir/Middlewares/CherryUSB/port/usb_dc_py32.c.obj
                0x0801516c                usbd_set_address
 .text.usbd_ep_open
                0x08015184      0x124 CMakeFiles/n7six.ApeX-k1.v7.6.5br3.dir/Middlewares/CherryUSB/port/usb_dc_py32.c.obj
                0x08015184                usbd_ep_open
 .text.usbd_ep_close
                0x080152a8        0x4 CMakeFiles/n7six.ApeX-k1.v7.6.5br3.dir/Middlewares/CherryUSB/port/usb_dc_py32.c.obj
                0x080152a8                usbd_ep_close
 .text.usbd_ep_set_stall
                0x080152ac       0x4c CMakeFiles/n7six.ApeX-k1.v7.6.5br3.dir/Middlewares/CherryUSB/port/usb_dc_py32.c.obj
                0x080152ac                usbd_ep_set_stall
 .text.usbd_ep_clear_stall
                0x080152f8       0x50 CMakeFiles/n7six.ApeX-k1.v7.6.5br3.dir/Middlewares/CherryUSB/port/usb_dc_py32.c.obj
                0x080152f8                usbd_ep_clear_stall
 .text.usbd_ep_is_stalled
                0x08015348       0x34 CMakeFiles/n7six.ApeX-k1.v7.6.5br3.dir/Middlewares/CherryUSB/port/usb_dc_py32.c.obj
                0x08015348                usbd_ep_is_stalled
 .text.usbd_ep_start_write
                0x0801537c      0x10c CMakeFiles/n7six.ApeX-k1.v7.6.5br3.dir/Middlewares/CherryUSB/port/usb_dc_py32.c.obj
                0x0801537c                usbd_ep_start_write
 .text.usbd_ep_start_read
                0x08015488       0x94 CMakeFiles/n7six.ApeX-k1.v7.6.5br3.dir/Middlewares/CherryUSB/port/usb_dc_py32.c.obj
                0x08015488                usbd_ep_start_read
 .text.USB_IRQHandler
                0x0801551c      0x2a8 CMakeFiles/n7six.ApeX-k1.v7.6.5br3.dir/Middlewares/CherryUSB/port/usb_dc_py32.c.obj
                0x0801551c                USB_IRQHandler
 .text.cdc_notify_handler
                0x080157c4        0x2 CMakeFiles/n7six.ApeX-k1.v7.6.5br3.dir/Middlewares/CherryUSB/class/cdc/usbd_cdc.c.obj
 *fill*         0x080157c6        0x2 
 .text.usbd_cdc_acm_init_intf
                0x080157c8       0x18 CMakeFiles/n7six.ApeX-k1.v7.6.5br3.dir/Middlewares/CherryUSB/class/cdc/usbd_cdc.c.obj
                0x080157c8                usbd_cdc_acm_init_intf
 .text.usbd_cdc_acm_set_line_coding
                0x080157e0        0x2 CMakeFiles/n7six.ApeX-k1.v7.6.5br3.dir/Middlewares/CherryUSB/class/cdc/usbd_cdc.c.obj
                0x080157e0                usbd_cdc_acm_set_line_coding
 .text.usbd_cdc_acm_get_line_coding
                0x080157e2       0x1c CMakeFiles/n7six.ApeX-k1.v7.6.5br3.dir/Middlewares/CherryUSB/class/cdc/usbd_cdc.c.obj
                0x080157e2                usbd_cdc_acm_get_line_coding
 .text.usbd_cdc_acm_set_rts
                0x080157fe        0x2 CMakeFiles/n7six.ApeX-k1.v7.6.5br3.dir/Middlewares/CherryUSB/class/cdc/usbd_cdc.c.obj
                0x080157fe                usbd_cdc_acm_set_rts
 .text.cdc_acm_class_interface_request_handler
                0x08015800       0x70 CMakeFiles/n7six.ApeX-k1.v7.6.5br3.dir/Middlewares/CherryUSB/class/cdc/usbd_cdc.c.obj
 .text.__muldi3
                0x08015870       0x5c /opt/toolchain/bin/../lib/gcc/arm-none-eabi/13.3.1/thumb/v6-m/nofp/libgcc.a(_muldi3.o)
                0x08015870                __aeabi_lmul
                0x08015870                __muldi3
 .text.__libc_init_array
                0x080158cc       0x48 /opt/toolchain/bin/../lib/gcc/arm-none-eabi/13.3.1/../../../../arm-none-eabi/lib/thumb/v6-m/nofp/libg_nano.a(libc_a-init.o)
                0x080158cc                __libc_init_array
 .text.memmove  0x08015914       0x24 /opt/toolchain/bin/../lib/gcc/arm-none-eabi/13.3.1/../../../../arm-none-eabi/lib/thumb/v6-m/nofp/libg_nano.a(libc_a-memmove.o)
                0x08015914                memmove
 .text.memset   0x08015938       0x10 /opt/toolchain/bin/../lib/gcc/arm-none-eabi/13.3.1/../../../../arm-none-eabi/lib/thumb/v6-m/nofp/libg_nano.a(libc_a-memset.o)
                0x08015938                memset
 .text.memcpy   0x08015948       0x12 /opt/toolchain/bin/../lib/gcc/arm-none-eabi/13.3.1/../../../../arm-none-eabi/lib/thumb/v6-m/nofp/libg_nano.a(libc_a-memcpy-stub.o)
                0x08015948                memcpy
 .text.strncpy  0x0801595a       0x28 /opt/toolchain/bin/../lib/gcc/arm-none-eabi/13.3.1/../../../../arm-none-eabi/lib/thumb/v6-m/nofp/libg_nano.a(libc_a-strncpy.o)
                0x0801595a                strncpy
 .text.strnlen  0x08015982       0x16 /opt/toolchain/bin/../lib/gcc/arm-none-eabi/13.3.1/../../../../arm-none-eabi/lib/thumb/v6-m/nofp/libg_nano.a(libc_a-strnlen.o)
                0x08015982                strnlen
 .text.memcmp   0x08015998       0x1c /opt/toolchain/bin/../lib/gcc/arm-none-eabi/13.3.1/../../../../arm-none-eabi/lib/thumb/v6-m/nofp/libg_nano.a(libc_a-memcmp.o)
                0x08015998                memcmp
 *(.glue_7)
 .glue_7        0x080159b4        0x0 linker stubs
 *(.glue_7t)
 .glue_7t       0x080159b4        0x0 linker stubs
 *(.eh_frame)
 .eh_frame      0x080159b4        0x0 /opt/toolchain/bin/../lib/gcc/arm-none-eabi/13.3.1/thumb/v6-m/nofp/crtbegin.o
 *(.init)
 .init          0x080159b4        0x4 /opt/toolchain/bin/../lib/gcc/arm-none-eabi/13.3.1/thumb/v6-m/nofp/crti.o
                0x080159b4                _init
 .init          0x080159b8        0x8 /opt/toolchain/bin/../lib/gcc/arm-none-eabi/13.3.1/thumb/v6-m/nofp/crtn.o
 *(.fini)
 .fini          0x080159c0        0x4 /opt/toolchain/bin/../lib/gcc/arm-none-eabi/13.3.1/thumb/v6-m/nofp/crti.o
                0x080159c0                _fini
 .fini          0x080159c4        0x8 /opt/toolchain/bin/../lib/gcc/arm-none-eabi/13.3.1/thumb/v6-m/nofp/crtn.o
                0x080159cc                        . = ALIGN (0x4)
                0x080159cc                        _etext = .

.vfp11_veneer   0x080159cc        0x0
 .vfp11_veneer  0x080159cc        0x0 linker stubs

.v4_bx          0x080159cc        0x0
 .v4_bx         0x080159cc        0x0 linker stubs

.iplt           0x080159cc        0x0
 .iplt          0x080159cc        0x0 /opt/toolchain/bin/../lib/gcc/arm-none-eabi/13.3.1/thumb/v6-m/nofp/crtbegin.o

.rodata         0x080159cc     0x2000
                0x080159cc                        . = ALIGN (0x4)
 *(.rodata)
 .rodata        0x080159cc       0x64 CMakeFiles/n7six.ApeX-k1.v7.6.5br3.dir/App/driver/bk4829.c.obj
 .rodata        0x08015a30       0x14 CMakeFiles/n7six.ApeX-k1.v7.6.5br3.dir/App/app/menu.c.obj
 .rodata        0x08015a44       0x70 CMakeFiles/n7six.ApeX-k1.v7.6.5br3.dir/App/ui/main.c.obj
 .rodata        0x08015ab4        0xc CMakeFiles/n7six.ApeX-k1.v7.6.5br3.dir/App/driver/vcp.c.obj
 *(.rodata*)
 .rodata.HSIFreqTable
                0x08015ac0       0x20 CMakeFiles/n7six.ApeX-k1.v7.6.5br3.dir/Core/Src/system_py32f071.c.obj
                0x08015ac0                HSIFreqTable
 .rodata.APBPrescTable
                0x08015ae0       0x20 CMakeFiles/n7six.ApeX-k1.v7.6.5br3.dir/Core/Src/system_py32f071.c.obj
                0x08015ae0                APBPrescTable
 .rodata.AHBPrescTable
                0x08015b00       0x40 CMakeFiles/n7six.ApeX-k1.v7.6.5br3.dir/Core/Src/system_py32f071.c.obj
                0x08015b00                AHBPrescTable
 .rodata.CHANNEL_OFFSET_TAB
                0x08015b40        0x7 CMakeFiles/n7six.ApeX-k1.v7.6.5br3.dir/Drivers/PY32F071_HAL_Driver/Src/py32f071_ll_dma.c.obj
 .rodata.value  0x08015b47        0xb CMakeFiles/n7six.ApeX-k1.v7.6.5br3.dir/App/driver/backlight.c.obj
                0x08015b47                value
 .rodata.BK4819_Init.str1.1
                0x08015b52      0x65d CMakeFiles/n7six.ApeX-k1.v7.6.5br3.dir/App/driver/bk4829.c.obj
                                 0x11 (size before relaxing)
 *fill*         0x080161af        0x1 
 .rodata.CSWTCH.58
                0x080161b0        0x8 CMakeFiles/n7six.ApeX-k1.v7.6.5br3.dir/App/driver/bk4829.c.obj
 .rodata.FSK_RogerTable
                0x080161b8        0xe CMakeFiles/n7six.ApeX-k1.v7.6.5br3.dir/App/driver/bk4829.c.obj
 .rodata.keyboard
                0x080161c6       0x14 CMakeFiles/n7six.ApeX-k1.v7.6.5br3.dir/App/driver/keyboard.c.obj
 *fill*         0x080161da        0x2 
 .rodata.HandleFunction_fn_table
                0x080161dc       0x1c CMakeFiles/n7six.ApeX-k1.v7.6.5br3.dir/App/app/app.c.obj
 .rodata.CSWTCH.21
                0x080161f8        0x6 CMakeFiles/n7six.ApeX-k1.v7.6.5br3.dir/App/app/dtmf.c.obj
 .rodata.MENU_Key_UP_DOWN.str1.1
                0x080161fe        0xf CMakeFiles/n7six.ApeX-k1.v7.6.5br3.dir/App/app/menu.c.obj
 .rodata.CSWTCH.17
                0x080161fe       0x10 CMakeFiles/n7six.ApeX-k1.v7.6.5br3.dir/App/audio.c.obj
 .rodata.BITMAP_NOAA
                0x0801620e        0xc CMakeFiles/n7six.ApeX-k1.v7.6.5br3.dir/App/bitmaps.c.obj
                0x0801620e                BITMAP_NOAA
 .rodata.BITMAP_PowerUser
                0x0801621a        0x3 CMakeFiles/n7six.ApeX-k1.v7.6.5br3.dir/App/bitmaps.c.obj
                0x0801621a                BITMAP_PowerUser
 .rodata.BITMAP_compand
                0x0801621d        0x6 CMakeFiles/n7six.ApeX-k1.v7.6.5br3.dir/App/bitmaps.c.obj
                0x0801621d                BITMAP_compand
 .rodata.BITMAP_ScanListAll
                0x08016223       0x13 CMakeFiles/n7six.ApeX-k1.v7.6.5br3.dir/App/bitmaps.c.obj
                0x08016223                BITMAP_ScanListAll
 .rodata.BITMAP_ScanList123
                0x08016236       0x13 CMakeFiles/n7six.ApeX-k1.v7.6.5br3.dir/App/bitmaps.c.obj
                0x08016236                BITMAP_ScanList123
 .rodata.BITMAP_ScanListE
                0x08016249        0x7 CMakeFiles/n7six.ApeX-k1.v7.6.5br3.dir/App/bitmaps.c.obj
                0x08016249                BITMAP_ScanListE
 .rodata.BITMAP_ScanList3
                0x08016250        0x7 CMakeFiles/n7six.ApeX-k1.v7.6.5br3.dir/App/bitmaps.c.obj
                0x08016250                BITMAP_ScanList3
 .rodata.BITMAP_ScanList2
                0x08016257        0x7 CMakeFiles/n7six.ApeX-k1.v7.6.5br3.dir/App/bitmaps.c.obj
                0x08016257                BITMAP_ScanList2
 .rodata.BITMAP_ScanList1
                0x0801625e        0x7 CMakeFiles/n7six.ApeX-k1.v7.6.5br3.dir/App/bitmaps.c.obj
                0x0801625e                BITMAP_ScanList1
 .rodata.BITMAP_ScanList0
                0x08016265        0x7 CMakeFiles/n7six.ApeX-k1.v7.6.5br3.dir/App/bitmaps.c.obj
                0x08016265                BITMAP_ScanList0
 .rodata.BITMAP_VFO_NotDefault
                0x0801626c        0x7 CMakeFiles/n7six.ApeX-k1.v7.6.5br3.dir/App/bitmaps.c.obj
                0x0801626c                BITMAP_VFO_NotDefault
 .rodata.BITMAP_VFO_Default
                0x08016273        0x7 CMakeFiles/n7six.ApeX-k1.v7.6.5br3.dir/App/bitmaps.c.obj
                0x08016273                BITMAP_VFO_Default
 .rodata.BITMAP_VFO_Lock
                0x0801627a        0x7 CMakeFiles/n7six.ApeX-k1.v7.6.5br3.dir/App/bitmaps.c.obj
                0x0801627a                BITMAP_VFO_Lock
 .rodata.BITMAP_Antenna
                0x08016281        0x5 CMakeFiles/n7six.ApeX-k1.v7.6.5br3.dir/App/bitmaps.c.obj
                0x08016281                BITMAP_Antenna
 .rodata.gFontVox
                0x08016286        0xc CMakeFiles/n7six.ApeX-k1.v7.6.5br3.dir/App/bitmaps.c.obj
                0x08016286                gFontVox
 .rodata.BITMAP_BatteryLevel1
                0x08016292       0x11 CMakeFiles/n7six.ApeX-k1.v7.6.5br3.dir/App/bitmaps.c.obj
                0x08016292                BITMAP_BatteryLevel1
 .rodata.BITMAP_BatteryLevel
                0x080162a3        0x2 CMakeFiles/n7six.ApeX-k1.v7.6.5br3.dir/App/bitmaps.c.obj
                0x080162a3                BITMAP_BatteryLevel
 .rodata.gFontHold
                0x080162a5        0xa CMakeFiles/n7six.ApeX-k1.v7.6.5br3.dir/App/bitmaps.c.obj
                0x080162a5                gFontHold
 .rodata.gFontRO
                0x080162af        0xc CMakeFiles/n7six.ApeX-k1.v7.6.5br3.dir/App/bitmaps.c.obj
                0x080162af                gFontRO
 .rodata.gFontDWR
                0x080162bb       0x12 CMakeFiles/n7six.ApeX-k1.v7.6.5br3.dir/App/bitmaps.c.obj
                0x080162bb                gFontDWR
 .rodata.gFontMO
                0x080162cd        0xc CMakeFiles/n7six.ApeX-k1.v7.6.5br3.dir/App/bitmaps.c.obj
                0x080162cd                gFontMO
 .rodata.gFontXB
                0x080162d9        0xc CMakeFiles/n7six.ApeX-k1.v7.6.5br3.dir/App/bitmaps.c.obj
                0x080162d9                gFontXB
 .rodata.gFontMute
                0x080162e5        0xc CMakeFiles/n7six.ApeX-k1.v7.6.5br3.dir/App/bitmaps.c.obj
                0x080162e5                gFontMute
 .rodata.gFontLight
                0x080162f1        0x9 CMakeFiles/n7six.ApeX-k1.v7.6.5br3.dir/App/bitmaps.c.obj
                0x080162f1                gFontLight
 .rodata.gFontKeyLock
                0x080162fa        0x9 CMakeFiles/n7six.ApeX-k1.v7.6.5br3.dir/App/bitmaps.c.obj
                0x080162fa                gFontKeyLock
 .rodata.gFontS
                0x08016303        0x6 CMakeFiles/n7six.ApeX-k1.v7.6.5br3.dir/App/bitmaps.c.obj
                0x08016303                gFontS
 .rodata.gFontF
                0x08016309        0x8 CMakeFiles/n7six.ApeX-k1.v7.6.5br3.dir/App/bitmaps.c.obj
                0x08016309                gFontF
 .rodata.gFontPttClassic
                0x08016311        0xc CMakeFiles/n7six.ApeX-k1.v7.6.5br3.dir/App/bitmaps.c.obj
                0x08016311                gFontPttClassic
 .rodata.gFontPttOnePush
                0x0801631d        0xc CMakeFiles/n7six.ApeX-k1.v7.6.5br3.dir/App/bitmaps.c.obj
                0x0801631d                gFontPttOnePush
 .rodata.gFontPowerSave
                0x08016329        0xc CMakeFiles/n7six.ApeX-k1.v7.6.5br3.dir/App/bitmaps.c.obj
                0x08016329                gFontPowerSave
 *fill*         0x08016335        0x1 
 .rodata.DCS_Options
                0x08016336       0xd0 CMakeFiles/n7six.ApeX-k1.v7.6.5br3.dir/App/dcs.c.obj
                0x08016336                DCS_Options
 .rodata.CTCSS_Options
                0x08016406       0x64 CMakeFiles/n7six.ApeX-k1.v7.6.5br3.dir/App/dcs.c.obj
                0x08016406                CTCSS_Options
 .rodata.gFont3x5
                0x0801646a      0x120 CMakeFiles/n7six.ApeX-k1.v7.6.5br3.dir/App/font.c.obj
                0x0801646a                gFont3x5
 .rodata.gFontSmallBold
                0x0801658a      0x234 CMakeFiles/n7six.ApeX-k1.v7.6.5br3.dir/App/font.c.obj
                0x0801658a                gFontSmallBold
 .rodata.gFontSmall
                0x080167be      0x234 CMakeFiles/n7six.ApeX-k1.v7.6.5br3.dir/App/font.c.obj
                0x080167be                gFontSmall
 .rodata.gFontBigDigits
                0x080169f2       0xdc CMakeFiles/n7six.ApeX-k1.v7.6.5br3.dir/App/font.c.obj
                0x080169f2                gFontBigDigits
 .rodata.gFontBig
                0x08016ace      0x524 CMakeFiles/n7six.ApeX-k1.v7.6.5br3.dir/App/font.c.obj
                0x08016ace                gFontBig
 .rodata.StepSortedIndexes
                0x08016ff2       0x18 CMakeFiles/n7six.ApeX-k1.v7.6.5br3.dir/App/frequencies.c.obj
                0x08016ff2                StepSortedIndexes
 .rodata.gStepFrequencyTable
                0x0801700a       0x30 CMakeFiles/n7six.ApeX-k1.v7.6.5br3.dir/App/frequencies.c.obj
                0x0801700a                gStepFrequencyTable
 *fill*         0x0801703a        0x2 
 .rodata.NoaaFrequencyTable
                0x0801703c       0x28 CMakeFiles/n7six.ApeX-k1.v7.6.5br3.dir/App/frequencies.c.obj
                0x0801703c                NoaaFrequencyTable
 .rodata.frequencyBandTable
                0x08017064       0x38 CMakeFiles/n7six.ApeX-k1.v7.6.5br3.dir/App/frequencies.c.obj
                0x08017064                frequencyBandTable
 .rodata.BX4819_band2
                0x0801709c        0x8 CMakeFiles/n7six.ApeX-k1.v7.6.5br3.dir/App/frequencies.c.obj
                0x0801709c                BX4819_band2
 .rodata.BX4819_band1
                0x080170a4        0x8 CMakeFiles/n7six.ApeX-k1.v7.6.5br3.dir/App/frequencies.c.obj
                0x080170a4                BX4819_band1
 .rodata.BATTERY_GetReadings.str1.1
                0x080170ac        0x6 CMakeFiles/n7six.ApeX-k1.v7.6.5br3.dir/App/helper/battery.c.obj
 .rodata.Voltage2PercentageTable
                0x080170ac       0x8c CMakeFiles/n7six.ApeX-k1.v7.6.5br3.dir/App/helper/battery.c.obj
                0x080170ac                Voltage2PercentageTable
 .rodata.gMicGain_dB2
                0x08017138        0x5 CMakeFiles/n7six.ApeX-k1.v7.6.5br3.dir/App/misc.c.obj
                0x08017138                gMicGain_dB2
 *fill*         0x0801713d        0x1 
 .rodata.NOAA_countdown_3_10ms
                0x0801713e        0x2 CMakeFiles/n7six.ApeX-k1.v7.6.5br3.dir/App/misc.c.obj
                0x0801713e                NOAA_countdown_3_10ms
 .rodata.NOAA_countdown_2_10ms
                0x08017140        0x2 CMakeFiles/n7six.ApeX-k1.v7.6.5br3.dir/App/misc.c.obj
                0x08017140                NOAA_countdown_2_10ms
 .rodata.NOAA_countdown_10ms
                0x08017142        0x2 CMakeFiles/n7six.ApeX-k1.v7.6.5br3.dir/App/misc.c.obj
                0x08017142                NOAA_countdown_10ms
 .rodata.vox_stop_count_down_10ms
                0x08017144        0x2 CMakeFiles/n7six.ApeX-k1.v7.6.5br3.dir/App/misc.c.obj
                0x08017144                vox_stop_count_down_10ms
 .rodata.power_save2_10ms
                0x08017146        0x2 CMakeFiles/n7six.ApeX-k1.v7.6.5br3.dir/App/misc.c.obj
                0x08017146                power_save2_10ms
 .rodata.power_save1_10ms
                0x08017148        0x2 CMakeFiles/n7six.ApeX-k1.v7.6.5br3.dir/App/misc.c.obj
                0x08017148                power_save1_10ms
 .rodata.battery_save_count_10ms
                0x0801714a        0x2 CMakeFiles/n7six.ApeX-k1.v7.6.5br3.dir/App/misc.c.obj
                0x0801714a                battery_save_count_10ms
 .rodata.scan_pause_delay_in_5_10ms
                0x0801714c        0x2 CMakeFiles/n7six.ApeX-k1.v7.6.5br3.dir/App/misc.c.obj
                0x0801714c                scan_pause_delay_in_5_10ms
 .rodata.scan_pause_delay_in_3_10ms
                0x0801714e        0x2 CMakeFiles/n7six.ApeX-k1.v7.6.5br3.dir/App/misc.c.obj
                0x0801714e                scan_pause_delay_in_3_10ms
 .rodata.scan_pause_delay_in_2_10ms
                0x08017150        0x2 CMakeFiles/n7six.ApeX-k1.v7.6.5br3.dir/App/misc.c.obj
                0x08017150                scan_pause_delay_in_2_10ms
 .rodata.scan_pause_delay_in_1_10ms
                0x08017152        0x2 CMakeFiles/n7six.ApeX-k1.v7.6.5br3.dir/App/misc.c.obj
                0x08017152                scan_pause_delay_in_1_10ms
 .rodata.dual_watch_count_toggle_10ms
                0x08017154        0x2 CMakeFiles/n7six.ApeX-k1.v7.6.5br3.dir/App/misc.c.obj
                0x08017154                dual_watch_count_toggle_10ms
 .rodata.dual_watch_count_after_vox_10ms
                0x08017156        0x2 CMakeFiles/n7six.ApeX-k1.v7.6.5br3.dir/App/misc.c.obj
                0x08017156                dual_watch_count_after_vox_10ms
 .rodata.dual_watch_count_noaa_10ms
                0x08017158        0x2 CMakeFiles/n7six.ApeX-k1.v7.6.5br3.dir/App/misc.c.obj
                0x08017158                dual_watch_count_noaa_10ms
 .rodata.dual_watch_count_after_2_10ms
                0x0801715a        0x2 CMakeFiles/n7six.ApeX-k1.v7.6.5br3.dir/App/misc.c.obj
                0x0801715a                dual_watch_count_after_2_10ms
 .rodata.dual_watch_count_after_rx_10ms
                0x0801715c        0x2 CMakeFiles/n7six.ApeX-k1.v7.6.5br3.dir/App/misc.c.obj
                0x0801715c                dual_watch_count_after_rx_10ms
 .rodata.dual_watch_count_after_tx_10ms
                0x0801715e        0x2 CMakeFiles/n7six.ApeX-k1.v7.6.5br3.dir/App/misc.c.obj
                0x0801715e                dual_watch_count_after_tx_10ms
 .rodata.scan_delay_10ms
                0x08017160        0x1 CMakeFiles/n7six.ApeX-k1.v7.6.5br3.dir/App/misc.c.obj
                0x08017160                scan_delay_10ms
 *fill*         0x08017161        0x1 
 .rodata.key_debounce_10ms
                0x08017162        0x2 CMakeFiles/n7six.ApeX-k1.v7.6.5br3.dir/App/misc.c.obj
                0x08017162                key_debounce_10ms
 .rodata.key_repeat_10ms
                0x08017164        0x2 CMakeFiles/n7six.ApeX-k1.v7.6.5br3.dir/App/misc.c.obj
                0x08017164                key_repeat_10ms
 .rodata.key_repeat_delay_10ms
                0x08017166        0x2 CMakeFiles/n7six.ApeX-k1.v7.6.5br3.dir/App/misc.c.obj
                0x08017166                key_repeat_delay_10ms
 .rodata.key_input_timeout_500ms
                0x08017168        0x1 CMakeFiles/n7six.ApeX-k1.v7.6.5br3.dir/App/misc.c.obj
                0x08017168                key_input_timeout_500ms
 .rodata.DTMF_RX_live_timeout_500ms
                0x08017169        0x1 CMakeFiles/n7six.ApeX-k1.v7.6.5br3.dir/App/misc.c.obj
                0x08017169                DTMF_RX_live_timeout_500ms
 .rodata.menu_timeout_long_500ms
                0x0801716a        0x2 CMakeFiles/n7six.ApeX-k1.v7.6.5br3.dir/App/misc.c.obj
                0x0801716a                menu_timeout_long_500ms
 .rodata.menu_timeout_500ms
                0x0801716c        0x1 CMakeFiles/n7six.ApeX-k1.v7.6.5br3.dir/App/misc.c.obj
                0x0801716c                menu_timeout_500ms
 .rodata.vfo_state_resume_countdown_500ms
                0x0801716d        0x1 CMakeFiles/n7six.ApeX-k1.v7.6.5br3.dir/App/misc.c.obj
                0x0801716d                vfo_state_resume_countdown_500ms
 .rodata.fm_restore_countdown_10ms
                0x0801716e        0x2 CMakeFiles/n7six.ApeX-k1.v7.6.5br3.dir/App/misc.c.obj
                0x0801716e                fm_restore_countdown_10ms
 .rodata.fm_play_countdown_noscan_10ms
                0x08017170        0x2 CMakeFiles/n7six.ApeX-k1.v7.6.5br3.dir/App/misc.c.obj
                0x08017170                fm_play_countdown_noscan_10ms
 .rodata.fm_play_countdown_scan_10ms
                0x08017172        0x2 CMakeFiles/n7six.ApeX-k1.v7.6.5br3.dir/App/misc.c.obj
                0x08017172                fm_play_countdown_scan_10ms
 .rodata.fm_radio_countdown_500ms
                0x08017174        0x1 CMakeFiles/n7six.ApeX-k1.v7.6.5br3.dir/App/misc.c.obj
                0x08017174                fm_radio_countdown_500ms
 .rodata.dividers.1
                0x08017175        0x6 CMakeFiles/n7six.ApeX-k1.v7.6.5br3.dir/App/radio.c.obj
 .rodata.gModulationStr
                0x0801717b        0xc CMakeFiles/n7six.ApeX-k1.v7.6.5br3.dir/App/radio.c.obj
                0x0801717b                gModulationStr
 .rodata.str1.1
                0x08017187       0x18 CMakeFiles/n7six.ApeX-k1.v7.6.5br3.dir/App/radio.c.obj
 *fill*         0x08017187        0x1 
 .rodata.afDacGainRegSpec
                0x08017188        0xc CMakeFiles/n7six.ApeX-k1.v7.6.5br3.dir/App/radio.c.obj
 .rodata.afcDisableRegSpec
                0x08017194        0xc CMakeFiles/n7six.ApeX-k1.v7.6.5br3.dir/App/radio.c.obj
 .rodata.SETTINGS_InitEEPROM.str1.1
                0x080171a0        0xc CMakeFiles/n7six.ApeX-k1.v7.6.5br3.dir/App/settings.c.obj
 .rodata.SETTINGS_UpdateChannel.str1.1
                0x080171a0        0x1 CMakeFiles/n7six.ApeX-k1.v7.6.5br3.dir/App/settings.c.obj
 .rodata.UI_GenerateChannelString.str1.1
                0x080171a0        0x8 CMakeFiles/n7six.ApeX-k1.v7.6.5br3.dir/App/ui/helper.c.obj
 .rodata.UI_GenerateChannelStringEx.str1.1
                0x080171a0       0x12 CMakeFiles/n7six.ApeX-k1.v7.6.5br3.dir/App/ui/helper.c.obj
 .rodata.UI_DisplayPopup.str1.1
                0x080171a0        0xb CMakeFiles/n7six.ApeX-k1.v7.6.5br3.dir/App/ui/helper.c.obj
 .rodata.gFont5x5
                0x080171a0       0x55 CMakeFiles/n7six.ApeX-k1.v7.6.5br3.dir/App/ui/helper.c.obj
 .rodata.DisplayRSSIBar.str1.1
                0x080171f5       0x1d CMakeFiles/n7six.ApeX-k1.v7.6.5br3.dir/App/ui/main.c.obj
 .rodata.UI_DisplayMain.str1.1
                0x080171f5       0xac CMakeFiles/n7six.ApeX-k1.v7.6.5br3.dir/App/ui/main.c.obj
 .rodata.str1.1
                0x080171f5       0x4b CMakeFiles/n7six.ApeX-k1.v7.6.5br3.dir/App/ui/main.c.obj
 .rodata.dBmCorrTable
                0x080171f5        0x7 CMakeFiles/n7six.ApeX-k1.v7.6.5br3.dir/App/ui/main.c.obj
                0x080171f5                dBmCorrTable
 .rodata.UI_DisplayMenu.str1.1
                0x080171fc      0x178 CMakeFiles/n7six.ApeX-k1.v7.6.5br3.dir/App/ui/menu.c.obj
 .rodata.gSubMenu_SIDEFUNCTIONS_size
                0x080171fc        0x1 CMakeFiles/n7six.ApeX-k1.v7.6.5br3.dir/App/ui/menu.c.obj
                0x080171fc                gSubMenu_SIDEFUNCTIONS_size
 .rodata.str1.1
                0x080171fd      0x1e7 CMakeFiles/n7six.ApeX-k1.v7.6.5br3.dir/App/ui/menu.c.obj
 *fill*         0x080171fd        0x3 
 .rodata.gSubMenu_SIDEFUNCTIONS
                0x08017200       0x98 CMakeFiles/n7six.ApeX-k1.v7.6.5br3.dir/App/ui/menu.c.obj
                0x08017200                gSubMenu_SIDEFUNCTIONS
 .rodata.gSubMenu_SET_KEY
                0x08017298       0x2d CMakeFiles/n7six.ApeX-k1.v7.6.5br3.dir/App/ui/menu.c.obj
                0x08017298                gSubMenu_SET_KEY
 .rodata.gSubMenu_SET_NFM
                0x080172c5       0x12 CMakeFiles/n7six.ApeX-k1.v7.6.5br3.dir/App/ui/menu.c.obj
                0x080172c5                gSubMenu_SET_NFM
 .rodata.gSubMenu_SET_MET
                0x080172d7       0x10 CMakeFiles/n7six.ApeX-k1.v7.6.5br3.dir/App/ui/menu.c.obj
                0x080172d7                gSubMenu_SET_MET
 .rodata.gSubMenu_SET_LCK
                0x080172e7       0x12 CMakeFiles/n7six.ApeX-k1.v7.6.5br3.dir/App/ui/menu.c.obj
                0x080172e7                gSubMenu_SET_LCK
 .rodata.gSubMenu_SET_TOT
                0x080172f9       0x1c CMakeFiles/n7six.ApeX-k1.v7.6.5br3.dir/App/ui/menu.c.obj
                0x080172f9                gSubMenu_SET_TOT
 .rodata.gSubMenu_SET_PTT
                0x08017315       0x10 CMakeFiles/n7six.ApeX-k1.v7.6.5br3.dir/App/ui/menu.c.obj
                0x08017315                gSubMenu_SET_PTT
 .rodata.gSubMenu_SET_PWR
                0x08017325       0x2a CMakeFiles/n7six.ApeX-k1.v7.6.5br3.dir/App/ui/menu.c.obj
                0x08017325                gSubMenu_SET_PWR
 .rodata.gSubMenu_BATTYP
                0x0801734f       0x3c CMakeFiles/n7six.ApeX-k1.v7.6.5br3.dir/App/ui/menu.c.obj
                0x0801734f                gSubMenu_BATTYP
 .rodata.gSubMenu_BAT_TXT
                0x0801738b       0x18 CMakeFiles/n7six.ApeX-k1.v7.6.5br3.dir/App/ui/menu.c.obj
                0x0801738b                gSubMenu_BAT_TXT
 .rodata.gSubMenu_RX_TX
                0x080173a3       0x18 CMakeFiles/n7six.ApeX-k1.v7.6.5br3.dir/App/ui/menu.c.obj
                0x080173a3                gSubMenu_RX_TX
 *fill*         0x080173bb        0x1 
 .rodata.gSubMenu_F_LOCK
                0x080173bc       0x2c CMakeFiles/n7six.ApeX-k1.v7.6.5br3.dir/App/ui/menu.c.obj
                0x080173bc                gSubMenu_F_LOCK
 .rodata.gSubMenu_RESET
                0x080173e8        0x8 CMakeFiles/n7six.ApeX-k1.v7.6.5br3.dir/App/ui/menu.c.obj
                0x080173e8                gSubMenu_RESET
 .rodata.gSubMenu_ROGER
                0x080173f0       0x12 CMakeFiles/n7six.ApeX-k1.v7.6.5br3.dir/App/ui/menu.c.obj
                0x080173f0                gSubMenu_ROGER
 .rodata.gSubMenu_PONMSG
                0x08017402       0x28 CMakeFiles/n7six.ApeX-k1.v7.6.5br3.dir/App/ui/menu.c.obj
                0x08017402                gSubMenu_PONMSG
 *fill*         0x0801742a        0x2 
 .rodata.gSubMenu_PTT_ID
                0x0801742c       0x14 CMakeFiles/n7six.ApeX-k1.v7.6.5br3.dir/App/ui/menu.c.obj
                0x0801742c                gSubMenu_PTT_ID
 .rodata.gSubMenu_MDF
                0x08017440       0x10 CMakeFiles/n7six.ApeX-k1.v7.6.5br3.dir/App/ui/menu.c.obj
                0x08017440                gSubMenu_MDF
 .rodata.gSubMenu_RXMode
                0x08017450       0x10 CMakeFiles/n7six.ApeX-k1.v7.6.5br3.dir/App/ui/menu.c.obj
                0x08017450                gSubMenu_RXMode
 .rodata.gSubMenu_OFF_ON
                0x08017460        0x8 CMakeFiles/n7six.ApeX-k1.v7.6.5br3.dir/App/ui/menu.c.obj
                0x08017460                gSubMenu_OFF_ON
 .rodata.gSubMenu_W_N
                0x08017468        0xe CMakeFiles/n7six.ApeX-k1.v7.6.5br3.dir/App/ui/menu.c.obj
                0x08017468                gSubMenu_W_N
 .rodata.gSubMenu_SFT_D
                0x08017476        0xc CMakeFiles/n7six.ApeX-k1.v7.6.5br3.dir/App/ui/menu.c.obj
                0x08017476                gSubMenu_SFT_D
 .rodata.gSubMenu_TXP
                0x08017482       0x30 CMakeFiles/n7six.ApeX-k1.v7.6.5br3.dir/App/ui/menu.c.obj
                0x08017482                gSubMenu_TXP
 .rodata.FIRST_HIDDEN_MENU_ITEM
                0x080174b2        0x1 CMakeFiles/n7six.ApeX-k1.v7.6.5br3.dir/App/ui/menu.c.obj
                0x080174b2                FIRST_HIDDEN_MENU_ITEM
 .rodata.MenuList
                0x080174b3      0x260 CMakeFiles/n7six.ApeX-k1.v7.6.5br3.dir/App/ui/menu.c.obj
                0x080174b3                MenuList
 .rodata.UI_DisplayScanner.str1.1
                0x08017713       0x63 CMakeFiles/n7six.ApeX-k1.v7.6.5br3.dir/App/ui/scanner.c.obj
 .rodata.convertTime.constprop.0.str1.1
                0x08017713        0xa CMakeFiles/n7six.ApeX-k1.v7.6.5br3.dir/App/ui/status.c.obj
 .rodata.UI_DisplayStatus.str1.1
                0x08017713       0x10 CMakeFiles/n7six.ApeX-k1.v7.6.5br3.dir/App/ui/status.c.obj
 *fill*         0x08017713        0x1 
 .rodata.UI_DisplayStatus.cst2
                0x08017714        0x4 CMakeFiles/n7six.ApeX-k1.v7.6.5br3.dir/App/ui/status.c.obj
                                  0x2 (size before relaxing)
 .rodata.UI_DisplayReleaseKeys.str1.1
                0x08017718       0x11 CMakeFiles/n7six.ApeX-k1.v7.6.5br3.dir/App/ui/welcome.c.obj
 .rodata.UI_DisplayWelcome.str1.1
                0x08017718       0x35 CMakeFiles/n7six.ApeX-k1.v7.6.5br3.dir/App/ui/welcome.c.obj
 .rodata.UART_Version
                0x08017718       0x2a CMakeFiles/n7six.ApeX-k1.v7.6.5br3.dir/App/version.c.obj
                0x08017718                UART_Version
 .rodata.Edition
                0x08017742        0x5 CMakeFiles/n7six.ApeX-k1.v7.6.5br3.dir/App/version.c.obj
                0x08017742                Edition
 .rodata.Version
                0x08017747       0x10 CMakeFiles/n7six.ApeX-k1.v7.6.5br3.dir/App/version.c.obj
                0x08017747                Version
 *fill*         0x08017757        0x1 
 .rodata.ADDR_MAPPINGS
                0x08017758       0xb8 CMakeFiles/n7six.ApeX-k1.v7.6.5br3.dir/App/driver/eeprom_compat.c.obj
 .rodata.Obfuscation
                0x08017810       0x10 CMakeFiles/n7six.ApeX-k1.v7.6.5br3.dir/App/app/uart.c.obj
 .rodata.cdc_descriptor
                0x08017820       0x9e CMakeFiles/n7six.ApeX-k1.v7.6.5br3.dir/App/usb/usbd_cdc_if.c.obj
 .rodata.lim.0  0x080178be        0x8 CMakeFiles/n7six.ApeX-k1.v7.6.5br3.dir/App/driver/bk1080.c.obj
 .rodata.lim.1  0x080178c6        0x8 CMakeFiles/n7six.ApeX-k1.v7.6.5br3.dir/App/driver/bk1080.c.obj
 .rodata.BK1080_RegisterTable
                0x080178ce       0x44 CMakeFiles/n7six.ApeX-k1.v7.6.5br3.dir/App/driver/bk1080.c.obj
 .rodata.UI_DisplayFM.str1.1
                0x08017912       0x61 CMakeFiles/n7six.ApeX-k1.v7.6.5br3.dir/App/ui/fmradio.c.obj
 .rodata.Obfuscation
                0x08017912       0x10 CMakeFiles/n7six.ApeX-k1.v7.6.5br3.dir/App/app/aircopy.c.obj
 .rodata.UI_DisplayAircopy.str1.1
                0x08017922       0x5d CMakeFiles/n7six.ApeX-k1.v7.6.5br3.dir/App/ui/aircopy.c.obj
 .rodata.DrawF.str1.1
                0x08017922       0x11 CMakeFiles/n7six.ApeX-k1.v7.6.5br3.dir/App/app/spectrum.c.obj
 .rodata.RenderSpectrum.str1.1
                0x08017922       0x29 CMakeFiles/n7six.ApeX-k1.v7.6.5br3.dir/App/app/spectrum.c.obj
 .rodata.APP_RunSpectrum.str1.1
                0x08017922       0x41 CMakeFiles/n7six.ApeX-k1.v7.6.5br3.dir/App/app/spectrum.c.obj
 .rodata.APP_RunSpectrum.cst2
                0x08017922        0x2 CMakeFiles/n7six.ApeX-k1.v7.6.5br3.dir/App/app/spectrum.c.obj
 .rodata.bayerMatrix.0
                0x08017922       0x10 CMakeFiles/n7six.ApeX-k1.v7.6.5br3.dir/App/app/spectrum.c.obj
 .rodata.registers_to_save
                0x08017932        0x7 CMakeFiles/n7six.ApeX-k1.v7.6.5br3.dir/App/app/spectrum.c.obj
 *fill*         0x08017939        0x1 
 .rodata.BPFRegOptions
                0x0801793a        0xe CMakeFiles/n7six.ApeX-k1.v7.6.5br3.dir/App/app/spectrum.c.obj
 .rodata.str1.1
                0x08017948       0x41 CMakeFiles/n7six.ApeX-k1.v7.6.5br3.dir/App/app/spectrum.c.obj
 .rodata.VGAOptions
                0x08017948        0x8 CMakeFiles/n7six.ApeX-k1.v7.6.5br3.dir/App/app/spectrum.c.obj
                0x08017948                VGAOptions
 .rodata.LNAOptions
                0x08017950        0x8 CMakeFiles/n7six.ApeX-k1.v7.6.5br3.dir/App/app/spectrum.c.obj
                0x08017950                LNAOptions
 .rodata.LNAsOptions
                0x08017958        0x4 CMakeFiles/n7six.ApeX-k1.v7.6.5br3.dir/App/app/spectrum.c.obj
                0x08017958                LNAsOptions
 .rodata.modulationTypeTuneSteps
                0x0801795c        0x3 CMakeFiles/n7six.ApeX-k1.v7.6.5br3.dir/App/app/spectrum.c.obj
                0x0801795c                modulationTypeTuneSteps
 *fill*         0x0801795f        0x1 
 .rodata.bwOptions
                0x08017960        0xc CMakeFiles/n7six.ApeX-k1.v7.6.5br3.dir/App/app/spectrum.c.obj
                0x08017960                bwOptions
 .rodata.calTable
                0x0801796c       0x30 CMakeFiles/n7six.ApeX-k1.v7.6.5br3.dir/App/app/spectrum.c.obj
 .rodata.listenBWRegValues
                0x0801799c        0x6 CMakeFiles/n7six.ApeX-k1.v7.6.5br3.dir/App/app/spectrum.c.obj
 .rodata.scanStepValues
                0x080179a2       0x1e CMakeFiles/n7six.ApeX-k1.v7.6.5br3.dir/App/app/spectrum.c.obj
 .rodata.U8RssiMap
                0x080179c0        0xa CMakeFiles/n7six.ApeX-k1.v7.6.5br3.dir/App/app/spectrum.c.obj
                0x080179cc                        . = ALIGN (0x4)
 *fill*         0x080179ca        0x2 

.rel.dyn        0x080179cc        0x0
 .rel.iplt      0x080179cc        0x0 /opt/toolchain/bin/../lib/gcc/arm-none-eabi/13.3.1/thumb/v6-m/nofp/crtbegin.o

.ARM.extab
 *(.ARM.extab* .gnu.linkonce.armextab.*)

.ARM            0x080179cc        0x0
                0x080179cc                        __exidx_start = .
 *(.ARM.exidx*)
                0x080179cc                        __exidx_end = .

.preinit_array  0x080179cc        0x0
                0x080179cc                        PROVIDE (__preinit_array_start = .)
 *(.preinit_array*)
                0x080179cc                        PROVIDE (__preinit_array_end = .)

.init_array     0x080179cc        0x4
                0x080179cc                        PROVIDE (__init_array_start = .)
 *(SORT_BY_NAME(.init_array.*))
 *(.init_array*)
 .init_array    0x080179cc        0x4 /opt/toolchain/bin/../lib/gcc/arm-none-eabi/13.3.1/thumb/v6-m/nofp/crtbegin.o
                0x080179d0                        PROVIDE (__init_array_end = .)

.fini_array     0x080179d0        0x4
                [!provide]                        PROVIDE (__fini_array_start = .)
 *(SORT_BY_NAME(.fini_array.*))
 *(.fini_array*)
 .fini_array    0x080179d0        0x4 /opt/toolchain/bin/../lib/gcc/arm-none-eabi/13.3.1/thumb/v6-m/nofp/crtbegin.o
                [!provide]                        PROVIDE (__fini_array_end = .)
                0x080179d4                        _sidata = LOADADDR (.data)

.data           0x20000000      0x15c load address 0x080179d4
                0x20000000                        . = ALIGN (0x4)
                0x20000000                        _sdata = .
 *(.data)
 *(.data*)
 .data.SystemCoreClock
                0x20000000        0x4 CMakeFiles/n7six.ApeX-k1.v7.6.5br3.dir/Core/Src/system_py32f071.c.obj
                0x20000000                SystemCoreClock
 .data.SectorCacheAddr
                0x20000004        0x4 CMakeFiles/n7six.ApeX-k1.v7.6.5br3.dir/App/driver/py25q16.c.obj
 .data.gKeyReading1
                0x20000008        0x1 CMakeFiles/n7six.ApeX-k1.v7.6.5br3.dir/App/driver/keyboard.c.obj
                0x20000008                gKeyReading1
 .data.gKeyReading0
                0x20000009        0x1 CMakeFiles/n7six.ApeX-k1.v7.6.5br3.dir/App/driver/keyboard.c.obj
                0x20000009                gKeyReading0
 .data.cmds     0x2000000a        0xb CMakeFiles/n7six.ApeX-k1.v7.6.5br3.dir/App/driver/st7565.c.obj
                0x2000000a                cmds
 *fill*         0x20000015        0x3 
 .data.action_opt_table
                0x20000018       0x58 CMakeFiles/n7six.ApeX-k1.v7.6.5br3.dir/App/app/action.c.obj
                0x20000018                action_opt_table
 .data.ProcessKeysFunctions
                0x20000070       0x14 CMakeFiles/n7six.ApeX-k1.v7.6.5br3.dir/App/app/app.c.obj
                0x20000070                ProcessKeysFunctions
 .data.gK5startup
                0x20000084        0x1 CMakeFiles/n7six.ApeX-k1.v7.6.5br3.dir/App/misc.c.obj
                0x20000084                gK5startup
 .data.gIsLocked
                0x20000085        0x1 CMakeFiles/n7six.ApeX-k1.v7.6.5br3.dir/App/misc.c.obj
                0x20000085                gIsLocked
 .data.gScheduleNOAA
                0x20000086        0x1 CMakeFiles/n7six.ApeX-k1.v7.6.5br3.dir/App/misc.c.obj
                0x20000086                gScheduleNOAA
 .data.gScheduleScanListen
                0x20000087        0x1 CMakeFiles/n7six.ApeX-k1.v7.6.5br3.dir/App/misc.c.obj
                0x20000087                gScheduleScanListen
 .data.gTxTimeoutToneAlert
                0x20000088        0x2 CMakeFiles/n7six.ApeX-k1.v7.6.5br3.dir/App/misc.c.obj
                0x20000088                gTxTimeoutToneAlert
 .data.gScheduleDualWatch
                0x2000008a        0x1 CMakeFiles/n7six.ApeX-k1.v7.6.5br3.dir/App/misc.c.obj
                0x2000008a                gScheduleDualWatch
 *fill*         0x2000008b        0x1 
 .data.gBatterySaveCountdown_10ms
                0x2000008c        0x2 CMakeFiles/n7six.ApeX-k1.v7.6.5br3.dir/App/misc.c.obj
                0x2000008c                gBatterySaveCountdown_10ms
 .data.gSetting_set_ctr
                0x2000008e        0x1 CMakeFiles/n7six.ApeX-k1.v7.6.5br3.dir/App/misc.c.obj
                0x2000008e                gSetting_set_ctr
 .data.gSetting_set_pwr
                0x2000008f        0x1 CMakeFiles/n7six.ApeX-k1.v7.6.5br3.dir/App/misc.c.obj
                0x2000008f                gSetting_set_pwr
 .data.gSetting_set_off
                0x20000090        0x1 CMakeFiles/n7six.ApeX-k1.v7.6.5br3.dir/App/misc.c.obj
                0x20000090                gSetting_set_off
 *fill*         0x20000091        0x3 
 .data.VfoStateStr
                0x20000094       0x1c CMakeFiles/n7six.ApeX-k1.v7.6.5br3.dir/App/ui/main.c.obj
                0x20000094                VfoStateStr
 .data.UI_DisplayFunctions
                0x200000b0       0x14 CMakeFiles/n7six.ApeX-k1.v7.6.5br3.dir/App/ui/ui.c.obj
                0x200000b0                UI_DisplayFunctions
 .data.gRequestDisplayScreen
                0x200000c4        0x1 CMakeFiles/n7six.ApeX-k1.v7.6.5br3.dir/App/ui/ui.c.obj
                0x200000c4                gRequestDisplayScreen
 *fill*         0x200000c5        0x3 
 .data.cdc_in_ep
                0x200000c8        0x8 CMakeFiles/n7six.ApeX-k1.v7.6.5br3.dir/App/usb/usbd_cdc_if.c.obj
                0x200000c8                cdc_in_ep
 .data.cdc_out_ep
                0x200000d0        0x8 CMakeFiles/n7six.ApeX-k1.v7.6.5br3.dir/App/usb/usbd_cdc_if.c.obj
                0x200000d0                cdc_out_ep
 .data.gAircopySendCountdown.0
                0x200000d8        0x1 CMakeFiles/n7six.ApeX-k1.v7.6.5br3.dir/App/app/aircopy.c.obj
 .data.bpfSavedIdx
                0x200000d9        0x1 CMakeFiles/n7six.ApeX-k1.v7.6.5br3.dir/App/app/spectrum.c.obj
 *fill*         0x200000da        0x2 
 .data.BPFOptions
                0x200000dc       0x1c CMakeFiles/n7six.ApeX-k1.v7.6.5br3.dir/App/app/spectrum.c.obj
                0x200000dc                BPFOptions
 .data.settings
                0x200000f8       0x1c CMakeFiles/n7six.ApeX-k1.v7.6.5br3.dir/App/app/spectrum.c.obj
                0x200000f8                settings
 .data.registerSpecs
                0x20000114       0x3c CMakeFiles/n7six.ApeX-k1.v7.6.5br3.dir/App/app/spectrum.c.obj
                0x20000114                registerSpecs
 .data.kbd      0x20000150        0x3 CMakeFiles/n7six.ApeX-k1.v7.6.5br3.dir/App/app/spectrum.c.obj
 .data.audioState
                0x20000153        0x1 CMakeFiles/n7six.ApeX-k1.v7.6.5br3.dir/App/app/spectrum.c.obj
                0x20000153                audioState
 .data.preventKeypress
                0x20000154        0x1 CMakeFiles/n7six.ApeX-k1.v7.6.5br3.dir/App/app/spectrum.c.obj
                0x20000154                preventKeypress
 .data.newScanStart
                0x20000155        0x1 CMakeFiles/n7six.ApeX-k1.v7.6.5br3.dir/App/app/spectrum.c.obj
                0x20000155                newScanStart
 .data.redrawStatus
                0x20000156        0x1 CMakeFiles/n7six.ApeX-k1.v7.6.5br3.dir/App/app/spectrum.c.obj
                0x20000156                redrawStatus
 .data.isListening
                0x20000157        0x1 CMakeFiles/n7six.ApeX-k1.v7.6.5br3.dir/App/app/spectrum.c.obj
                0x20000157                isListening
 .data.keepAlive
                0x20000158        0x1 CMakeFiles/n7six.ApeX-k1.v7.6.5br3.dir/App/screenshot.c.obj
                0x2000015c                        . = ALIGN (0x4)
 *fill*         0x20000159        0x3 
                0x2000015c                        _edata = .

.tm_clone_table
                0x2000015c        0x0 load address 0x08017b30
 .tm_clone_table
                0x2000015c        0x0 /opt/toolchain/bin/../lib/gcc/arm-none-eabi/13.3.1/thumb/v6-m/nofp/crtbegin.o
 .tm_clone_table
                0x2000015c        0x0 /opt/toolchain/bin/../lib/gcc/arm-none-eabi/13.3.1/thumb/v6-m/nofp/crtend.o

.igot.plt       0x2000015c        0x0 load address 0x08017b30
 .igot.plt      0x2000015c        0x0 /opt/toolchain/bin/../lib/gcc/arm-none-eabi/13.3.1/thumb/v6-m/nofp/crtbegin.o

.noncacheable   0x2000015c      0x160 load address 0x08017b30
 .noncacheable  0x2000015c      0x160 CMakeFiles/n7six.ApeX-k1.v7.6.5br3.dir/Middlewares/CherryUSB/core/usbd_core.c.obj
                0x2000015c                usbd_core_cfg
                0x200002bc                        . = ALIGN (0x4)

.bss            0x200002c0     0x2f80 load address 0x08017c90
                0x200002c0                        _sbss = .
                0x200002c0                        __bss_start__ = _sbss
 *(.bss)
 *(.bss*)
 .bss.completed.1
                0x200002c0        0x1 /opt/toolchain/bin/../lib/gcc/arm-none-eabi/13.3.1/thumb/v6-m/nofp/crtbegin.o
 *fill*         0x200002c1        0x3 
 .bss.object.0  0x200002c4       0x18 /opt/toolchain/bin/../lib/gcc/arm-none-eabi/13.3.1/thumb/v6-m/nofp/crtbegin.o
 .bss.currentBrightness
                0x200002dc        0x1 CMakeFiles/n7six.ApeX-k1.v7.6.5br3.dir/App/driver/backlight.c.obj
 *fill*         0x200002dd        0x1 
 .bss.gSleepModeCountdown_500ms
                0x200002de        0x2 CMakeFiles/n7six.ApeX-k1.v7.6.5br3.dir/App/driver/backlight.c.obj
                0x200002de                gSleepModeCountdown_500ms
 .bss.backlightOn
                0x200002e0        0x1 CMakeFiles/n7six.ApeX-k1.v7.6.5br3.dir/App/driver/backlight.c.obj
                0x200002e0                backlightOn
 *fill*         0x200002e1        0x1 
 .bss.gBacklightCountdown_500ms
                0x200002e2        0x2 CMakeFiles/n7six.ApeX-k1.v7.6.5br3.dir/App/driver/backlight.c.obj
                0x200002e2                gBacklightCountdown_500ms
 .bss.dutyCycle
                0x200002e4      0x100 CMakeFiles/n7six.ApeX-k1.v7.6.5br3.dir/App/driver/backlight.c.obj
 .bss.gRxIdleMode
                0x200003e4        0x1 CMakeFiles/n7six.ApeX-k1.v7.6.5br3.dir/App/driver/bk4829.c.obj
                0x200003e4                gRxIdleMode
 *fill*         0x200003e5        0x1 
 .bss.gBK4819_GpioOutState
                0x200003e6        0x2 CMakeFiles/n7six.ApeX-k1.v7.6.5br3.dir/App/driver/bk4829.c.obj
 .bss.TC_Flag   0x200003e8        0x1 CMakeFiles/n7six.ApeX-k1.v7.6.5br3.dir/App/driver/py25q16.c.obj
 .bss.BlackHole
                0x200003e9        0x1 CMakeFiles/n7six.ApeX-k1.v7.6.5br3.dir/App/driver/py25q16.c.obj
 .bss.SectorCache
                0x200003ea     0x1000 CMakeFiles/n7six.ApeX-k1.v7.6.5br3.dir/App/driver/py25q16.c.obj
 .bss.gWasFKeyPressed
                0x200013ea        0x1 CMakeFiles/n7six.ApeX-k1.v7.6.5br3.dir/App/driver/keyboard.c.obj
                0x200013ea                gWasFKeyPressed
 *fill*         0x200013eb        0x1 
 .bss.gDebounceCounter
                0x200013ec        0x2 CMakeFiles/n7six.ApeX-k1.v7.6.5br3.dir/App/driver/keyboard.c.obj
                0x200013ec                gDebounceCounter
 .bss.gFrameBuffer
                0x200013ee      0x380 CMakeFiles/n7six.ApeX-k1.v7.6.5br3.dir/App/driver/st7565.c.obj
                0x200013ee                gFrameBuffer
 .bss.gStatusLine
                0x2000176e       0x80 CMakeFiles/n7six.ApeX-k1.v7.6.5br3.dir/App/driver/st7565.c.obj
                0x2000176e                gStatusLine
 *fill*         0x200017ee        0x2 
 .bss.gTickMultiplier
                0x200017f0        0x4 CMakeFiles/n7six.ApeX-k1.v7.6.5br3.dir/App/driver/systick.c.obj
 .bss.cb.0      0x200017f4        0x1 CMakeFiles/n7six.ApeX-k1.v7.6.5br3.dir/App/app/action.c.obj
 .bss.dw.1      0x200017f5        0x1 CMakeFiles/n7six.ApeX-k1.v7.6.5br3.dir/App/app/action.c.obj
 .bss.cycle.2   0x200017f6        0x1 CMakeFiles/n7six.ApeX-k1.v7.6.5br3.dir/App/app/action.c.obj
 .bss.cycle.3   0x200017f7        0x1 CMakeFiles/n7six.ApeX-k1.v7.6.5br3.dir/App/app/action.c.obj
 .bss.counter.0
                0x200017f8        0x1 CMakeFiles/n7six.ApeX-k1.v7.6.5br3.dir/App/app/app.c.obj
 .bss.goToSleep.1
                0x200017f9        0x1 CMakeFiles/n7six.ApeX-k1.v7.6.5br3.dir/App/app/app.c.obj
 .bss.flagSaveChannel
                0x200017fa        0x1 CMakeFiles/n7six.ApeX-k1.v7.6.5br3.dir/App/app/app.c.obj
 .bss.flagSaveSettings
                0x200017fb        0x1 CMakeFiles/n7six.ApeX-k1.v7.6.5br3.dir/App/app/app.c.obj
 .bss.flagSaveVfo
                0x200017fc        0x1 CMakeFiles/n7six.ApeX-k1.v7.6.5br3.dir/App/app/app.c.obj
 *fill*         0x200017fd        0x3 
 .bss.prev_mr_chan.0
                0x20001800        0x4 CMakeFiles/n7six.ApeX-k1.v7.6.5br3.dir/App/app/chFrScanner.c.obj
 .bss.lastFoundFrqOrChanOld
                0x20001804        0x4 CMakeFiles/n7six.ApeX-k1.v7.6.5br3.dir/App/app/chFrScanner.c.obj
                0x20001804                lastFoundFrqOrChanOld
 .bss.lastFoundFrqOrChan
                0x20001808        0x4 CMakeFiles/n7six.ApeX-k1.v7.6.5br3.dir/App/app/chFrScanner.c.obj
                0x20001808                lastFoundFrqOrChan
 .bss.initialCROSS_BAND_RX_TX
                0x2000180c        0x1 CMakeFiles/n7six.ApeX-k1.v7.6.5br3.dir/App/app/chFrScanner.c.obj
                0x2000180c                initialCROSS_BAND_RX_TX
 *fill*         0x2000180d        0x3 
 .bss.initialFrqOrChan
                0x20001810        0x4 CMakeFiles/n7six.ApeX-k1.v7.6.5br3.dir/App/app/chFrScanner.c.obj
                0x20001810                initialFrqOrChan
 .bss.currentScanList
                0x20001814        0x1 CMakeFiles/n7six.ApeX-k1.v7.6.5br3.dir/App/app/chFrScanner.c.obj
                0x20001814                currentScanList
 *fill*         0x20001815        0x3 
 .bss.gScanRangeStop
                0x20001818        0x4 CMakeFiles/n7six.ApeX-k1.v7.6.5br3.dir/App/app/chFrScanner.c.obj
                0x20001818                gScanRangeStop
 .bss.gScanRangeStart
                0x2000181c        0x4 CMakeFiles/n7six.ApeX-k1.v7.6.5br3.dir/App/app/chFrScanner.c.obj
                0x2000181c                gScanRangeStart
 .bss.gScanPauseMode
                0x20001820        0x1 CMakeFiles/n7six.ApeX-k1.v7.6.5br3.dir/App/app/chFrScanner.c.obj
                0x20001820                gScanPauseMode
 .bss.gScanKeepResult
                0x20001821        0x1 CMakeFiles/n7six.ApeX-k1.v7.6.5br3.dir/App/app/chFrScanner.c.obj
                0x20001821                gScanKeepResult
 .bss.gScanStateDir
                0x20001822        0x1 CMakeFiles/n7six.ApeX-k1.v7.6.5br3.dir/App/app/chFrScanner.c.obj
                0x20001822                gScanStateDir
 .bss.gDTMF_ReplyState
                0x20001823        0x1 CMakeFiles/n7six.ApeX-k1.v7.6.5br3.dir/App/app/dtmf.c.obj
                0x20001823                gDTMF_ReplyState
 .bss.gDTMF_RX_live_timeout
                0x20001824        0x1 CMakeFiles/n7six.ApeX-k1.v7.6.5br3.dir/App/app/dtmf.c.obj
                0x20001824                gDTMF_RX_live_timeout
 .bss.gDTMF_RX_live
                0x20001825       0x14 CMakeFiles/n7six.ApeX-k1.v7.6.5br3.dir/App/app/dtmf.c.obj
                0x20001825                gDTMF_RX_live
 .bss.gDTMF_PreviousIndex
                0x20001839        0x1 CMakeFiles/n7six.ApeX-k1.v7.6.5br3.dir/App/app/dtmf.c.obj
                0x20001839                gDTMF_PreviousIndex
 .bss.gDTMF_InputMode
                0x2000183a        0x1 CMakeFiles/n7six.ApeX-k1.v7.6.5br3.dir/App/app/dtmf.c.obj
                0x2000183a                gDTMF_InputMode
 .bss.gDTMF_InputBox_Index
                0x2000183b        0x1 CMakeFiles/n7six.ApeX-k1.v7.6.5br3.dir/App/app/dtmf.c.obj
                0x2000183b                gDTMF_InputBox_Index
 .bss.gDTMF_InputBox
                0x2000183c        0xf CMakeFiles/n7six.ApeX-k1.v7.6.5br3.dir/App/app/dtmf.c.obj
                0x2000183c                gDTMF_InputBox
 .bss.gDTMF_String
                0x2000184b        0xf CMakeFiles/n7six.ApeX-k1.v7.6.5br3.dir/App/app/dtmf.c.obj
                0x2000184b                gDTMF_String
 .bss.g_subscriber_count
                0x2000185a        0x7 CMakeFiles/n7six.ApeX-k1.v7.6.5br3.dir/App/app/events.c.obj
 *fill*         0x20001861        0x3 
 .bss.g_subscribers
                0x20001864       0x70 CMakeFiles/n7six.ApeX-k1.v7.6.5br3.dir/App/app/events.c.obj
 .bss.gUnlockAllTxConfCnt
                0x200018d4        0x1 CMakeFiles/n7six.ApeX-k1.v7.6.5br3.dir/App/app/menu.c.obj
                0x200018d4                gUnlockAllTxConfCnt
 .bss.scanHitCount
                0x200018d5        0x1 CMakeFiles/n7six.ApeX-k1.v7.6.5br3.dir/App/app/scanner.c.obj
                0x200018d5                scanHitCount
 .bss.stepSetting
                0x200018d6        0x1 CMakeFiles/n7six.ApeX-k1.v7.6.5br3.dir/App/app/scanner.c.obj
                0x200018d6                stepSetting
 .bss.gScanUseCssResult
                0x200018d7        0x1 CMakeFiles/n7six.ApeX-k1.v7.6.5br3.dir/App/app/scanner.c.obj
                0x200018d7                gScanUseCssResult
 .bss.gScanProgressIndicator
                0x200018d8        0x1 CMakeFiles/n7six.ApeX-k1.v7.6.5br3.dir/App/app/scanner.c.obj
                0x200018d8                gScanProgressIndicator
 .bss.gScanCssState
                0x200018d9        0x1 CMakeFiles/n7six.ApeX-k1.v7.6.5br3.dir/App/app/scanner.c.obj
                0x200018d9                gScanCssState
 *fill*         0x200018da        0x2 
 .bss.gScanFrequency
                0x200018dc        0x4 CMakeFiles/n7six.ApeX-k1.v7.6.5br3.dir/App/app/scanner.c.obj
                0x200018dc                gScanFrequency
 .bss.gScanChannel
                0x200018e0        0x1 CMakeFiles/n7six.ApeX-k1.v7.6.5br3.dir/App/app/scanner.c.obj
                0x200018e0                gScanChannel
 .bss.gScannerSaveState
                0x200018e1        0x1 CMakeFiles/n7six.ApeX-k1.v7.6.5br3.dir/App/app/scanner.c.obj
                0x200018e1                gScannerSaveState
 .bss.gScanSingleFrequency
                0x200018e2        0x1 CMakeFiles/n7six.ApeX-k1.v7.6.5br3.dir/App/app/scanner.c.obj
                0x200018e2                gScanSingleFrequency
 .bss.gScanCssResultCode
                0x200018e3        0x1 CMakeFiles/n7six.ApeX-k1.v7.6.5br3.dir/App/app/scanner.c.obj
                0x200018e3                gScanCssResultCode
 .bss.gScanCssResultType
                0x200018e4        0x1 CMakeFiles/n7six.ApeX-k1.v7.6.5br3.dir/App/app/scanner.c.obj
                0x200018e4                gScanCssResultType
 .bss.gBeepToPlay
                0x200018e5        0x1 CMakeFiles/n7six.ApeX-k1.v7.6.5br3.dir/App/audio.c.obj
                0x200018e5                gBeepToPlay
 .bss.gCurrentFunction
                0x200018e6        0x1 CMakeFiles/n7six.ApeX-k1.v7.6.5br3.dir/App/functions.c.obj
                0x200018e6                gCurrentFunction
 *fill*         0x200018e7        0x1 
 .bss.gPowerSave_10ms
                0x200018e8        0x2 CMakeFiles/n7six.ApeX-k1.v7.6.5br3.dir/App/helper/battery.c.obj
                0x200018e8                gPowerSave_10ms
 .bss.lowBatteryCountdown
                0x200018ea        0x2 CMakeFiles/n7six.ApeX-k1.v7.6.5br3.dir/App/helper/battery.c.obj
                0x200018ea                lowBatteryCountdown
 .bss.gBatteryCheckCounter
                0x200018ec        0x2 CMakeFiles/n7six.ApeX-k1.v7.6.5br3.dir/App/helper/battery.c.obj
                0x200018ec                gBatteryCheckCounter
 .bss.gLowBatteryConfirmed
                0x200018ee        0x1 CMakeFiles/n7six.ApeX-k1.v7.6.5br3.dir/App/helper/battery.c.obj
                0x200018ee                gLowBatteryConfirmed
 .bss.gLowBattery
                0x200018ef        0x1 CMakeFiles/n7six.ApeX-k1.v7.6.5br3.dir/App/helper/battery.c.obj
                0x200018ef                gLowBattery
 .bss.gLowBatteryBlink
                0x200018f0        0x1 CMakeFiles/n7six.ApeX-k1.v7.6.5br3.dir/App/helper/battery.c.obj
                0x200018f0                gLowBatteryBlink
 .bss.gChargingWithTypeC
                0x200018f1        0x1 CMakeFiles/n7six.ApeX-k1.v7.6.5br3.dir/App/helper/battery.c.obj
                0x200018f1                gChargingWithTypeC
 .bss.gBatteryDisplayLevel
                0x200018f2        0x1 CMakeFiles/n7six.ApeX-k1.v7.6.5br3.dir/App/helper/battery.c.obj
                0x200018f2                gBatteryDisplayLevel
 *fill*         0x200018f3        0x1 
 .bss.gBatteryVoltageAverage
                0x200018f4        0x2 CMakeFiles/n7six.ApeX-k1.v7.6.5br3.dir/App/helper/battery.c.obj
                0x200018f4                gBatteryVoltageAverage
 .bss.gBatteryVoltages
                0x200018f6        0x8 CMakeFiles/n7six.ApeX-k1.v7.6.5br3.dir/App/helper/battery.c.obj
                0x200018f6                gBatteryVoltages
 .bss.gBatteryCurrent
                0x200018fe        0x2 CMakeFiles/n7six.ApeX-k1.v7.6.5br3.dir/App/helper/battery.c.obj
                0x200018fe                gBatteryCurrent
 .bss.gBatteryCurrentVoltage
                0x20001900        0x2 CMakeFiles/n7six.ApeX-k1.v7.6.5br3.dir/App/helper/battery.c.obj
                0x20001900                gBatteryCurrentVoltage
 .bss.gBatteryCalibration
                0x20001902        0xc CMakeFiles/n7six.ApeX-k1.v7.6.5br3.dir/App/helper/battery.c.obj
                0x20001902                gBatteryCalibration
 *fill*         0x2000190e        0x2 
 .bss.gBlinkCounter
                0x20001910        0x4 CMakeFiles/n7six.ApeX-k1.v7.6.5br3.dir/App/misc.c.obj
                0x20001910                gBlinkCounter
 .bss.gPttOnePushCounter
                0x20001914        0x1 CMakeFiles/n7six.ApeX-k1.v7.6.5br3.dir/App/misc.c.obj
                0x20001914                gPttOnePushCounter
 .bss.gBacklightBrightnessOld
                0x20001915        0x1 CMakeFiles/n7six.ApeX-k1.v7.6.5br3.dir/App/misc.c.obj
                0x20001915                gBacklightBrightnessOld
 .bss.gBacklightTimeOriginal
                0x20001916        0x1 CMakeFiles/n7six.ApeX-k1.v7.6.5br3.dir/App/misc.c.obj
                0x20001916                gBacklightTimeOriginal
 .bss.gMute     0x20001917        0x1 CMakeFiles/n7six.ApeX-k1.v7.6.5br3.dir/App/misc.c.obj
                0x20001917                gMute
 .bss.gBackLight
                0x20001918        0x1 CMakeFiles/n7six.ApeX-k1.v7.6.5br3.dir/App/misc.c.obj
                0x20001918                gBackLight
 .bss.gScheduleFM
                0x20001919        0x1 CMakeFiles/n7six.ApeX-k1.v7.6.5br3.dir/App/misc.c.obj
                0x20001919                gScheduleFM
 .bss.gFlagTailNoteEliminationComplete
                0x2000191a        0x1 CMakeFiles/n7six.ApeX-k1.v7.6.5br3.dir/App/misc.c.obj
                0x2000191a                gFlagTailNoteEliminationComplete
 *fill*         0x2000191b        0x1 
 .bss.gNOAACountdown_10ms
                0x2000191c        0x2 CMakeFiles/n7six.ApeX-k1.v7.6.5br3.dir/App/misc.c.obj
                0x2000191c                gNOAACountdown_10ms
 .bss.gNextTimeslice40ms
                0x2000191e        0x1 CMakeFiles/n7six.ApeX-k1.v7.6.5br3.dir/App/misc.c.obj
                0x2000191e                gNextTimeslice40ms
 *fill*         0x2000191f        0x1 
 .bss.gVoxStopCountdown_10ms
                0x20001920        0x2 CMakeFiles/n7six.ApeX-k1.v7.6.5br3.dir/App/misc.c.obj
                0x20001920                gVoxStopCountdown_10ms
 .bss.gFoundCTCSSCountdown_10ms
                0x20001922        0x1 CMakeFiles/n7six.ApeX-k1.v7.6.5br3.dir/App/misc.c.obj
                0x20001922                gFoundCTCSSCountdown_10ms
 .bss.gFoundCDCSSCountdown_10ms
                0x20001923        0x1 CMakeFiles/n7six.ApeX-k1.v7.6.5br3.dir/App/misc.c.obj
                0x20001923                gFoundCDCSSCountdown_10ms
 .bss.gNextTimeslice
                0x20001924        0x1 CMakeFiles/n7six.ApeX-k1.v7.6.5br3.dir/App/misc.c.obj
                0x20001924                gNextTimeslice
 .bss.gShowChPrefix
                0x20001925        0x1 CMakeFiles/n7six.ApeX-k1.v7.6.5br3.dir/App/misc.c.obj
                0x20001925                gShowChPrefix
 .bss.gF_LOCK   0x20001926        0x1 CMakeFiles/n7six.ApeX-k1.v7.6.5br3.dir/App/misc.c.obj
                0x20001926                gF_LOCK
 .bss.gUpdateDisplay
                0x20001927        0x1 CMakeFiles/n7six.ApeX-k1.v7.6.5br3.dir/App/misc.c.obj
                0x20001927                gUpdateDisplay
 .bss.gNoaaChannel
                0x20001928        0x1 CMakeFiles/n7six.ApeX-k1.v7.6.5br3.dir/App/misc.c.obj
                0x20001928                gNoaaChannel
 .bss.gIsNoaaMode
                0x20001929        0x1 CMakeFiles/n7six.ApeX-k1.v7.6.5br3.dir/App/misc.c.obj
                0x20001929                gIsNoaaMode
 .bss.gFSKWriteIndex
                0x2000192a        0x1 CMakeFiles/n7six.ApeX-k1.v7.6.5br3.dir/App/misc.c.obj
                0x2000192a                gFSKWriteIndex
 .bss.gScanDelay_10ms
                0x2000192b        0x1 CMakeFiles/n7six.ApeX-k1.v7.6.5br3.dir/App/misc.c.obj
                0x2000192b                gScanDelay_10ms
 .bss.gBackup_CROSS_BAND_RX_TX
                0x2000192c        0x1 CMakeFiles/n7six.ApeX-k1.v7.6.5br3.dir/App/misc.c.obj
                0x2000192c                gBackup_CROSS_BAND_RX_TX
 .bss.gMenuListCount
                0x2000192d        0x1 CMakeFiles/n7six.ApeX-k1.v7.6.5br3.dir/App/misc.c.obj
                0x2000192d                gMenuListCount
 .bss.gPttDebounceCounter
                0x2000192e        0x1 CMakeFiles/n7six.ApeX-k1.v7.6.5br3.dir/App/misc.c.obj
                0x2000192e                gPttDebounceCounter
 .bss.gPttIsPressed
                0x2000192f        0x1 CMakeFiles/n7six.ApeX-k1.v7.6.5br3.dir/App/misc.c.obj
                0x2000192f                gPttIsPressed
 .bss.gKeyBeingHeld
                0x20001930        0x1 CMakeFiles/n7six.ApeX-k1.v7.6.5br3.dir/App/misc.c.obj
                0x20001930                gKeyBeingHeld
 .bss.gRxVfoIsActive
                0x20001931        0x1 CMakeFiles/n7six.ApeX-k1.v7.6.5br3.dir/App/misc.c.obj
                0x20001931                gRxVfoIsActive
 .bss.gRxReceptionMode
                0x20001932        0x1 CMakeFiles/n7six.ApeX-k1.v7.6.5br3.dir/App/misc.c.obj
                0x20001932                gRxReceptionMode
 .bss.gNextMrChannel
                0x20001933        0x1 CMakeFiles/n7six.ApeX-k1.v7.6.5br3.dir/App/misc.c.obj
                0x20001933                gNextMrChannel
 .bss.gFlagEndTransmission
                0x20001934        0x1 CMakeFiles/n7six.ApeX-k1.v7.6.5br3.dir/App/misc.c.obj
                0x20001934                gFlagEndTransmission
 *fill*         0x20001935        0x1 
 .bss.gFlashLightBlinkCounter
                0x20001936        0x2 CMakeFiles/n7six.ApeX-k1.v7.6.5br3.dir/App/misc.c.obj
                0x20001936                gFlashLightBlinkCounter
 .bss.g_SquelchLost
                0x20001938        0x1 CMakeFiles/n7six.ApeX-k1.v7.6.5br3.dir/App/misc.c.obj
                0x20001938                g_SquelchLost
 *fill*         0x20001939        0x1 
 .bss.gVoxPauseCountdown
                0x2000193a        0x2 CMakeFiles/n7six.ApeX-k1.v7.6.5br3.dir/App/misc.c.obj
                0x2000193a                gVoxPauseCountdown
 .bss.gVoxResumeCountdown
                0x2000193c        0x2 CMakeFiles/n7six.ApeX-k1.v7.6.5br3.dir/App/misc.c.obj
                0x2000193c                gVoxResumeCountdown
 .bss.gVOX_NoiseDetected
                0x2000193e        0x1 CMakeFiles/n7six.ApeX-k1.v7.6.5br3.dir/App/misc.c.obj
                0x2000193e                gVOX_NoiseDetected
 .bss.g_VOX_Lost
                0x2000193f        0x1 CMakeFiles/n7six.ApeX-k1.v7.6.5br3.dir/App/misc.c.obj
                0x2000193f                g_VOX_Lost
 .bss.g_CxCSS_TAIL_Found
                0x20001940        0x1 CMakeFiles/n7six.ApeX-k1.v7.6.5br3.dir/App/misc.c.obj
                0x20001940                g_CxCSS_TAIL_Found
 .bss.g_CTCSS_Lost
                0x20001941        0x1 CMakeFiles/n7six.ApeX-k1.v7.6.5br3.dir/App/misc.c.obj
                0x20001941                g_CTCSS_Lost
 .bss.gCDCSSCodeType
                0x20001942        0x1 CMakeFiles/n7six.ApeX-k1.v7.6.5br3.dir/App/misc.c.obj
                0x20001942                gCDCSSCodeType
 .bss.g_CDCSS_Lost
                0x20001943        0x1 CMakeFiles/n7six.ApeX-k1.v7.6.5br3.dir/App/misc.c.obj
                0x20001943                g_CDCSS_Lost
 .bss.gFlagSaveFM
                0x20001944        0x1 CMakeFiles/n7six.ApeX-k1.v7.6.5br3.dir/App/misc.c.obj
                0x20001944                gFlagSaveFM
 .bss.gFlagRefreshSetting
                0x20001945        0x1 CMakeFiles/n7six.ApeX-k1.v7.6.5br3.dir/App/misc.c.obj
                0x20001945                gFlagRefreshSetting
 .bss.gFlagAcceptSetting
                0x20001946        0x1 CMakeFiles/n7six.ApeX-k1.v7.6.5br3.dir/App/misc.c.obj
                0x20001946                gFlagAcceptSetting
 .bss.gFlagPrepareTX
                0x20001947        0x1 CMakeFiles/n7six.ApeX-k1.v7.6.5br3.dir/App/misc.c.obj
                0x20001947                gFlagPrepareTX
 .bss.gRequestSaveFM
                0x20001948        0x1 CMakeFiles/n7six.ApeX-k1.v7.6.5br3.dir/App/misc.c.obj
                0x20001948                gRequestSaveFM
 .bss.gRequestSaveSettings
                0x20001949        0x1 CMakeFiles/n7six.ApeX-k1.v7.6.5br3.dir/App/misc.c.obj
                0x20001949                gRequestSaveSettings
 .bss.gRequestSaveChannel
                0x2000194a        0x1 CMakeFiles/n7six.ApeX-k1.v7.6.5br3.dir/App/misc.c.obj
                0x2000194a                gRequestSaveChannel
 .bss.gRequestSaveVFO
                0x2000194b        0x1 CMakeFiles/n7six.ApeX-k1.v7.6.5br3.dir/App/misc.c.obj
                0x2000194b                gRequestSaveVFO
 .bss.gFlagResetVfos
                0x2000194c        0x1 CMakeFiles/n7six.ApeX-k1.v7.6.5br3.dir/App/misc.c.obj
                0x2000194c                gFlagResetVfos
 .bss.gVfoConfigureMode
                0x2000194d        0x1 CMakeFiles/n7six.ApeX-k1.v7.6.5br3.dir/App/misc.c.obj
                0x2000194d                gVfoConfigureMode
 .bss.gFlagReconfigureVfos
                0x2000194e        0x1 CMakeFiles/n7six.ApeX-k1.v7.6.5br3.dir/App/misc.c.obj
                0x2000194e                gFlagReconfigureVfos
 .bss.gKeypadLocked
                0x2000194f        0x1 CMakeFiles/n7six.ApeX-k1.v7.6.5br3.dir/App/misc.c.obj
                0x2000194f                gKeypadLocked
 .bss.gPttWasPressed
                0x20001950        0x1 CMakeFiles/n7six.ApeX-k1.v7.6.5br3.dir/App/misc.c.obj
                0x20001950                gPttWasPressed
 .bss.gPttWasReleased
                0x20001951        0x1 CMakeFiles/n7six.ApeX-k1.v7.6.5br3.dir/App/misc.c.obj
                0x20001951                gPttWasReleased
 .bss.gMenuCountdown
                0x20001952        0x2 CMakeFiles/n7six.ApeX-k1.v7.6.5br3.dir/App/misc.c.obj
                0x20001952                gMenuCountdown
 .bss.gAlarmState
                0x20001954        0x1 CMakeFiles/n7six.ApeX-k1.v7.6.5br3.dir/App/misc.c.obj
                0x20001954                gAlarmState
 *fill*         0x20001955        0x1 
 .bss.gScanPauseDelayIn_10ms
                0x20001956        0x2 CMakeFiles/n7six.ApeX-k1.v7.6.5br3.dir/App/misc.c.obj
                0x20001956                gScanPauseDelayIn_10ms
 .bss.gCssBackgroundScan
                0x20001958        0x1 CMakeFiles/n7six.ApeX-k1.v7.6.5br3.dir/App/misc.c.obj
                0x20001958                gCssBackgroundScan
 .bss.gBatteryVoltageIndex
                0x20001959        0x1 CMakeFiles/n7six.ApeX-k1.v7.6.5br3.dir/App/misc.c.obj
                0x20001959                gBatteryVoltageIndex
 .bss.gReducedService
                0x2000195a        0x1 CMakeFiles/n7six.ApeX-k1.v7.6.5br3.dir/App/misc.c.obj
                0x2000195a                gReducedService
 .bss.gVFO_RSSI_bar_level
                0x2000195b        0x2 CMakeFiles/n7six.ApeX-k1.v7.6.5br3.dir/App/misc.c.obj
                0x2000195b                gVFO_RSSI_bar_level
 .bss.gEndOfRxDetectedMaybe
                0x2000195d        0x1 CMakeFiles/n7six.ApeX-k1.v7.6.5br3.dir/App/misc.c.obj
                0x2000195d                gEndOfRxDetectedMaybe
 .bss.gFoundCDCSS
                0x2000195e        0x1 CMakeFiles/n7six.ApeX-k1.v7.6.5br3.dir/App/misc.c.obj
                0x2000195e                gFoundCDCSS
 .bss.gFoundCTCSS
                0x2000195f        0x1 CMakeFiles/n7six.ApeX-k1.v7.6.5br3.dir/App/misc.c.obj
                0x2000195f                gFoundCTCSS
 .bss.gUpdateStatus
                0x20001960        0x1 CMakeFiles/n7six.ApeX-k1.v7.6.5br3.dir/App/misc.c.obj
                0x20001960                gUpdateStatus
 .bss.bIsInLockScreen
                0x20001961        0x1 CMakeFiles/n7six.ApeX-k1.v7.6.5br3.dir/App/misc.c.obj
                0x20001961                bIsInLockScreen
 .bss.gRTTECountdown_10ms
                0x20001962        0x1 CMakeFiles/n7six.ApeX-k1.v7.6.5br3.dir/App/misc.c.obj
                0x20001962                gRTTECountdown_10ms
 .bss.gKeyLockCountdown
                0x20001963        0x1 CMakeFiles/n7six.ApeX-k1.v7.6.5br3.dir/App/misc.c.obj
                0x20001963                gKeyLockCountdown
 .bss.gKeyInputCountdown
                0x20001964        0x1 CMakeFiles/n7six.ApeX-k1.v7.6.5br3.dir/App/misc.c.obj
                0x20001964                gKeyInputCountdown
 .bss.gEnableSpeaker
                0x20001965        0x1 CMakeFiles/n7six.ApeX-k1.v7.6.5br3.dir/App/misc.c.obj
                0x20001965                gEnableSpeaker
 .bss.gNOAA_Countdown_10ms
                0x20001966        0x2 CMakeFiles/n7six.ApeX-k1.v7.6.5br3.dir/App/misc.c.obj
                0x20001966                gNOAA_Countdown_10ms
 .bss.gVFOStateResumeCountdown_500ms
                0x20001968        0x1 CMakeFiles/n7six.ApeX-k1.v7.6.5br3.dir/App/misc.c.obj
                0x20001968                gVFOStateResumeCountdown_500ms
 *fill*         0x20001969        0x1 
 .bss.gTailNoteEliminationCountdown_10ms
                0x2000196a        0x2 CMakeFiles/n7six.ApeX-k1.v7.6.5br3.dir/App/misc.c.obj
                0x2000196a                gTailNoteEliminationCountdown_10ms
 .bss.gUART_LockScreenshot
                0x2000196c        0x1 CMakeFiles/n7six.ApeX-k1.v7.6.5br3.dir/App/misc.c.obj
                0x2000196c                gUART_LockScreenshot
 *fill*         0x2000196d        0x1 
 .bss.gRxTimerCountdown_500ms
                0x2000196e        0x2 CMakeFiles/n7six.ApeX-k1.v7.6.5br3.dir/App/misc.c.obj
                0x2000196e                gRxTimerCountdown_500ms
 .bss.gTxTimeoutReachedAlert
                0x20001970        0x1 CMakeFiles/n7six.ApeX-k1.v7.6.5br3.dir/App/misc.c.obj
                0x20001970                gTxTimeoutReachedAlert
 *fill*         0x20001971        0x1 
 .bss.gTxTimerCountdownAlert_500ms
                0x20001972        0x2 CMakeFiles/n7six.ApeX-k1.v7.6.5br3.dir/App/misc.c.obj
                0x20001972                gTxTimerCountdownAlert_500ms
 .bss.gTxTimeoutReached
                0x20001974        0x1 CMakeFiles/n7six.ApeX-k1.v7.6.5br3.dir/App/misc.c.obj
                0x20001974                gTxTimeoutReached
 *fill*         0x20001975        0x1 
 .bss.gTxTimerCountdown_500ms
                0x20001976        0x2 CMakeFiles/n7six.ApeX-k1.v7.6.5br3.dir/App/misc.c.obj
                0x20001976                gTxTimerCountdown_500ms
 .bss.gNextTimeslice_500ms
                0x20001978        0x1 CMakeFiles/n7six.ApeX-k1.v7.6.5br3.dir/App/misc.c.obj
                0x20001978                gNextTimeslice_500ms
 .bss.gSerialConfigCountDown_500ms
                0x20001979        0x1 CMakeFiles/n7six.ApeX-k1.v7.6.5br3.dir/App/misc.c.obj
                0x20001979                gSerialConfigCountDown_500ms
 .bss.gDualWatchActive
                0x2000197a        0x1 CMakeFiles/n7six.ApeX-k1.v7.6.5br3.dir/App/misc.c.obj
                0x2000197a                gDualWatchActive
 *fill*         0x2000197b        0x1 
 .bss.gDualWatchCountdown_10ms
                0x2000197c        0x2 CMakeFiles/n7six.ApeX-k1.v7.6.5br3.dir/App/misc.c.obj
                0x2000197c                gDualWatchCountdown_10ms
 .bss.gSchedulePowerSave
                0x2000197e        0x1 CMakeFiles/n7six.ApeX-k1.v7.6.5br3.dir/App/misc.c.obj
                0x2000197e                gSchedulePowerSave
 .bss.gPowerSaveCountdownExpired
                0x2000197f        0x1 CMakeFiles/n7six.ApeX-k1.v7.6.5br3.dir/App/misc.c.obj
                0x2000197f                gPowerSaveCountdownExpired
 .bss.gMR_ChannelExclude
                0x20001980       0xcf CMakeFiles/n7six.ApeX-k1.v7.6.5br3.dir/App/misc.c.obj
                0x20001980                gMR_ChannelExclude
 .bss.gMR_ChannelAttributes
                0x20001a4f       0xcf CMakeFiles/n7six.ApeX-k1.v7.6.5br3.dir/App/misc.c.obj
                0x20001a4f                gMR_ChannelAttributes
 .bss.gEEPROM_1F8C
                0x20001b1e        0x2 CMakeFiles/n7six.ApeX-k1.v7.6.5br3.dir/App/misc.c.obj
                0x20001b1e                gEEPROM_1F8C
 .bss.gEEPROM_1F8A
                0x20001b20        0x2 CMakeFiles/n7six.ApeX-k1.v7.6.5br3.dir/App/misc.c.obj
                0x20001b20                gEEPROM_1F8A
 .bss.gEEPROM_RSSI_CALIB
                0x20001b22       0x38 CMakeFiles/n7six.ApeX-k1.v7.6.5br3.dir/App/misc.c.obj
                0x20001b22                gEEPROM_RSSI_CALIB
 *fill*         0x20001b5a        0x2 
 .bss.gChallenge
                0x20001b5c       0x10 CMakeFiles/n7six.ApeX-k1.v7.6.5br3.dir/App/misc.c.obj
                0x20001b5c                gChallenge
 .bss.bHasCustomAesKey
                0x20001b6c        0x1 CMakeFiles/n7six.ApeX-k1.v7.6.5br3.dir/App/misc.c.obj
                0x20001b6c                bHasCustomAesKey
 *fill*         0x20001b6d        0x3 
 .bss.gCustomAesKey
                0x20001b70       0x10 CMakeFiles/n7six.ApeX-k1.v7.6.5br3.dir/App/misc.c.obj
                0x20001b70                gCustomAesKey
 .bss.gMonitor  0x20001b80        0x1 CMakeFiles/n7six.ApeX-k1.v7.6.5br3.dir/App/misc.c.obj
                0x20001b80                gMonitor
 .bss.gSetting_battery_text
                0x20001b81        0x1 CMakeFiles/n7six.ApeX-k1.v7.6.5br3.dir/App/misc.c.obj
                0x20001b81                gSetting_battery_text
 .bss.gSetting_live_DTMF_decoder
                0x20001b82        0x1 CMakeFiles/n7six.ApeX-k1.v7.6.5br3.dir/App/misc.c.obj
                0x20001b82                gSetting_live_DTMF_decoder
 .bss.gSetting_mic_bar
                0x20001b83        0x1 CMakeFiles/n7six.ApeX-k1.v7.6.5br3.dir/App/misc.c.obj
                0x20001b83                gSetting_mic_bar
 .bss.gRemoveOffset
                0x20001b84        0x1 CMakeFiles/n7six.ApeX-k1.v7.6.5br3.dir/App/misc.c.obj
                0x20001b84                gRemoveOffset
 .bss.gPowerHigh
                0x20001b85        0x1 CMakeFiles/n7six.ApeX-k1.v7.6.5br3.dir/App/misc.c.obj
                0x20001b85                gPowerHigh
 .bss.gAircopyStep
                0x20001b86        0x1 CMakeFiles/n7six.ApeX-k1.v7.6.5br3.dir/App/misc.c.obj
                0x20001b86                gAircopyStep
 .bss.lErrorsDuringAirCopy
                0x20001b87        0x1 CMakeFiles/n7six.ApeX-k1.v7.6.5br3.dir/App/misc.c.obj
                0x20001b87                lErrorsDuringAirCopy
 .bss.crc       0x20001b88        0xf CMakeFiles/n7six.ApeX-k1.v7.6.5br3.dir/App/misc.c.obj
                0x20001b88                crc
 .bss.gSaveRxMode
                0x20001b97        0x1 CMakeFiles/n7six.ApeX-k1.v7.6.5br3.dir/App/misc.c.obj
                0x20001b97                gSaveRxMode
 .bss.gCB       0x20001b98        0x1 CMakeFiles/n7six.ApeX-k1.v7.6.5br3.dir/App/misc.c.obj
                0x20001b98                gCB
 .bss.gDW       0x20001b99        0x1 CMakeFiles/n7six.ApeX-k1.v7.6.5br3.dir/App/misc.c.obj
                0x20001b99                gDW
 .bss.gSetting_set_ptt_session
                0x20001b9a        0x1 CMakeFiles/n7six.ApeX-k1.v7.6.5br3.dir/App/misc.c.obj
                0x20001b9a                gSetting_set_ptt_session
 .bss.gSetting_set_tmr
                0x20001b9b        0x1 CMakeFiles/n7six.ApeX-k1.v7.6.5br3.dir/App/misc.c.obj
                0x20001b9b                gSetting_set_tmr
 .bss.gSetting_set_nfm
                0x20001b9c        0x1 CMakeFiles/n7six.ApeX-k1.v7.6.5br3.dir/App/misc.c.obj
                0x20001b9c                gSetting_set_nfm
 .bss.gSetting_set_gui
                0x20001b9d        0x1 CMakeFiles/n7six.ApeX-k1.v7.6.5br3.dir/App/misc.c.obj
                0x20001b9d                gSetting_set_gui
 .bss.gSetting_set_met
                0x20001b9e        0x1 CMakeFiles/n7six.ApeX-k1.v7.6.5br3.dir/App/misc.c.obj
                0x20001b9e                gSetting_set_met
 .bss.gSetting_set_lck
                0x20001b9f        0x1 CMakeFiles/n7six.ApeX-k1.v7.6.5br3.dir/App/misc.c.obj
                0x20001b9f                gSetting_set_lck
 .bss.gSetting_set_eot
                0x20001ba0        0x1 CMakeFiles/n7six.ApeX-k1.v7.6.5br3.dir/App/misc.c.obj
                0x20001ba0                gSetting_set_eot
 .bss.gSetting_set_inv
                0x20001ba1        0x1 CMakeFiles/n7six.ApeX-k1.v7.6.5br3.dir/App/misc.c.obj
                0x20001ba1                gSetting_set_inv
 .bss.gSetting_set_tot
                0x20001ba2        0x1 CMakeFiles/n7six.ApeX-k1.v7.6.5br3.dir/App/misc.c.obj
                0x20001ba2                gSetting_set_tot
 .bss.gSetting_set_ptt
                0x20001ba3        0x1 CMakeFiles/n7six.ApeX-k1.v7.6.5br3.dir/App/misc.c.obj
                0x20001ba3                gSetting_set_ptt
 .bss.gWakeUp   0x20001ba4        0x1 CMakeFiles/n7six.ApeX-k1.v7.6.5br3.dir/App/misc.c.obj
                0x20001ba4                gWakeUp
 .bss.gSetting_backlight_on_tx_rx
                0x20001ba5        0x1 CMakeFiles/n7six.ApeX-k1.v7.6.5br3.dir/App/misc.c.obj
                0x20001ba5                gSetting_backlight_on_tx_rx
 .bss.gSetting_ScrambleEnable
                0x20001ba6        0x1 CMakeFiles/n7six.ApeX-k1.v7.6.5br3.dir/App/misc.c.obj
                0x20001ba6                gSetting_ScrambleEnable
 .bss.gSetting_F_LOCK
                0x20001ba7        0x1 CMakeFiles/n7six.ApeX-k1.v7.6.5br3.dir/App/misc.c.obj
                0x20001ba7                gSetting_F_LOCK
 .bss.gSetting_350EN
                0x20001ba8        0x1 CMakeFiles/n7six.ApeX-k1.v7.6.5br3.dir/App/misc.c.obj
                0x20001ba8                gSetting_350EN
 *fill*         0x20001ba9        0x1 
 .bss.boot_counter_10ms
                0x20001baa        0x2 CMakeFiles/n7six.ApeX-k1.v7.6.5br3.dir/App/misc.c.obj
                0x20001baa                boot_counter_10ms
 .bss.lastSettings.0
                0x20001bac        0x1 CMakeFiles/n7six.ApeX-k1.v7.6.5br3.dir/App/radio.c.obj
 .bss.VfoState  0x20001bad        0x2 CMakeFiles/n7six.ApeX-k1.v7.6.5br3.dir/App/radio.c.obj
                0x20001bad                VfoState
 .bss.gCurrentCodeType
                0x20001baf        0x1 CMakeFiles/n7six.ApeX-k1.v7.6.5br3.dir/App/radio.c.obj
                0x20001baf                gCurrentCodeType
 .bss.gCurrentVfo
                0x20001bb0        0x4 CMakeFiles/n7six.ApeX-k1.v7.6.5br3.dir/App/radio.c.obj
                0x20001bb0                gCurrentVfo
 .bss.gRxVfo    0x20001bb4        0x4 CMakeFiles/n7six.ApeX-k1.v7.6.5br3.dir/App/radio.c.obj
                0x20001bb4                gRxVfo
 .bss.gTxVfo    0x20001bb8        0x4 CMakeFiles/n7six.ApeX-k1.v7.6.5br3.dir/App/radio.c.obj
                0x20001bb8                gTxVfo
 .bss.gGlobalSysTickCounter
                0x20001bbc        0x4 CMakeFiles/n7six.ApeX-k1.v7.6.5br3.dir/App/scheduler.c.obj
 .bss.gSettingsPersistRecoveryCount
                0x20001bc0        0x1 CMakeFiles/n7six.ApeX-k1.v7.6.5br3.dir/App/settings.c.obj
                0x20001bc0                gSettingsPersistRecoveryCount
 .bss.gSettingsPersistErrorCount
                0x20001bc1        0x1 CMakeFiles/n7six.ApeX-k1.v7.6.5br3.dir/App/settings.c.obj
                0x20001bc1                gSettingsPersistErrorCount
 *fill*         0x20001bc2        0x2 
 .bss.gEeprom   0x20001bc4      0x11c CMakeFiles/n7six.ApeX-k1.v7.6.5br3.dir/App/settings.c.obj
                0x20001bc4                gEeprom
 .bss.gInputBoxIndex
                0x20001ce0        0x1 CMakeFiles/n7six.ApeX-k1.v7.6.5br3.dir/App/ui/inputbox.c.obj
                0x20001ce0                gInputBoxIndex
 .bss.inputBoxAscii
                0x20001ce1        0x9 CMakeFiles/n7six.ApeX-k1.v7.6.5br3.dir/App/ui/inputbox.c.obj
                0x20001ce1                inputBoxAscii
 .bss.gInputBox
                0x20001cea        0x8 CMakeFiles/n7six.ApeX-k1.v7.6.5br3.dir/App/ui/inputbox.c.obj
                0x20001cea                gInputBox
 .bss.barsOld.0
                0x20001cf2        0x1 CMakeFiles/n7six.ApeX-k1.v7.6.5br3.dir/App/ui/main.c.obj
 .bss.isMainOnlyInputDTMF
                0x20001cf3        0x1 CMakeFiles/n7six.ApeX-k1.v7.6.5br3.dir/App/ui/main.c.obj
                0x20001cf3                isMainOnlyInputDTMF
 .bss.RxOnVfofrequency
                0x20001cf4        0x4 CMakeFiles/n7six.ApeX-k1.v7.6.5br3.dir/App/ui/main.c.obj
 .bss.RxLine    0x20001cf8        0x1 CMakeFiles/n7six.ApeX-k1.v7.6.5br3.dir/App/ui/main.c.obj
 .bss.RxBlinkLedCounter
                0x20001cf9        0x1 CMakeFiles/n7six.ApeX-k1.v7.6.5br3.dir/App/ui/main.c.obj
 .bss.RxBlinkLed
                0x20001cfa        0x1 CMakeFiles/n7six.ApeX-k1.v7.6.5br3.dir/App/ui/main.c.obj
 .bss.RxBlink   0x20001cfb        0x1 CMakeFiles/n7six.ApeX-k1.v7.6.5br3.dir/App/ui/main.c.obj
 .bss.center_line
                0x20001cfc        0x1 CMakeFiles/n7six.ApeX-k1.v7.6.5br3.dir/App/ui/main.c.obj
                0x20001cfc                center_line
 *fill*         0x20001cfd        0x3 
 .bss.edit_index
                0x20001d00        0x4 CMakeFiles/n7six.ApeX-k1.v7.6.5br3.dir/App/ui/menu.c.obj
                0x20001d00                edit_index
 .bss.edit      0x20001d04       0x11 CMakeFiles/n7six.ApeX-k1.v7.6.5br3.dir/App/ui/menu.c.obj
                0x20001d04                edit
 .bss.edit_original
                0x20001d15       0x11 CMakeFiles/n7six.ApeX-k1.v7.6.5br3.dir/App/ui/menu.c.obj
                0x20001d15                edit_original
 *fill*         0x20001d26        0x2 
 .bss.gSubMenuSelection
                0x20001d28        0x4 CMakeFiles/n7six.ApeX-k1.v7.6.5br3.dir/App/ui/menu.c.obj
                0x20001d28                gSubMenuSelection
 .bss.gMenuCursor
                0x20001d2c        0x1 CMakeFiles/n7six.ApeX-k1.v7.6.5br3.dir/App/ui/menu.c.obj
                0x20001d2c                gMenuCursor
 .bss.gIsInSubMenu
                0x20001d2d        0x1 CMakeFiles/n7six.ApeX-k1.v7.6.5br3.dir/App/ui/menu.c.obj
                0x20001d2d                gIsInSubMenu
 .bss.gAskToDelete
                0x20001d2e        0x1 CMakeFiles/n7six.ApeX-k1.v7.6.5br3.dir/App/ui/ui.c.obj
                0x20001d2e                gAskToDelete
 .bss.gAskToSave
                0x20001d2f        0x1 CMakeFiles/n7six.ApeX-k1.v7.6.5br3.dir/App/ui/ui.c.obj
                0x20001d2f                gAskToSave
 .bss.gAskForConfirmation
                0x20001d30        0x1 CMakeFiles/n7six.ApeX-k1.v7.6.5br3.dir/App/ui/ui.c.obj
                0x20001d30                gAskForConfirmation
 .bss.gScreenToDisplay
                0x20001d31        0x1 CMakeFiles/n7six.ApeX-k1.v7.6.5br3.dir/App/ui/ui.c.obj
                0x20001d31                gScreenToDisplay
 .bss.UART_DMA_Buffer
                0x20001d32      0x100 CMakeFiles/n7six.ApeX-k1.v7.6.5br3.dir/App/driver/uart.c.obj
                0x20001d32                UART_DMA_Buffer
 .bss.VCP_ReplyBuf.0
                0x20001e32       0x98 CMakeFiles/n7six.ApeX-k1.v7.6.5br3.dir/App/app/uart.c.obj
 .bss.VCP_ReadIndex
                0x20001eca        0x2 CMakeFiles/n7six.ApeX-k1.v7.6.5br3.dir/App/app/uart.c.obj
 .bss.VCP_Command
                0x20001ecc      0x100 CMakeFiles/n7six.ApeX-k1.v7.6.5br3.dir/App/app/uart.c.obj
 .bss.VCP_Timestamp
                0x20001fcc        0x4 CMakeFiles/n7six.ApeX-k1.v7.6.5br3.dir/App/app/uart.c.obj
 .bss.gUART_WriteIndex
                0x20001fd0        0x2 CMakeFiles/n7six.ApeX-k1.v7.6.5br3.dir/App/app/uart.c.obj
 *fill*         0x20001fd2        0x2 
 .bss.UART_Command
                0x20001fd4      0x100 CMakeFiles/n7six.ApeX-k1.v7.6.5br3.dir/App/app/uart.c.obj
 .bss.UART_Timestamp
                0x200020d4        0x4 CMakeFiles/n7six.ApeX-k1.v7.6.5br3.dir/App/app/uart.c.obj
 .bss.VCP_RxBufPointer
                0x200020d8        0x4 CMakeFiles/n7six.ApeX-k1.v7.6.5br3.dir/App/driver/vcp.c.obj
                0x200020d8                VCP_RxBufPointer
 .bss.VCP_RxBuf
                0x200020dc      0x100 CMakeFiles/n7six.ApeX-k1.v7.6.5br3.dir/App/driver/vcp.c.obj
                0x200020dc                VCP_RxBuf
 .bss.dtr_enable
                0x200021dc        0x1 CMakeFiles/n7six.ApeX-k1.v7.6.5br3.dir/App/usb/usbd_cdc_if.c.obj
                0x200021dc                dtr_enable
 *fill*         0x200021dd        0x3 
 .bss.intf1     0x200021e0       0x24 CMakeFiles/n7six.ApeX-k1.v7.6.5br3.dir/App/usb/usbd_cdc_if.c.obj
                0x200021e0                intf1
 .bss.intf0     0x20002204       0x24 CMakeFiles/n7six.ApeX-k1.v7.6.5br3.dir/App/usb/usbd_cdc_if.c.obj
                0x20002204                intf0
 .bss.ep_tx_busy_flag
                0x20002228        0x1 CMakeFiles/n7six.ApeX-k1.v7.6.5br3.dir/App/usb/usbd_cdc_if.c.obj
                0x20002228                ep_tx_busy_flag
 *fill*         0x20002229        0x3 
 .bss.client_rx_buf
                0x2000222c        0xc CMakeFiles/n7six.ApeX-k1.v7.6.5br3.dir/App/usb/usbd_cdc_if.c.obj
 .bss.read_buffer
                0x20002238       0x80 CMakeFiles/n7six.ApeX-k1.v7.6.5br3.dir/App/usb/usbd_cdc_if.c.obj
                0x20002238                read_buffer
 .bss.BK1080_FrequencyDeviation
                0x200022b8        0x2 CMakeFiles/n7six.ApeX-k1.v7.6.5br3.dir/App/driver/bk1080.c.obj
                0x200022b8                BK1080_FrequencyDeviation
 .bss.BK1080_BaseFrequency
                0x200022ba        0x2 CMakeFiles/n7six.ApeX-k1.v7.6.5br3.dir/App/driver/bk1080.c.obj
                0x200022ba                BK1080_BaseFrequency
 .bss.gIsInitBK1080
                0x200022bc        0x1 CMakeFiles/n7six.ApeX-k1.v7.6.5br3.dir/App/driver/bk1080.c.obj
 *fill*         0x200022bd        0x1 
 .bss.gFM_RestoreCountdown_10ms
                0x200022be        0x2 CMakeFiles/n7six.ApeX-k1.v7.6.5br3.dir/App/app/fm.c.obj
                0x200022be                gFM_RestoreCountdown_10ms
 .bss.gFM_FoundFrequency
                0x200022c0        0x1 CMakeFiles/n7six.ApeX-k1.v7.6.5br3.dir/App/app/fm.c.obj
                0x200022c0                gFM_FoundFrequency
 .bss.gFM_ChannelPosition
                0x200022c1        0x1 CMakeFiles/n7six.ApeX-k1.v7.6.5br3.dir/App/app/fm.c.obj
                0x200022c1                gFM_ChannelPosition
 .bss.gFM_AutoScan
                0x200022c2        0x1 CMakeFiles/n7six.ApeX-k1.v7.6.5br3.dir/App/app/fm.c.obj
                0x200022c2                gFM_AutoScan
 .bss.gFM_ScanState
                0x200022c3        0x1 CMakeFiles/n7six.ApeX-k1.v7.6.5br3.dir/App/app/fm.c.obj
                0x200022c3                gFM_ScanState
 .bss.gFmPlayCountdown_10ms
                0x200022c4        0x2 CMakeFiles/n7six.ApeX-k1.v7.6.5br3.dir/App/app/fm.c.obj
                0x200022c4                gFmPlayCountdown_10ms
 .bss.gFmRadioCountdown_500ms
                0x200022c6        0x1 CMakeFiles/n7six.ApeX-k1.v7.6.5br3.dir/App/app/fm.c.obj
                0x200022c6                gFmRadioCountdown_500ms
 .bss.gFmRadioMode
                0x200022c7        0x1 CMakeFiles/n7six.ApeX-k1.v7.6.5br3.dir/App/app/fm.c.obj
                0x200022c7                gFmRadioMode
 .bss.gFM_Channels
                0x200022c8       0x28 CMakeFiles/n7six.ApeX-k1.v7.6.5br3.dir/App/app/fm.c.obj
                0x200022c8                gFM_Channels
 .bss.g_FSK_Buffer
                0x200022f0       0x48 CMakeFiles/n7six.ApeX-k1.v7.6.5br3.dir/App/app/aircopy.c.obj
                0x200022f0                g_FSK_Buffer
 .bss.gAirCopyIsSendMode
                0x20002338        0x1 CMakeFiles/n7six.ApeX-k1.v7.6.5br3.dir/App/app/aircopy.c.obj
                0x20002338                gAirCopyIsSendMode
 *fill*         0x20002339        0x1 
 .bss.gErrorsDuringAirCopy
                0x2000233a        0x2 CMakeFiles/n7six.ApeX-k1.v7.6.5br3.dir/App/app/aircopy.c.obj
                0x2000233a                gErrorsDuringAirCopy
 .bss.gAirCopyBlockNumber
                0x2000233c        0x2 CMakeFiles/n7six.ApeX-k1.v7.6.5br3.dir/App/app/aircopy.c.obj
                0x2000233c                gAirCopyBlockNumber
 .bss.gAircopyState
                0x2000233e        0x1 CMakeFiles/n7six.ApeX-k1.v7.6.5br3.dir/App/app/aircopy.c.obj
                0x2000233e                gAircopyState
 .bss.c.0       0x2000233f        0x1 CMakeFiles/n7six.ApeX-k1.v7.6.5br3.dir/App/app/flashlight.c.obj
 .bss.next.1    0x20002340        0x2 CMakeFiles/n7six.ApeX-k1.v7.6.5br3.dir/App/app/flashlight.c.obj
 .bss.gFlashLightState
                0x20002342        0x1 CMakeFiles/n7six.ApeX-k1.v7.6.5br3.dir/App/app/flashlight.c.obj
                0x20002342                gFlashLightState
 .bss.channelName.1
                0x20002343        0xc CMakeFiles/n7six.ApeX-k1.v7.6.5br3.dir/App/app/spectrum.c.obj
 *fill*         0x2000234f        0x1 
 .bss.channelF.2
                0x20002350        0x4 CMakeFiles/n7six.ApeX-k1.v7.6.5br3.dir/App/app/spectrum.c.obj
 .bss.String.3  0x20002354       0x20 CMakeFiles/n7six.ApeX-k1.v7.6.5br3.dir/App/app/spectrum.c.obj
 .bss.quietCounter.4
                0x20002374        0x1 CMakeFiles/n7six.ApeX-k1.v7.6.5br3.dir/App/app/spectrum.c.obj
 .bss.listenWatchdog.5
                0x20002375        0x1 CMakeFiles/n7six.ApeX-k1.v7.6.5br3.dir/App/app/spectrum.c.obj
 .bss.registers_stack
                0x20002376        0xe CMakeFiles/n7six.ApeX-k1.v7.6.5br3.dir/App/app/spectrum.c.obj
 .bss.noSignalMsgT
                0x20002384        0x1 CMakeFiles/n7six.ApeX-k1.v7.6.5br3.dir/App/app/spectrum.c.obj
 .bss.blacklistFreqsIdx
                0x20002385        0x1 CMakeFiles/n7six.ApeX-k1.v7.6.5br3.dir/App/app/spectrum.c.obj
 .bss.blacklistFreqs
                0x20002386       0x1e CMakeFiles/n7six.ApeX-k1.v7.6.5br3.dir/App/app/spectrum.c.obj
 .bss.statuslineUpdateTimer
                0x200023a4        0x2 CMakeFiles/n7six.ApeX-k1.v7.6.5br3.dir/App/app/spectrum.c.obj
                0x200023a4                statuslineUpdateTimer
 .bss.String    0x200023a6       0x20 CMakeFiles/n7six.ApeX-k1.v7.6.5br3.dir/App/app/spectrum.c.obj
 .bss.listenT   0x200023c6        0x2 CMakeFiles/n7six.ApeX-k1.v7.6.5br3.dir/App/app/spectrum.c.obj
                0x200023c6                listenT
 .bss.menuState
                0x200023c8        0x1 CMakeFiles/n7six.ApeX-k1.v7.6.5br3.dir/App/app/spectrum.c.obj
                0x200023c8                menuState
 .bss.freqInputString
                0x200023c9        0xb CMakeFiles/n7six.ApeX-k1.v7.6.5br3.dir/App/app/spectrum.c.obj
                0x200023c9                freqInputString
 .bss.freqInputArr
                0x200023d4        0xa CMakeFiles/n7six.ApeX-k1.v7.6.5br3.dir/App/app/spectrum.c.obj
                0x200023d4                freqInputArr
 .bss.freqInputDotIndex
                0x200023de        0x1 CMakeFiles/n7six.ApeX-k1.v7.6.5br3.dir/App/app/spectrum.c.obj
                0x200023de                freqInputDotIndex
 .bss.freqInputIndex
                0x200023df        0x1 CMakeFiles/n7six.ApeX-k1.v7.6.5br3.dir/App/app/spectrum.c.obj
                0x200023df                freqInputIndex
 .bss.spectrumSettingsAutosaveTicks
                0x200023e0        0x1 CMakeFiles/n7six.ApeX-k1.v7.6.5br3.dir/App/app/spectrum.c.obj
 .bss.spectrumSettingsDirty
                0x200023e1        0x1 CMakeFiles/n7six.ApeX-k1.v7.6.5br3.dir/App/app/spectrum.c.obj
 .bss.spectrumMeterBackgroundInit
                0x200023e2        0x1 CMakeFiles/n7six.ApeX-k1.v7.6.5br3.dir/App/app/spectrum.c.obj
 .bss.spectrumMeterBackground
                0x200023e3       0x79 CMakeFiles/n7six.ApeX-k1.v7.6.5br3.dir/App/app/spectrum.c.obj
 .bss.peakHoldEnabled
                0x2000245c        0x1 CMakeFiles/n7six.ApeX-k1.v7.6.5br3.dir/App/app/spectrum.c.obj
 *fill*         0x2000245d        0x1 
 .bss.peakHoldRssi
                0x2000245e      0x100 CMakeFiles/n7six.ApeX-k1.v7.6.5br3.dir/App/app/spectrum.c.obj
 .bss.frequencyRetuned
                0x2000255e        0x1 CMakeFiles/n7six.ApeX-k1.v7.6.5br3.dir/App/app/spectrum.c.obj
 *fill*         0x2000255f        0x1 
 .bss.displayTrace
                0x20002560      0x100 CMakeFiles/n7six.ApeX-k1.v7.6.5br3.dir/App/app/spectrum.c.obj
 .bss.smoothedRssi
                0x20002660      0x100 CMakeFiles/n7six.ApeX-k1.v7.6.5br3.dir/App/app/spectrum.c.obj
 .bss.waterfallIndex
                0x20002760        0x1 CMakeFiles/n7six.ApeX-k1.v7.6.5br3.dir/App/app/spectrum.c.obj
                0x20002760                waterfallIndex
 .bss.waterfallHistory
                0x20002761      0x400 CMakeFiles/n7six.ApeX-k1.v7.6.5br3.dir/App/app/spectrum.c.obj
                0x20002761                waterfallHistory
 *fill*         0x20002b61        0x1 
 .bss.rssiHistory
                0x20002b62      0x100 CMakeFiles/n7six.ApeX-k1.v7.6.5br3.dir/App/app/spectrum.c.obj
                0x20002b62                rssiHistory
 *fill*         0x20002c62        0x2 
 .bss.vfo       0x20002c64        0x4 CMakeFiles/n7six.ApeX-k1.v7.6.5br3.dir/App/app/spectrum.c.obj
                0x20002c64                vfo
 .bss.tempFreq  0x20002c68        0x4 CMakeFiles/n7six.ApeX-k1.v7.6.5br3.dir/App/app/spectrum.c.obj
                0x20002c68                tempFreq
 .bss.currentFreq
                0x20002c6c        0x4 CMakeFiles/n7six.ApeX-k1.v7.6.5br3.dir/App/app/spectrum.c.obj
                0x20002c6c                currentFreq
 .bss.fMeasure  0x20002c70        0x4 CMakeFiles/n7six.ApeX-k1.v7.6.5br3.dir/App/app/spectrum.c.obj
                0x20002c70                fMeasure
 .bss.initialFreq
                0x20002c74        0x4 CMakeFiles/n7six.ApeX-k1.v7.6.5br3.dir/App/app/spectrum.c.obj
 .bss.displayRssi
                0x20002c78        0x2 CMakeFiles/n7six.ApeX-k1.v7.6.5br3.dir/App/app/spectrum.c.obj
 *fill*         0x20002c7a        0x2 
 .bss.scanInfo  0x20002c7c       0x18 CMakeFiles/n7six.ApeX-k1.v7.6.5br3.dir/App/app/spectrum.c.obj
                0x20002c7c                scanInfo
 .bss.peak      0x20002c94        0xc CMakeFiles/n7six.ApeX-k1.v7.6.5br3.dir/App/app/spectrum.c.obj
                0x20002c94                peak
 .bss.previousState
                0x20002ca0        0x1 CMakeFiles/n7six.ApeX-k1.v7.6.5br3.dir/App/app/spectrum.c.obj
                0x20002ca0                previousState
 .bss.currentState
                0x20002ca1        0x1 CMakeFiles/n7six.ApeX-k1.v7.6.5br3.dir/App/app/spectrum.c.obj
                0x20002ca1                currentState
 .bss.lockAGC   0x20002ca2        0x1 CMakeFiles/n7six.ApeX-k1.v7.6.5br3.dir/App/app/spectrum.c.obj
                0x20002ca2                lockAGC
 .bss.redrawScreen
                0x20002ca3        0x1 CMakeFiles/n7six.ApeX-k1.v7.6.5br3.dir/App/app/spectrum.c.obj
                0x20002ca3                redrawScreen
 .bss.monitorMode
                0x20002ca4        0x1 CMakeFiles/n7six.ApeX-k1.v7.6.5br3.dir/App/app/spectrum.c.obj
                0x20002ca4                monitorMode
 .bss.isInitialized
                0x20002ca5        0x1 CMakeFiles/n7six.ApeX-k1.v7.6.5br3.dir/App/app/spectrum.c.obj
 .bss.forcedBlock
                0x20002ca6        0x1 CMakeFiles/n7six.ApeX-k1.v7.6.5br3.dir/App/screenshot.c.obj
 .bss.previousFrame
                0x20002ca7      0x400 CMakeFiles/n7six.ApeX-k1.v7.6.5br3.dir/App/screenshot.c.obj
 *fill*         0x200030a7        0x1 
 .bss.bos_desc  0x200030a8        0x4 CMakeFiles/n7six.ApeX-k1.v7.6.5br3.dir/Middlewares/CherryUSB/core/usbd_core.c.obj
 .bss.msosv2_desc
                0x200030ac        0x4 CMakeFiles/n7six.ApeX-k1.v7.6.5br3.dir/Middlewares/CherryUSB/core/usbd_core.c.obj
 .bss.msosv1_desc
                0x200030b0        0x4 CMakeFiles/n7six.ApeX-k1.v7.6.5br3.dir/Middlewares/CherryUSB/core/usbd_core.c.obj
 .bss.usbd_intf_head
                0x200030b4        0x4 CMakeFiles/n7six.ApeX-k1.v7.6.5br3.dir/Middlewares/CherryUSB/core/usbd_core.c.obj
                0x200030b4                usbd_intf_head
 .bss.zlp_flag  0x200030b8        0x1 CMakeFiles/n7six.ApeX-k1.v7.6.5br3.dir/Middlewares/CherryUSB/port/usb_dc_py32.c.obj
                0x200030b8                zlp_flag
 .bss.usb_ep0_state
                0x200030b9        0x1 CMakeFiles/n7six.ApeX-k1.v7.6.5br3.dir/Middlewares/CherryUSB/port/usb_dc_py32.c.obj
 *fill*         0x200030ba        0x6 
 .bss.g_pyusb_udc
                0x200030c0      0x180 CMakeFiles/n7six.ApeX-k1.v7.6.5br3.dir/Middlewares/CherryUSB/port/usb_dc_py32.c.obj
                0x200030c0                g_pyusb_udc
 *(COMMON)
                0x20003240                        . = ALIGN (0x4)
                0x20003240                        _ebss = .
                0x20003240                        __bss_end__ = _ebss

._user_heap_stack
                0x20003240      0x600 load address 0x08017c90
                0x20003240                        . = ALIGN (0x8)
                [!provide]                        PROVIDE (end = .)
                [!provide]                        PROVIDE (_end = .)
                0x20003440                        . = (. + _Min_Heap_Size)
 *fill*         0x20003240      0x200 
                0x20003840                        . = (. + _Min_Stack_Size)
 *fill*         0x20003440      0x400 
                0x20003840                        . = ALIGN (0x8)

/DISCARD/
 libc.a(*)
 libm.a(*)
 libgcc.a(*)

.ARM.attributes
                0x00000000       0x28
 *(.ARM.attributes)
 .ARM.attributes
                0x00000000       0x1e /opt/toolchain/bin/../lib/gcc/arm-none-eabi/13.3.1/thumb/v6-m/nofp/crti.o
 .ARM.attributes
                0x0000001e       0x2c /opt/toolchain/bin/../lib/gcc/arm-none-eabi/13.3.1/thumb/v6-m/nofp/crtbegin.o
 .ARM.attributes
                0x0000004a       0x2c CMakeFiles/n7six.ApeX-k1.v7.6.5br3.dir/Core/Src/main.c.obj
 .ARM.attributes
                0x00000076       0x2c CMakeFiles/n7six.ApeX-k1.v7.6.5br3.dir/Core/Src/py32f071_it.c.obj
 .ARM.attributes
                0x000000a2       0x2c CMakeFiles/n7six.ApeX-k1.v7.6.5br3.dir/Core/Src/system_py32f071.c.obj
 .ARM.attributes
                0x000000ce       0x22 CMakeFiles/n7six.ApeX-k1.v7.6.5br3.dir/Core/startup_py32f071xx.s.obj
 .ARM.attributes
                0x000000f0       0x2c CMakeFiles/n7six.ApeX-k1.v7.6.5br3.dir/Drivers/PY32F071_HAL_Driver/Src/py32f071_ll_rcc.c.obj
 .ARM.attributes
                0x0000011c       0x2c CMakeFiles/n7six.ApeX-k1.v7.6.5br3.dir/Drivers/PY32F071_HAL_Driver/Src/py32f071_ll_dma.c.obj
 .ARM.attributes
                0x00000148       0x2c CMakeFiles/n7six.ApeX-k1.v7.6.5br3.dir/Drivers/PY32F071_HAL_Driver/Src/py32f071_ll_gpio.c.obj
 .ARM.attributes
                0x00000174       0x2c CMakeFiles/n7six.ApeX-k1.v7.6.5br3.dir/Drivers/PY32F071_HAL_Driver/Src/py32f071_ll_utils.c.obj
 .ARM.attributes
                0x000001a0       0x2c CMakeFiles/n7six.ApeX-k1.v7.6.5br3.dir/Drivers/PY32F071_HAL_Driver/Src/py32f071_ll_spi.c.obj
 .ARM.attributes
                0x000001cc       0x2c CMakeFiles/n7six.ApeX-k1.v7.6.5br3.dir/Drivers/PY32F071_HAL_Driver/Src/py32f071_ll_usart.c.obj
 .ARM.attributes
                0x000001f8       0x2c CMakeFiles/n7six.ApeX-k1.v7.6.5br3.dir/App/driver/backlight.c.obj
 .ARM.attributes
                0x00000224       0x2c CMakeFiles/n7six.ApeX-k1.v7.6.5br3.dir/App/driver/bk4829.c.obj
 .ARM.attributes
                0x00000250       0x2c CMakeFiles/n7six.ApeX-k1.v7.6.5br3.dir/App/driver/py25q16.c.obj
 .ARM.attributes
                0x0000027c       0x2c CMakeFiles/n7six.ApeX-k1.v7.6.5br3.dir/App/driver/i2c.c.obj
 .ARM.attributes
                0x000002a8       0x2c CMakeFiles/n7six.ApeX-k1.v7.6.5br3.dir/App/driver/keyboard.c.obj
 .ARM.attributes
                0x000002d4       0x2c CMakeFiles/n7six.ApeX-k1.v7.6.5br3.dir/App/driver/st7565.c.obj
 .ARM.attributes
                0x00000300       0x2c CMakeFiles/n7six.ApeX-k1.v7.6.5br3.dir/App/driver/system.c.obj
 .ARM.attributes
                0x0000032c       0x2c CMakeFiles/n7six.ApeX-k1.v7.6.5br3.dir/App/driver/systick.c.obj
 .ARM.attributes
                0x00000358       0x2c CMakeFiles/n7six.ApeX-k1.v7.6.5br3.dir/App/app/action.c.obj
 .ARM.attributes
                0x00000384       0x2c CMakeFiles/n7six.ApeX-k1.v7.6.5br3.dir/App/app/app.c.obj
 .ARM.attributes
                0x000003b0       0x2c CMakeFiles/n7six.ApeX-k1.v7.6.5br3.dir/App/app/chFrScanner.c.obj
 .ARM.attributes
                0x000003dc       0x2c CMakeFiles/n7six.ApeX-k1.v7.6.5br3.dir/App/app/common.c.obj
 .ARM.attributes
                0x00000408       0x2c CMakeFiles/n7six.ApeX-k1.v7.6.5br3.dir/App/app/dtmf.c.obj
 .ARM.attributes
                0x00000434       0x2c CMakeFiles/n7six.ApeX-k1.v7.6.5br3.dir/App/app/events.c.obj
 .ARM.attributes
                0x00000460       0x2c CMakeFiles/n7six.ApeX-k1.v7.6.5br3.dir/App/app/events_handlers.c.obj
 .ARM.attributes
                0x0000048c       0x2c CMakeFiles/n7six.ApeX-k1.v7.6.5br3.dir/App/app/generic.c.obj
 .ARM.attributes
                0x000004b8       0x2c CMakeFiles/n7six.ApeX-k1.v7.6.5br3.dir/App/app/main.c.obj
 .ARM.attributes
                0x000004e4       0x2c CMakeFiles/n7six.ApeX-k1.v7.6.5br3.dir/App/app/menu.c.obj
 .ARM.attributes
                0x00000510       0x2c CMakeFiles/n7six.ApeX-k1.v7.6.5br3.dir/App/app/scanner.c.obj
 .ARM.attributes
                0x0000053c       0x2c CMakeFiles/n7six.ApeX-k1.v7.6.5br3.dir/App/audio.c.obj
 .ARM.attributes
                0x00000568       0x2c CMakeFiles/n7six.ApeX-k1.v7.6.5br3.dir/App/bitmaps.c.obj
 .ARM.attributes
                0x00000594       0x2c CMakeFiles/n7six.ApeX-k1.v7.6.5br3.dir/App/board.c.obj
 .ARM.attributes
                0x000005c0       0x2c CMakeFiles/n7six.ApeX-k1.v7.6.5br3.dir/App/dcs.c.obj
 .ARM.attributes
                0x000005ec       0x2c CMakeFiles/n7six.ApeX-k1.v7.6.5br3.dir/App/font.c.obj
 .ARM.attributes
                0x00000618       0x2c CMakeFiles/n7six.ApeX-k1.v7.6.5br3.dir/App/frequencies.c.obj
 .ARM.attributes
                0x00000644       0x2c CMakeFiles/n7six.ApeX-k1.v7.6.5br3.dir/App/functions.c.obj
 .ARM.attributes
                0x00000670       0x2c CMakeFiles/n7six.ApeX-k1.v7.6.5br3.dir/App/helper/battery.c.obj
 .ARM.attributes
                0x0000069c       0x2c CMakeFiles/n7six.ApeX-k1.v7.6.5br3.dir/App/helper/boot.c.obj
 .ARM.attributes
                0x000006c8       0x2c CMakeFiles/n7six.ApeX-k1.v7.6.5br3.dir/App/misc.c.obj
 .ARM.attributes
                0x000006f4       0x2c CMakeFiles/n7six.ApeX-k1.v7.6.5br3.dir/App/radio.c.obj
 .ARM.attributes
                0x00000720       0x2c CMakeFiles/n7six.ApeX-k1.v7.6.5br3.dir/App/scheduler.c.obj
 .ARM.attributes
                0x0000074c       0x2c CMakeFiles/n7six.ApeX-k1.v7.6.5br3.dir/App/settings.c.obj
 .ARM.attributes
                0x00000778       0x2c CMakeFiles/n7six.ApeX-k1.v7.6.5br3.dir/App/ui/battery.c.obj
 .ARM.attributes
                0x000007a4       0x2c CMakeFiles/n7six.ApeX-k1.v7.6.5br3.dir/App/ui/helper.c.obj
 .ARM.attributes
                0x000007d0       0x2c CMakeFiles/n7six.ApeX-k1.v7.6.5br3.dir/App/ui/inputbox.c.obj
 .ARM.attributes
                0x000007fc       0x2c CMakeFiles/n7six.ApeX-k1.v7.6.5br3.dir/App/ui/main.c.obj
 .ARM.attributes
                0x00000828       0x2c CMakeFiles/n7six.ApeX-k1.v7.6.5br3.dir/App/ui/menu.c.obj
 .ARM.attributes
                0x00000854       0x2c CMakeFiles/n7six.ApeX-k1.v7.6.5br3.dir/App/ui/scanner.c.obj
 .ARM.attributes
                0x00000880       0x2c CMakeFiles/n7six.ApeX-k1.v7.6.5br3.dir/App/ui/status.c.obj
 .ARM.attributes
                0x000008ac       0x2c CMakeFiles/n7six.ApeX-k1.v7.6.5br3.dir/App/ui/ui.c.obj
 .ARM.attributes
                0x000008d8       0x2c CMakeFiles/n7six.ApeX-k1.v7.6.5br3.dir/App/ui/welcome.c.obj
 .ARM.attributes
                0x00000904       0x2c CMakeFiles/n7six.ApeX-k1.v7.6.5br3.dir/App/version.c.obj
 .ARM.attributes
                0x00000930       0x2c CMakeFiles/n7six.ApeX-k1.v7.6.5br3.dir/App/main.c.obj
 .ARM.attributes
                0x0000095c       0x2c CMakeFiles/n7six.ApeX-k1.v7.6.5br3.dir/App/external/printf/printf.c.obj
 .ARM.attributes
                0x00000988       0x2c CMakeFiles/n7six.ApeX-k1.v7.6.5br3.dir/App/driver/crc.c.obj
 .ARM.attributes
                0x000009b4       0x2c CMakeFiles/n7six.ApeX-k1.v7.6.5br3.dir/App/driver/eeprom_compat.c.obj
 .ARM.attributes
                0x000009e0       0x2c CMakeFiles/n7six.ApeX-k1.v7.6.5br3.dir/App/driver/uart.c.obj
 .ARM.attributes
                0x00000a0c       0x2c CMakeFiles/n7six.ApeX-k1.v7.6.5br3.dir/App/app/uart.c.obj
 .ARM.attributes
                0x00000a38       0x2c CMakeFiles/n7six.ApeX-k1.v7.6.5br3.dir/App/driver/vcp.c.obj
 .ARM.attributes
                0x00000a64       0x2c CMakeFiles/n7six.ApeX-k1.v7.6.5br3.dir/App/usb/usbd_cdc_if.c.obj
 .ARM.attributes
                0x00000a90       0x2c CMakeFiles/n7six.ApeX-k1.v7.6.5br3.dir/App/driver/bk1080.c.obj
 .ARM.attributes
                0x00000abc       0x2c CMakeFiles/n7six.ApeX-k1.v7.6.5br3.dir/App/app/fm.c.obj
 .ARM.attributes
                0x00000ae8       0x2c CMakeFiles/n7six.ApeX-k1.v7.6.5br3.dir/App/ui/fmradio.c.obj
 .ARM.attributes
                0x00000b14       0x2c CMakeFiles/n7six.ApeX-k1.v7.6.5br3.dir/App/app/aircopy.c.obj
 .ARM.attributes
                0x00000b40       0x2c CMakeFiles/n7six.ApeX-k1.v7.6.5br3.dir/App/ui/aircopy.c.obj
 .ARM.attributes
                0x00000b6c       0x2c CMakeFiles/n7six.ApeX-k1.v7.6.5br3.dir/App/app/flashlight.c.obj
 .ARM.attributes
                0x00000b98       0x2c CMakeFiles/n7six.ApeX-k1.v7.6.5br3.dir/App/app/spectrum.c.obj
 .ARM.attributes
                0x00000bc4       0x2c CMakeFiles/n7six.ApeX-k1.v7.6.5br3.dir/App/screenshot.c.obj
 .ARM.attributes
                0x00000bf0       0x2c CMakeFiles/n7six.ApeX-k1.v7.6.5br3.dir/Middlewares/CherryUSB/core/usbd_core.c.obj
 .ARM.attributes
                0x00000c1c       0x2c CMakeFiles/n7six.ApeX-k1.v7.6.5br3.dir/Middlewares/CherryUSB/port/usb_dc_py32.c.obj
 .ARM.attributes
                0x00000c48       0x2c CMakeFiles/n7six.ApeX-k1.v7.6.5br3.dir/Middlewares/CherryUSB/class/cdc/usbd_cdc.c.obj
 .ARM.attributes
                0x00000c74       0x1e /opt/toolchain/bin/../lib/gcc/arm-none-eabi/13.3.1/thumb/v6-m/nofp/libgcc.a(_thumb1_case_sqi.o)
 .ARM.attributes
                0x00000c92       0x1e /opt/toolchain/bin/../lib/gcc/arm-none-eabi/13.3.1/thumb/v6-m/nofp/libgcc.a(_thumb1_case_uqi.o)
 .ARM.attributes
                0x00000cb0       0x1e /opt/toolchain/bin/../lib/gcc/arm-none-eabi/13.3.1/thumb/v6-m/nofp/libgcc.a(_thumb1_case_shi.o)
 .ARM.attributes
                0x00000cce       0x1e /opt/toolchain/bin/../lib/gcc/arm-none-eabi/13.3.1/thumb/v6-m/nofp/libgcc.a(_thumb1_case_uhi.o)
 .ARM.attributes
                0x00000cec       0x1e /opt/toolchain/bin/../lib/gcc/arm-none-eabi/13.3.1/thumb/v6-m/nofp/libgcc.a(_udivsi3.o)
 .ARM.attributes
                0x00000d0a       0x1e /opt/toolchain/bin/../lib/gcc/arm-none-eabi/13.3.1/thumb/v6-m/nofp/libgcc.a(_divsi3.o)
 .ARM.attributes
                0x00000d28       0x1e /opt/toolchain/bin/../lib/gcc/arm-none-eabi/13.3.1/thumb/v6-m/nofp/libgcc.a(_dvmd_tls.o)
 .ARM.attributes
                0x00000d46       0x1e /opt/toolchain/bin/../lib/gcc/arm-none-eabi/13.3.1/thumb/v6-m/nofp/libgcc.a(_clzsi2.o)
 .ARM.attributes
                0x00000d64       0x2c /opt/toolchain/bin/../lib/gcc/arm-none-eabi/13.3.1/thumb/v6-m/nofp/libgcc.a(_muldi3.o)
 .ARM.attributes
                0x00000d90       0x2c /opt/toolchain/bin/../lib/gcc/arm-none-eabi/13.3.1/../../../../arm-none-eabi/lib/thumb/v6-m/nofp/libg_nano.a(libc_a-init.o)
 .ARM.attributes
                0x00000dbc       0x2c /opt/toolchain/bin/../lib/gcc/arm-none-eabi/13.3.1/../../../../arm-none-eabi/lib/thumb/v6-m/nofp/libg_nano.a(libc_a-memmove.o)
 .ARM.attributes
                0x00000de8       0x2c /opt/toolchain/bin/../lib/gcc/arm-none-eabi/13.3.1/../../../../arm-none-eabi/lib/thumb/v6-m/nofp/libg_nano.a(libc_a-memset.o)
 .ARM.attributes
                0x00000e14       0x2c /opt/toolchain/bin/../lib/gcc/arm-none-eabi/13.3.1/../../../../arm-none-eabi/lib/thumb/v6-m/nofp/libg_nano.a(libc_a-memcpy-stub.o)
 .ARM.attributes
                0x00000e40       0x1c /opt/toolchain/bin/../lib/gcc/arm-none-eabi/13.3.1/../../../../arm-none-eabi/lib/thumb/v6-m/nofp/libg_nano.a(libc_a-strlen.o)
 .ARM.attributes
                0x00000e5c       0x2c /opt/toolchain/bin/../lib/gcc/arm-none-eabi/13.3.1/../../../../arm-none-eabi/lib/thumb/v6-m/nofp/libg_nano.a(libc_a-strncpy.o)
 .ARM.attributes
                0x00000e88       0x2c /opt/toolchain/bin/../lib/gcc/arm-none-eabi/13.3.1/../../../../arm-none-eabi/lib/thumb/v6-m/nofp/libg_nano.a(libc_a-strnlen.o)
 .ARM.attributes
                0x00000eb4       0x2c /opt/toolchain/bin/../lib/gcc/arm-none-eabi/13.3.1/../../../../arm-none-eabi/lib/thumb/v6-m/nofp/libg_nano.a(libc_a-memcmp.o)
 .ARM.attributes
                0x00000ee0       0x2c /opt/toolchain/bin/../lib/gcc/arm-none-eabi/13.3.1/thumb/v6-m/nofp/crtend.o
 .ARM.attributes
                0x00000f0c       0x1e /opt/toolchain/bin/../lib/gcc/arm-none-eabi/13.3.1/thumb/v6-m/nofp/crtn.o
OUTPUT(n7six.ApeX-k1.v7.6.5br3.elf elf32-littlearm)
LOAD linker stubs
LOAD /opt/toolchain/bin/../lib/gcc/arm-none-eabi/13.3.1/../../../../arm-none-eabi/lib/thumb/v6-m/nofp/libc.a
LOAD /opt/toolchain/bin/../lib/gcc/arm-none-eabi/13.3.1/../../../../arm-none-eabi/lib/thumb/v6-m/nofp/libm.a
LOAD /opt/toolchain/bin/../lib/gcc/arm-none-eabi/13.3.1/thumb/v6-m/nofp/libgcc.a

.comment        0x00000000       0x45
 .comment       0x00000000       0x45 CMakeFiles/n7six.ApeX-k1.v7.6.5br3.dir/Core/Src/main.c.obj
                                 0x46 (size before relaxing)
 .comment       0x00000045       0x46 CMakeFiles/n7six.ApeX-k1.v7.6.5br3.dir/Core/Src/py32f071_it.c.obj
 .comment       0x00000045       0x46 CMakeFiles/n7six.ApeX-k1.v7.6.5br3.dir/Core/Src/system_py32f071.c.obj
 .comment       0x00000045       0x46 CMakeFiles/n7six.ApeX-k1.v7.6.5br3.dir/Drivers/PY32F071_HAL_Driver/Src/py32f071_ll_rcc.c.obj
 .comment       0x00000045       0x46 CMakeFiles/n7six.ApeX-k1.v7.6.5br3.dir/Drivers/PY32F071_HAL_Driver/Src/py32f071_ll_dma.c.obj
 .comment       0x00000045       0x46 CMakeFiles/n7six.ApeX-k1.v7.6.5br3.dir/Drivers/PY32F071_HAL_Driver/Src/py32f071_ll_gpio.c.obj
 .comment       0x00000045       0x46 CMakeFiles/n7six.ApeX-k1.v7.6.5br3.dir/Drivers/PY32F071_HAL_Driver/Src/py32f071_ll_utils.c.obj
 .comment       0x00000045       0x46 CMakeFiles/n7six.ApeX-k1.v7.6.5br3.dir/Drivers/PY32F071_HAL_Driver/Src/py32f071_ll_spi.c.obj
 .comment       0x00000045       0x46 CMakeFiles/n7six.ApeX-k1.v7.6.5br3.dir/Drivers/PY32F071_HAL_Driver/Src/py32f071_ll_usart.c.obj
 .comment       0x00000045       0x46 CMakeFiles/n7six.ApeX-k1.v7.6.5br3.dir/App/driver/backlight.c.obj
 .comment       0x00000045       0x46 CMakeFiles/n7six.ApeX-k1.v7.6.5br3.dir/App/driver/bk4829.c.obj
 .comment       0x00000045       0x46 CMakeFiles/n7six.ApeX-k1.v7.6.5br3.dir/App/driver/py25q16.c.obj
 .comment       0x00000045       0x46 CMakeFiles/n7six.ApeX-k1.v7.6.5br3.dir/App/driver/i2c.c.obj
 .comment       0x00000045       0x46 CMakeFiles/n7six.ApeX-k1.v7.6.5br3.dir/App/driver/keyboard.c.obj
 .comment       0x00000045       0x46 CMakeFiles/n7six.ApeX-k1.v7.6.5br3.dir/App/driver/st7565.c.obj
 .comment       0x00000045       0x46 CMakeFiles/n7six.ApeX-k1.v7.6.5br3.dir/App/driver/system.c.obj
 .comment       0x00000045       0x46 CMakeFiles/n7six.ApeX-k1.v7.6.5br3.dir/App/driver/systick.c.obj
 .comment       0x00000045       0x46 CMakeFiles/n7six.ApeX-k1.v7.6.5br3.dir/App/app/action.c.obj
 .comment       0x00000045       0x46 CMakeFiles/n7six.ApeX-k1.v7.6.5br3.dir/App/app/app.c.obj
 .comment       0x00000045       0x46 CMakeFiles/n7six.ApeX-k1.v7.6.5br3.dir/App/app/chFrScanner.c.obj
 .comment       0x00000045       0x46 CMakeFiles/n7six.ApeX-k1.v7.6.5br3.dir/App/app/common.c.obj
 .comment       0x00000045       0x46 CMakeFiles/n7six.ApeX-k1.v7.6.5br3.dir/App/app/dtmf.c.obj
 .comment       0x00000045       0x46 CMakeFiles/n7six.ApeX-k1.v7.6.5br3.dir/App/app/events.c.obj
 .comment       0x00000045       0x46 CMakeFiles/n7six.ApeX-k1.v7.6.5br3.dir/App/app/events_handlers.c.obj
 .comment       0x00000045       0x46 CMakeFiles/n7six.ApeX-k1.v7.6.5br3.dir/App/app/generic.c.obj
 .comment       0x00000045       0x46 CMakeFiles/n7six.ApeX-k1.v7.6.5br3.dir/App/app/main.c.obj
 .comment       0x00000045       0x46 CMakeFiles/n7six.ApeX-k1.v7.6.5br3.dir/App/app/menu.c.obj
 .comment       0x00000045       0x46 CMakeFiles/n7six.ApeX-k1.v7.6.5br3.dir/App/app/scanner.c.obj
 .comment       0x00000045       0x46 CMakeFiles/n7six.ApeX-k1.v7.6.5br3.dir/App/audio.c.obj
 .comment       0x00000045       0x46 CMakeFiles/n7six.ApeX-k1.v7.6.5br3.dir/App/bitmaps.c.obj
 .comment       0x00000045       0x46 CMakeFiles/n7six.ApeX-k1.v7.6.5br3.dir/App/board.c.obj
 .comment       0x00000045       0x46 CMakeFiles/n7six.ApeX-k1.v7.6.5br3.dir/App/dcs.c.obj
 .comment       0x00000045       0x46 CMakeFiles/n7six.ApeX-k1.v7.6.5br3.dir/App/font.c.obj
 .comment       0x00000045       0x46 CMakeFiles/n7six.ApeX-k1.v7.6.5br3.dir/App/frequencies.c.obj
 .comment       0x00000045       0x46 CMakeFiles/n7six.ApeX-k1.v7.6.5br3.dir/App/functions.c.obj
 .comment       0x00000045       0x46 CMakeFiles/n7six.ApeX-k1.v7.6.5br3.dir/App/helper/battery.c.obj
 .comment       0x00000045       0x46 CMakeFiles/n7six.ApeX-k1.v7.6.5br3.dir/App/helper/boot.c.obj
 .comment       0x00000045       0x46 CMakeFiles/n7six.ApeX-k1.v7.6.5br3.dir/App/misc.c.obj
 .comment       0x00000045       0x46 CMakeFiles/n7six.ApeX-k1.v7.6.5br3.dir/App/radio.c.obj
 .comment       0x00000045       0x46 CMakeFiles/n7six.ApeX-k1.v7.6.5br3.dir/App/scheduler.c.obj
 .comment       0x00000045       0x46 CMakeFiles/n7six.ApeX-k1.v7.6.5br3.dir/App/settings.c.obj
 .comment       0x00000045       0x46 CMakeFiles/n7six.ApeX-k1.v7.6.5br3.dir/App/ui/battery.c.obj
 .comment       0x00000045       0x46 CMakeFiles/n7six.ApeX-k1.v7.6.5br3.dir/App/ui/helper.c.obj
 .comment       0x00000045       0x46 CMakeFiles/n7six.ApeX-k1.v7.6.5br3.dir/App/ui/inputbox.c.obj
 .comment       0x00000045       0x46 CMakeFiles/n7six.ApeX-k1.v7.6.5br3.dir/App/ui/main.c.obj
 .comment       0x00000045       0x46 CMakeFiles/n7six.ApeX-k1.v7.6.5br3.dir/App/ui/menu.c.obj
 .comment       0x00000045       0x46 CMakeFiles/n7six.ApeX-k1.v7.6.5br3.dir/App/ui/scanner.c.obj
 .comment       0x00000045       0x46 CMakeFiles/n7six.ApeX-k1.v7.6.5br3.dir/App/ui/status.c.obj
 .comment       0x00000045       0x46 CMakeFiles/n7six.ApeX-k1.v7.6.5br3.dir/App/ui/ui.c.obj
 .comment       0x00000045       0x46 CMakeFiles/n7six.ApeX-k1.v7.6.5br3.dir/App/ui/welcome.c.obj
 .comment       0x00000045       0x46 CMakeFiles/n7six.ApeX-k1.v7.6.5br3.dir/App/version.c.obj
 .comment       0x00000045       0x46 CMakeFiles/n7six.ApeX-k1.v7.6.5br3.dir/App/main.c.obj
 .comment       0x00000045       0x46 CMakeFiles/n7six.ApeX-k1.v7.6.5br3.dir/App/external/printf/printf.c.obj
 .comment       0x00000045       0x46 CMakeFiles/n7six.ApeX-k1.v7.6.5br3.dir/App/driver/crc.c.obj
 .comment       0x00000045       0x46 CMakeFiles/n7six.ApeX-k1.v7.6.5br3.dir/App/driver/eeprom_compat.c.obj
 .comment       0x00000045       0x46 CMakeFiles/n7six.ApeX-k1.v7.6.5br3.dir/App/driver/uart.c.obj
 .comment       0x00000045       0x46 CMakeFiles/n7six.ApeX-k1.v7.6.5br3.dir/App/app/uart.c.obj
 .comment       0x00000045       0x46 CMakeFiles/n7six.ApeX-k1.v7.6.5br3.dir/App/driver/vcp.c.obj
 .comment       0x00000045       0x46 CMakeFiles/n7six.ApeX-k1.v7.6.5br3.dir/App/usb/usbd_cdc_if.c.obj
 .comment       0x00000045       0x46 CMakeFiles/n7six.ApeX-k1.v7.6.5br3.dir/App/driver/bk1080.c.obj
 .comment       0x00000045       0x46 CMakeFiles/n7six.ApeX-k1.v7.6.5br3.dir/App/app/fm.c.obj
 .comment       0x00000045       0x46 CMakeFiles/n7six.ApeX-k1.v7.6.5br3.dir/App/ui/fmradio.c.obj
 .comment       0x00000045       0x46 CMakeFiles/n7six.ApeX-k1.v7.6.5br3.dir/App/app/aircopy.c.obj
 .comment       0x00000045       0x46 CMakeFiles/n7six.ApeX-k1.v7.6.5br3.dir/App/ui/aircopy.c.obj
 .comment       0x00000045       0x46 CMakeFiles/n7six.ApeX-k1.v7.6.5br3.dir/App/app/flashlight.c.obj
 .comment       0x00000045       0x46 CMakeFiles/n7six.ApeX-k1.v7.6.5br3.dir/App/app/spectrum.c.obj
 .comment       0x00000045       0x46 CMakeFiles/n7six.ApeX-k1.v7.6.5br3.dir/App/screenshot.c.obj
 .comment       0x00000045       0x46 CMakeFiles/n7six.ApeX-k1.v7.6.5br3.dir/Middlewares/CherryUSB/core/usbd_core.c.obj
 .comment       0x00000045       0x46 CMakeFiles/n7six.ApeX-k1.v7.6.5br3.dir/Middlewares/CherryUSB/port/usb_dc_py32.c.obj
 .comment       0x00000045       0x46 CMakeFiles/n7six.ApeX-k1.v7.6.5br3.dir/Middlewares/CherryUSB/class/cdc/usbd_cdc.c.obj

.debug_line_str
                0x00000000      0x1a2
 .debug_line_str
                0x00000000      0x1a2 /opt/toolchain/bin/../lib/gcc/arm-none-eabi/13.3.1/thumb/v6-m/nofp/libgcc.a(_thumb1_case_sqi.o)
                                 0xc2 (size before relaxing)
 .debug_line_str
                0x000001a2       0xc2 /opt/toolchain/bin/../lib/gcc/arm-none-eabi/13.3.1/thumb/v6-m/nofp/libgcc.a(_thumb1_case_uqi.o)
 .debug_line_str
                0x000001a2       0xc2 /opt/toolchain/bin/../lib/gcc/arm-none-eabi/13.3.1/thumb/v6-m/nofp/libgcc.a(_thumb1_case_shi.o)
 .debug_line_str
                0x000001a2       0xc2 /opt/toolchain/bin/../lib/gcc/arm-none-eabi/13.3.1/thumb/v6-m/nofp/libgcc.a(_thumb1_case_uhi.o)
 .debug_line_str
                0x000001a2       0xc2 /opt/toolchain/bin/../lib/gcc/arm-none-eabi/13.3.1/thumb/v6-m/nofp/libgcc.a(_udivsi3.o)
 .debug_line_str
                0x000001a2       0xc2 /opt/toolchain/bin/../lib/gcc/arm-none-eabi/13.3.1/thumb/v6-m/nofp/libgcc.a(_divsi3.o)
 .debug_line_str
                0x000001a2       0xc2 /opt/toolchain/bin/../lib/gcc/arm-none-eabi/13.3.1/thumb/v6-m/nofp/libgcc.a(_dvmd_tls.o)
 .debug_line_str
                0x000001a2       0xc2 /opt/toolchain/bin/../lib/gcc/arm-none-eabi/13.3.1/thumb/v6-m/nofp/libgcc.a(_clzsi2.o)
 .debug_line_str
                0x000001a2       0xe0 /opt/toolchain/bin/../lib/gcc/arm-none-eabi/13.3.1/../../../../arm-none-eabi/lib/thumb/v6-m/nofp/libg_nano.a(libc_a-strlen.o)

.debug_frame    0x00000000      0x188
 .debug_frame   0x00000000       0x20 /opt/toolchain/bin/../lib/gcc/arm-none-eabi/13.3.1/thumb/v6-m/nofp/libgcc.a(_udivsi3.o)
 .debug_frame   0x00000020       0x20 /opt/toolchain/bin/../lib/gcc/arm-none-eabi/13.3.1/thumb/v6-m/nofp/libgcc.a(_divsi3.o)
 .debug_frame   0x00000040       0x34 /opt/toolchain/bin/../lib/gcc/arm-none-eabi/13.3.1/thumb/v6-m/nofp/libgcc.a(_muldi3.o)
 .debug_frame   0x00000074       0x2c /opt/toolchain/bin/../lib/gcc/arm-none-eabi/13.3.1/../../../../arm-none-eabi/lib/thumb/v6-m/nofp/libg_nano.a(libc_a-init.o)
 .debug_frame   0x000000a0       0x28 /opt/toolchain/bin/../lib/gcc/arm-none-eabi/13.3.1/../../../../arm-none-eabi/lib/thumb/v6-m/nofp/libg_nano.a(libc_a-memmove.o)
 .debug_frame   0x000000c8       0x20 /opt/toolchain/bin/../lib/gcc/arm-none-eabi/13.3.1/../../../../arm-none-eabi/lib/thumb/v6-m/nofp/libg_nano.a(libc_a-memset.o)
 .debug_frame   0x000000e8       0x28 /opt/toolchain/bin/../lib/gcc/arm-none-eabi/13.3.1/../../../../arm-none-eabi/lib/thumb/v6-m/nofp/libg_nano.a(libc_a-memcpy-stub.o)
 .debug_frame   0x00000110       0x2c /opt/toolchain/bin/../lib/gcc/arm-none-eabi/13.3.1/../../../../arm-none-eabi/lib/thumb/v6-m/nofp/libg_nano.a(libc_a-strncpy.o)
 .debug_frame   0x0000013c       0x20 /opt/toolchain/bin/../lib/gcc/arm-none-eabi/13.3.1/../../../../arm-none-eabi/lib/thumb/v6-m/nofp/libg_nano.a(libc_a-strnlen.o)
 .debug_frame   0x0000015c       0x2c /opt/toolchain/bin/../lib/gcc/arm-none-eabi/13.3.1/../../../../arm-none-eabi/lib/thumb/v6-m/nofp/libg_nano.a(libc_a-memcmp.o)
