Archive member included to satisfy reference by file (symbol)

/opt/toolchain/bin/../lib/gcc/arm-none-eabi/13.3.1/thumb/v6-m/nofp/libgcc.a(_thumb1_case_sqi.o)
                              CMakeFiles/n7six.ApeX-k1.v7.6.5br2.dir/App/app/menu.c.obj (__gnu_thumb1_case_sqi)
/opt/toolchain/bin/../lib/gcc/arm-none-eabi/13.3.1/thumb/v6-m/nofp/libgcc.a(_thumb1_case_uqi.o)
                              CMakeFiles/n7six.ApeX-k1.v7.6.5br2.dir/Drivers/PY32F071_HAL_Driver/Src/py32f071_ll_dma.c.obj (__gnu_thumb1_case_uqi)
/opt/toolchain/bin/../lib/gcc/arm-none-eabi/13.3.1/thumb/v6-m/nofp/libgcc.a(_thumb1_case_shi.o)
                              CMakeFiles/n7six.ApeX-k1.v7.6.5br2.dir/App/app/main.c.obj (__gnu_thumb1_case_shi)
/opt/toolchain/bin/../lib/gcc/arm-none-eabi/13.3.1/thumb/v6-m/nofp/libgcc.a(_thumb1_case_uhi.o)
                              CMakeFiles/n7six.ApeX-k1.v7.6.5br2.dir/App/app/main.c.obj (__gnu_thumb1_case_uhi)
/opt/toolchain/bin/../lib/gcc/arm-none-eabi/13.3.1/thumb/v6-m/nofp/libgcc.a(_udivsi3.o)
                              CMakeFiles/n7six.ApeX-k1.v7.6.5br2.dir/Drivers/PY32F071_HAL_Driver/Src/py32f071_ll_rcc.c.obj (__aeabi_uidiv)
/opt/toolchain/bin/../lib/gcc/arm-none-eabi/13.3.1/thumb/v6-m/nofp/libgcc.a(_divsi3.o)
                              CMakeFiles/n7six.ApeX-k1.v7.6.5br2.dir/Drivers/PY32F071_HAL_Driver/Src/py32f071_ll_i2c.c.obj (__aeabi_idiv)
/opt/toolchain/bin/../lib/gcc/arm-none-eabi/13.3.1/thumb/v6-m/nofp/libgcc.a(_dvmd_tls.o)
                              /opt/toolchain/bin/../lib/gcc/arm-none-eabi/13.3.1/thumb/v6-m/nofp/libgcc.a(_udivsi3.o) (__aeabi_idiv0)
/opt/toolchain/bin/../lib/gcc/arm-none-eabi/13.3.1/thumb/v6-m/nofp/libgcc.a(_clzsi2.o)
                              CMakeFiles/n7six.ApeX-k1.v7.6.5br2.dir/App/board.c.obj (__clzsi2)
/opt/toolchain/bin/../lib/gcc/arm-none-eabi/13.3.1/thumb/v6-m/nofp/libgcc.a(_muldi3.o)
                              CMakeFiles/n7six.ApeX-k1.v7.6.5br2.dir/App/app/spectrum.c.obj (__aeabi_lmul)
/opt/toolchain/bin/../lib/gcc/arm-none-eabi/13.3.1/../../../../arm-none-eabi/lib/thumb/v6-m/nofp/libg_nano.a(libc_a-exit.o)
                              /opt/toolchain/bin/../lib/gcc/arm-none-eabi/13.3.1/../../../../arm-none-eabi/lib/thumb/v6-m/nofp/crt0.o (exit)
/opt/toolchain/bin/../lib/gcc/arm-none-eabi/13.3.1/../../../../arm-none-eabi/lib/thumb/v6-m/nofp/libg_nano.a(libc_a-init.o)
                              /opt/toolchain/bin/../lib/gcc/arm-none-eabi/13.3.1/../../../../arm-none-eabi/lib/thumb/v6-m/nofp/crt0.o (__libc_init_array)
/opt/toolchain/bin/../lib/gcc/arm-none-eabi/13.3.1/../../../../arm-none-eabi/lib/thumb/v6-m/nofp/libg_nano.a(libc_a-memmove.o)
                              CMakeFiles/n7six.ApeX-k1.v7.6.5br2.dir/App/app/dtmf.c.obj (memmove)
/opt/toolchain/bin/../lib/gcc/arm-none-eabi/13.3.1/../../../../arm-none-eabi/lib/thumb/v6-m/nofp/libg_nano.a(libc_a-memset.o)
                              /opt/toolchain/bin/../lib/gcc/arm-none-eabi/13.3.1/../../../../arm-none-eabi/lib/thumb/v6-m/nofp/crt0.o (memset)
/opt/toolchain/bin/../lib/gcc/arm-none-eabi/13.3.1/../../../../arm-none-eabi/lib/thumb/v6-m/nofp/libg_nano.a(libc_a-memcpy-stub.o)
                              CMakeFiles/n7six.ApeX-k1.v7.6.5br2.dir/App/driver/bk4829.c.obj (memcpy)
/opt/toolchain/bin/../lib/gcc/arm-none-eabi/13.3.1/../../../../arm-none-eabi/lib/thumb/v6-m/nofp/libg_nano.a(libc_a-strlen.o)
                              CMakeFiles/n7six.ApeX-k1.v7.6.5br2.dir/App/app/app.c.obj (strlen)
/opt/toolchain/bin/../lib/gcc/arm-none-eabi/13.3.1/../../../../arm-none-eabi/lib/thumb/v6-m/nofp/libg_nano.a(libc_a-findfp.o)
                              /opt/toolchain/bin/../lib/gcc/arm-none-eabi/13.3.1/../../../../arm-none-eabi/lib/thumb/v6-m/nofp/libg_nano.a(libc_a-exit.o) (__stdio_exit_handler)
/opt/toolchain/bin/../lib/gcc/arm-none-eabi/13.3.1/../../../../arm-none-eabi/lib/thumb/v6-m/nofp/libg_nano.a(libc_a-strncpy.o)
                              CMakeFiles/n7six.ApeX-k1.v7.6.5br2.dir/App/app/generic.c.obj (strncpy)
/opt/toolchain/bin/../lib/gcc/arm-none-eabi/13.3.1/../../../../arm-none-eabi/lib/thumb/v6-m/nofp/libg_nano.a(libc_a-strnlen.o)
                              CMakeFiles/n7six.ApeX-k1.v7.6.5br2.dir/App/app/uart.c.obj (strnlen)
/opt/toolchain/bin/../lib/gcc/arm-none-eabi/13.3.1/../../../../arm-none-eabi/lib/thumb/v6-m/nofp/libg_nano.a(libc_a-stdio.o)
                              /opt/toolchain/bin/../lib/gcc/arm-none-eabi/13.3.1/../../../../arm-none-eabi/lib/thumb/v6-m/nofp/libg_nano.a(libc_a-findfp.o) (__sread)
/opt/toolchain/bin/../lib/gcc/arm-none-eabi/13.3.1/../../../../arm-none-eabi/lib/thumb/v6-m/nofp/libg_nano.a(libc_a-lseekr.o)
                              /opt/toolchain/bin/../lib/gcc/arm-none-eabi/13.3.1/../../../../arm-none-eabi/lib/thumb/v6-m/nofp/libg_nano.a(libc_a-stdio.o) (_lseek_r)
/opt/toolchain/bin/../lib/gcc/arm-none-eabi/13.3.1/../../../../arm-none-eabi/lib/thumb/v6-m/nofp/libg_nano.a(libc_a-readr.o)
                              /opt/toolchain/bin/../lib/gcc/arm-none-eabi/13.3.1/../../../../arm-none-eabi/lib/thumb/v6-m/nofp/libg_nano.a(libc_a-stdio.o) (_read_r)
/opt/toolchain/bin/../lib/gcc/arm-none-eabi/13.3.1/../../../../arm-none-eabi/lib/thumb/v6-m/nofp/libg_nano.a(libc_a-fwalk.o)
                              /opt/toolchain/bin/../lib/gcc/arm-none-eabi/13.3.1/../../../../arm-none-eabi/lib/thumb/v6-m/nofp/libg_nano.a(libc_a-findfp.o) (_fwalk_sglue)
/opt/toolchain/bin/../lib/gcc/arm-none-eabi/13.3.1/../../../../arm-none-eabi/lib/thumb/v6-m/nofp/libg_nano.a(libc_a-memcmp.o)
                              CMakeFiles/n7six.ApeX-k1.v7.6.5br2.dir/App/driver/py25q16.c.obj (memcmp)
/opt/toolchain/bin/../lib/gcc/arm-none-eabi/13.3.1/../../../../arm-none-eabi/lib/thumb/v6-m/nofp/libg_nano.a(libc_a-writer.o)
                              /opt/toolchain/bin/../lib/gcc/arm-none-eabi/13.3.1/../../../../arm-none-eabi/lib/thumb/v6-m/nofp/libg_nano.a(libc_a-stdio.o) (_write_r)
/opt/toolchain/bin/../lib/gcc/arm-none-eabi/13.3.1/../../../../arm-none-eabi/lib/thumb/v6-m/nofp/libg_nano.a(libc_a-lock.o)
                              /opt/toolchain/bin/../lib/gcc/arm-none-eabi/13.3.1/../../../../arm-none-eabi/lib/thumb/v6-m/nofp/libg_nano.a(libc_a-findfp.o) (__retarget_lock_init_recursive)
/opt/toolchain/bin/../lib/gcc/arm-none-eabi/13.3.1/../../../../arm-none-eabi/lib/thumb/v6-m/nofp/libg_nano.a(libc_a-fflush.o)
                              /opt/toolchain/bin/../lib/gcc/arm-none-eabi/13.3.1/../../../../arm-none-eabi/lib/thumb/v6-m/nofp/libg_nano.a(libc_a-findfp.o) (_fflush_r)
/opt/toolchain/bin/../lib/gcc/arm-none-eabi/13.3.1/../../../../arm-none-eabi/lib/thumb/v6-m/nofp/libg_nano.a(libc_a-mallocr.o)
                              /opt/toolchain/bin/../lib/gcc/arm-none-eabi/13.3.1/../../../../arm-none-eabi/lib/thumb/v6-m/nofp/libg_nano.a(libc_a-findfp.o) (_malloc_r)
/opt/toolchain/bin/../lib/gcc/arm-none-eabi/13.3.1/../../../../arm-none-eabi/lib/thumb/v6-m/nofp/libg_nano.a(libc_a-closer.o)
                              /opt/toolchain/bin/../lib/gcc/arm-none-eabi/13.3.1/../../../../arm-none-eabi/lib/thumb/v6-m/nofp/libg_nano.a(libc_a-stdio.o) (_close_r)
/opt/toolchain/bin/../lib/gcc/arm-none-eabi/13.3.1/../../../../arm-none-eabi/lib/thumb/v6-m/nofp/libg_nano.a(libc_a-reent.o)
                              /opt/toolchain/bin/../lib/gcc/arm-none-eabi/13.3.1/../../../../arm-none-eabi/lib/thumb/v6-m/nofp/libg_nano.a(libc_a-lseekr.o) (errno)
/opt/toolchain/bin/../lib/gcc/arm-none-eabi/13.3.1/../../../../arm-none-eabi/lib/thumb/v6-m/nofp/libg_nano.a(libc_a-impure.o)
                              /opt/toolchain/bin/../lib/gcc/arm-none-eabi/13.3.1/../../../../arm-none-eabi/lib/thumb/v6-m/nofp/libg_nano.a(libc_a-fflush.o) (_impure_ptr)
/opt/toolchain/bin/../lib/gcc/arm-none-eabi/13.3.1/../../../../arm-none-eabi/lib/thumb/v6-m/nofp/libg_nano.a(libc_a-mlock.o)
                              /opt/toolchain/bin/../lib/gcc/arm-none-eabi/13.3.1/../../../../arm-none-eabi/lib/thumb/v6-m/nofp/libg_nano.a(libc_a-mallocr.o) (__malloc_lock)
/opt/toolchain/bin/../lib/gcc/arm-none-eabi/13.3.1/../../../../arm-none-eabi/lib/thumb/v6-m/nofp/libg_nano.a(libc_a-sbrkr.o)
                              /opt/toolchain/bin/../lib/gcc/arm-none-eabi/13.3.1/../../../../arm-none-eabi/lib/thumb/v6-m/nofp/libg_nano.a(libc_a-mallocr.o) (_sbrk_r)
/opt/toolchain/bin/../lib/gcc/arm-none-eabi/13.3.1/../../../../arm-none-eabi/lib/thumb/v6-m/nofp/libg_nano.a(libc_a-freer.o)
                              /opt/toolchain/bin/../lib/gcc/arm-none-eabi/13.3.1/../../../../arm-none-eabi/lib/thumb/v6-m/nofp/libg_nano.a(libc_a-fflush.o) (_free_r)

Discarded input sections

 .text          0x00000000        0x0 /opt/toolchain/bin/../lib/gcc/arm-none-eabi/13.3.1/thumb/v6-m/nofp/crti.o
 .data          0x00000000        0x0 /opt/toolchain/bin/../lib/gcc/arm-none-eabi/13.3.1/thumb/v6-m/nofp/crti.o
 .bss           0x00000000        0x0 /opt/toolchain/bin/../lib/gcc/arm-none-eabi/13.3.1/thumb/v6-m/nofp/crti.o
 .text          0x00000000        0x0 /opt/toolchain/bin/../lib/gcc/arm-none-eabi/13.3.1/thumb/v6-m/nofp/crtbegin.o
 .data          0x00000000        0x0 /opt/toolchain/bin/../lib/gcc/arm-none-eabi/13.3.1/thumb/v6-m/nofp/crtbegin.o
 .bss           0x00000000        0x0 /opt/toolchain/bin/../lib/gcc/arm-none-eabi/13.3.1/thumb/v6-m/nofp/crtbegin.o
 .rodata.all_implied_fbits
                0x00000000       0x24 /opt/toolchain/bin/../lib/gcc/arm-none-eabi/13.3.1/thumb/v6-m/nofp/crtbegin.o
 .data.__dso_handle
                0x00000000        0x4 /opt/toolchain/bin/../lib/gcc/arm-none-eabi/13.3.1/thumb/v6-m/nofp/crtbegin.o
 .text          0x00000000       0x80 /opt/toolchain/bin/../lib/gcc/arm-none-eabi/13.3.1/../../../../arm-none-eabi/lib/thumb/v6-m/nofp/crt0.o
 .data          0x00000000        0x0 /opt/toolchain/bin/../lib/gcc/arm-none-eabi/13.3.1/../../../../arm-none-eabi/lib/thumb/v6-m/nofp/crt0.o
 .bss           0x00000000        0x0 /opt/toolchain/bin/../lib/gcc/arm-none-eabi/13.3.1/../../../../arm-none-eabi/lib/thumb/v6-m/nofp/crt0.o
 .ARM.extab     0x00000000        0x0 /opt/toolchain/bin/../lib/gcc/arm-none-eabi/13.3.1/../../../../arm-none-eabi/lib/thumb/v6-m/nofp/crt0.o
 .ARM.exidx     0x00000000       0x10 /opt/toolchain/bin/../lib/gcc/arm-none-eabi/13.3.1/../../../../arm-none-eabi/lib/thumb/v6-m/nofp/crt0.o
 .debug_line_str
                0x00000000       0xcb /opt/toolchain/bin/../lib/gcc/arm-none-eabi/13.3.1/../../../../arm-none-eabi/lib/thumb/v6-m/nofp/crt0.o
 .ARM.attributes
                0x00000000       0x1b /opt/toolchain/bin/../lib/gcc/arm-none-eabi/13.3.1/../../../../arm-none-eabi/lib/thumb/v6-m/nofp/crt0.o
 .text          0x00000000        0x0 CMakeFiles/n7six.ApeX-k1.v7.6.5br2.dir/Core/Src/main.c.obj
 .data          0x00000000        0x0 CMakeFiles/n7six.ApeX-k1.v7.6.5br2.dir/Core/Src/main.c.obj
 .bss           0x00000000        0x0 CMakeFiles/n7six.ApeX-k1.v7.6.5br2.dir/Core/Src/main.c.obj
 .text.APP_ErrorHandler
                0x00000000        0x2 CMakeFiles/n7six.ApeX-k1.v7.6.5br2.dir/Core/Src/main.c.obj
 .text          0x00000000        0x0 CMakeFiles/n7six.ApeX-k1.v7.6.5br2.dir/Core/Src/py32f071_it.c.obj
 .data          0x00000000        0x0 CMakeFiles/n7six.ApeX-k1.v7.6.5br2.dir/Core/Src/py32f071_it.c.obj
 .bss           0x00000000        0x0 CMakeFiles/n7six.ApeX-k1.v7.6.5br2.dir/Core/Src/py32f071_it.c.obj
 .text          0x00000000        0x0 CMakeFiles/n7six.ApeX-k1.v7.6.5br2.dir/Core/Src/system_py32f071.c.obj
 .data          0x00000000        0x0 CMakeFiles/n7six.ApeX-k1.v7.6.5br2.dir/Core/Src/system_py32f071.c.obj
 .bss           0x00000000        0x0 CMakeFiles/n7six.ApeX-k1.v7.6.5br2.dir/Core/Src/system_py32f071.c.obj
 .text.SystemCoreClockUpdate
                0x00000000       0x94 CMakeFiles/n7six.ApeX-k1.v7.6.5br2.dir/Core/Src/system_py32f071.c.obj
 .text          0x00000000       0x14 CMakeFiles/n7six.ApeX-k1.v7.6.5br2.dir/Core/startup_py32f071xx.s.obj
 .data          0x00000000        0x0 CMakeFiles/n7six.ApeX-k1.v7.6.5br2.dir/Core/startup_py32f071xx.s.obj
 .bss           0x00000000        0x0 CMakeFiles/n7six.ApeX-k1.v7.6.5br2.dir/Core/startup_py32f071xx.s.obj
 .text          0x00000000        0x0 CMakeFiles/n7six.ApeX-k1.v7.6.5br2.dir/Drivers/PY32F071_HAL_Driver/Src/py32f071_ll_rcc.c.obj
 .data          0x00000000        0x0 CMakeFiles/n7six.ApeX-k1.v7.6.5br2.dir/Drivers/PY32F071_HAL_Driver/Src/py32f071_ll_rcc.c.obj
 .bss           0x00000000        0x0 CMakeFiles/n7six.ApeX-k1.v7.6.5br2.dir/Drivers/PY32F071_HAL_Driver/Src/py32f071_ll_rcc.c.obj
 .text.LL_RCC_LSE_IsReady
                0x00000000       0x10 CMakeFiles/n7six.ApeX-k1.v7.6.5br2.dir/Drivers/PY32F071_HAL_Driver/Src/py32f071_ll_rcc.c.obj
 .text.LL_RCC_LSI_IsReady
                0x00000000       0x10 CMakeFiles/n7six.ApeX-k1.v7.6.5br2.dir/Drivers/PY32F071_HAL_Driver/Src/py32f071_ll_rcc.c.obj
 .text.LL_RCC_DeInit
                0x00000000       0x70 CMakeFiles/n7six.ApeX-k1.v7.6.5br2.dir/Drivers/PY32F071_HAL_Driver/Src/py32f071_ll_rcc.c.obj
 .text.LL_RCC_GetLSCClockFreq
                0x00000000       0x24 CMakeFiles/n7six.ApeX-k1.v7.6.5br2.dir/Drivers/PY32F071_HAL_Driver/Src/py32f071_ll_rcc.c.obj
 .text.LL_RCC_GetRTCClockFreq
                0x00000000       0x54 CMakeFiles/n7six.ApeX-k1.v7.6.5br2.dir/Drivers/PY32F071_HAL_Driver/Src/py32f071_ll_rcc.c.obj
 .text.LL_RCC_GetPVDClockFreq
                0x00000000       0x24 CMakeFiles/n7six.ApeX-k1.v7.6.5br2.dir/Drivers/PY32F071_HAL_Driver/Src/py32f071_ll_rcc.c.obj
 .text.LL_RCC_GetCOMPClockFreq
                0x00000000       0x58 CMakeFiles/n7six.ApeX-k1.v7.6.5br2.dir/Drivers/PY32F071_HAL_Driver/Src/py32f071_ll_rcc.c.obj
 .text.LL_RCC_GetLPTIMClockFreq
                0x00000000       0x64 CMakeFiles/n7six.ApeX-k1.v7.6.5br2.dir/Drivers/PY32F071_HAL_Driver/Src/py32f071_ll_rcc.c.obj
 .text.LL_RCC_GetADCClockFreq
                0x00000000       0x68 CMakeFiles/n7six.ApeX-k1.v7.6.5br2.dir/Drivers/PY32F071_HAL_Driver/Src/py32f071_ll_rcc.c.obj
 .text.LL_RCC_GetMCOClockFreq
                0x00000000       0xd4 CMakeFiles/n7six.ApeX-k1.v7.6.5br2.dir/Drivers/PY32F071_HAL_Driver/Src/py32f071_ll_rcc.c.obj
 .text          0x00000000        0x0 CMakeFiles/n7six.ApeX-k1.v7.6.5br2.dir/Drivers/PY32F071_HAL_Driver/Src/py32f071_ll_pwr.c.obj
 .data          0x00000000        0x0 CMakeFiles/n7six.ApeX-k1.v7.6.5br2.dir/Drivers/PY32F071_HAL_Driver/Src/py32f071_ll_pwr.c.obj
 .bss           0x00000000        0x0 CMakeFiles/n7six.ApeX-k1.v7.6.5br2.dir/Drivers/PY32F071_HAL_Driver/Src/py32f071_ll_pwr.c.obj
 .text.LL_PWR_DeInit
                0x00000000       0x20 CMakeFiles/n7six.ApeX-k1.v7.6.5br2.dir/Drivers/PY32F071_HAL_Driver/Src/py32f071_ll_pwr.c.obj
 .comment       0x00000000       0x46 CMakeFiles/n7six.ApeX-k1.v7.6.5br2.dir/Drivers/PY32F071_HAL_Driver/Src/py32f071_ll_pwr.c.obj
 .ARM.attributes
                0x00000000       0x2c CMakeFiles/n7six.ApeX-k1.v7.6.5br2.dir/Drivers/PY32F071_HAL_Driver/Src/py32f071_ll_pwr.c.obj
 .text          0x00000000        0x0 CMakeFiles/n7six.ApeX-k1.v7.6.5br2.dir/Drivers/PY32F071_HAL_Driver/Src/py32f071_ll_dma.c.obj
 .data          0x00000000        0x0 CMakeFiles/n7six.ApeX-k1.v7.6.5br2.dir/Drivers/PY32F071_HAL_Driver/Src/py32f071_ll_dma.c.obj
 .bss           0x00000000        0x0 CMakeFiles/n7six.ApeX-k1.v7.6.5br2.dir/Drivers/PY32F071_HAL_Driver/Src/py32f071_ll_dma.c.obj
 .text.LL_DMA_DeInit
                0x00000000       0x94 CMakeFiles/n7six.ApeX-k1.v7.6.5br2.dir/Drivers/PY32F071_HAL_Driver/Src/py32f071_ll_dma.c.obj
 .text          0x00000000        0x0 CMakeFiles/n7six.ApeX-k1.v7.6.5br2.dir/Drivers/PY32F071_HAL_Driver/Src/py32f071_ll_gpio.c.obj
 .data          0x00000000        0x0 CMakeFiles/n7six.ApeX-k1.v7.6.5br2.dir/Drivers/PY32F071_HAL_Driver/Src/py32f071_ll_gpio.c.obj
 .bss           0x00000000        0x0 CMakeFiles/n7six.ApeX-k1.v7.6.5br2.dir/Drivers/PY32F071_HAL_Driver/Src/py32f071_ll_gpio.c.obj
 .text.LL_GPIO_DeInit
                0x00000000       0x5c CMakeFiles/n7six.ApeX-k1.v7.6.5br2.dir/Drivers/PY32F071_HAL_Driver/Src/py32f071_ll_gpio.c.obj
 .text          0x00000000        0x0 CMakeFiles/n7six.ApeX-k1.v7.6.5br2.dir/Drivers/PY32F071_HAL_Driver/Src/py32f071_ll_utils.c.obj
 .data          0x00000000        0x0 CMakeFiles/n7six.ApeX-k1.v7.6.5br2.dir/Drivers/PY32F071_HAL_Driver/Src/py32f071_ll_utils.c.obj
 .bss           0x00000000        0x0 CMakeFiles/n7six.ApeX-k1.v7.6.5br2.dir/Drivers/PY32F071_HAL_Driver/Src/py32f071_ll_utils.c.obj
 .text.LL_RCC_HSI_GetFreq
                0x00000000       0x18 CMakeFiles/n7six.ApeX-k1.v7.6.5br2.dir/Drivers/PY32F071_HAL_Driver/Src/py32f071_ll_utils.c.obj
 .text.LL_Init1msTick
                0x00000000       0x20 CMakeFiles/n7six.ApeX-k1.v7.6.5br2.dir/Drivers/PY32F071_HAL_Driver/Src/py32f071_ll_utils.c.obj
 .text.LL_mDelay
                0x00000000       0x2c CMakeFiles/n7six.ApeX-k1.v7.6.5br2.dir/Drivers/PY32F071_HAL_Driver/Src/py32f071_ll_utils.c.obj
 .text.LL_SetFlashLatency
                0x00000000       0x54 CMakeFiles/n7six.ApeX-k1.v7.6.5br2.dir/Drivers/PY32F071_HAL_Driver/Src/py32f071_ll_utils.c.obj
 .text.UTILS_EnablePLLAndSwitchSystem
                0x00000000       0x98 CMakeFiles/n7six.ApeX-k1.v7.6.5br2.dir/Drivers/PY32F071_HAL_Driver/Src/py32f071_ll_utils.c.obj
 .text.LL_PLL_ConfigSystemClock_HSI
                0x00000000       0x94 CMakeFiles/n7six.ApeX-k1.v7.6.5br2.dir/Drivers/PY32F071_HAL_Driver/Src/py32f071_ll_utils.c.obj
 .text.LL_PLL_ConfigSystemClock_HSE
                0x00000000       0xd0 CMakeFiles/n7six.ApeX-k1.v7.6.5br2.dir/Drivers/PY32F071_HAL_Driver/Src/py32f071_ll_utils.c.obj
 .text          0x00000000        0x0 CMakeFiles/n7six.ApeX-k1.v7.6.5br2.dir/Drivers/PY32F071_HAL_Driver/Src/py32f071_ll_adc.c.obj
 .data          0x00000000        0x0 CMakeFiles/n7six.ApeX-k1.v7.6.5br2.dir/Drivers/PY32F071_HAL_Driver/Src/py32f071_ll_adc.c.obj
 .bss           0x00000000        0x0 CMakeFiles/n7six.ApeX-k1.v7.6.5br2.dir/Drivers/PY32F071_HAL_Driver/Src/py32f071_ll_adc.c.obj
 .text.LL_ADC_DeInit
                0x00000000       0xd4 CMakeFiles/n7six.ApeX-k1.v7.6.5br2.dir/Drivers/PY32F071_HAL_Driver/Src/py32f071_ll_adc.c.obj
 .text.LL_ADC_Init
                0x00000000       0x34 CMakeFiles/n7six.ApeX-k1.v7.6.5br2.dir/Drivers/PY32F071_HAL_Driver/Src/py32f071_ll_adc.c.obj
 .text.LL_ADC_StructInit
                0x00000000        0xc CMakeFiles/n7six.ApeX-k1.v7.6.5br2.dir/Drivers/PY32F071_HAL_Driver/Src/py32f071_ll_adc.c.obj
 .text.LL_ADC_REG_Init
                0x00000000       0x50 CMakeFiles/n7six.ApeX-k1.v7.6.5br2.dir/Drivers/PY32F071_HAL_Driver/Src/py32f071_ll_adc.c.obj
 .text.LL_ADC_REG_StructInit
                0x00000000       0x12 CMakeFiles/n7six.ApeX-k1.v7.6.5br2.dir/Drivers/PY32F071_HAL_Driver/Src/py32f071_ll_adc.c.obj
 .text.LL_ADC_INJ_Init
                0x00000000       0x48 CMakeFiles/n7six.ApeX-k1.v7.6.5br2.dir/Drivers/PY32F071_HAL_Driver/Src/py32f071_ll_adc.c.obj
 .text.LL_ADC_INJ_StructInit
                0x00000000       0x10 CMakeFiles/n7six.ApeX-k1.v7.6.5br2.dir/Drivers/PY32F071_HAL_Driver/Src/py32f071_ll_adc.c.obj
 .comment       0x00000000       0x46 CMakeFiles/n7six.ApeX-k1.v7.6.5br2.dir/Drivers/PY32F071_HAL_Driver/Src/py32f071_ll_adc.c.obj
 .ARM.attributes
                0x00000000       0x2c CMakeFiles/n7six.ApeX-k1.v7.6.5br2.dir/Drivers/PY32F071_HAL_Driver/Src/py32f071_ll_adc.c.obj
 .text          0x00000000        0x0 CMakeFiles/n7six.ApeX-k1.v7.6.5br2.dir/Drivers/PY32F071_HAL_Driver/Src/py32f071_ll_comp.c.obj
 .data          0x00000000        0x0 CMakeFiles/n7six.ApeX-k1.v7.6.5br2.dir/Drivers/PY32F071_HAL_Driver/Src/py32f071_ll_comp.c.obj
 .bss           0x00000000        0x0 CMakeFiles/n7six.ApeX-k1.v7.6.5br2.dir/Drivers/PY32F071_HAL_Driver/Src/py32f071_ll_comp.c.obj
 .text.LL_COMP_DeInit
                0x00000000        0xa CMakeFiles/n7six.ApeX-k1.v7.6.5br2.dir/Drivers/PY32F071_HAL_Driver/Src/py32f071_ll_comp.c.obj
 .text.LL_COMP_Init
                0x00000000       0x70 CMakeFiles/n7six.ApeX-k1.v7.6.5br2.dir/Drivers/PY32F071_HAL_Driver/Src/py32f071_ll_comp.c.obj
 .text.LL_COMP_StructInit
                0x00000000       0x14 CMakeFiles/n7six.ApeX-k1.v7.6.5br2.dir/Drivers/PY32F071_HAL_Driver/Src/py32f071_ll_comp.c.obj
 .comment       0x00000000       0x46 CMakeFiles/n7six.ApeX-k1.v7.6.5br2.dir/Drivers/PY32F071_HAL_Driver/Src/py32f071_ll_comp.c.obj
 .ARM.attributes
                0x00000000       0x2c CMakeFiles/n7six.ApeX-k1.v7.6.5br2.dir/Drivers/PY32F071_HAL_Driver/Src/py32f071_ll_comp.c.obj
 .text          0x00000000        0x0 CMakeFiles/n7six.ApeX-k1.v7.6.5br2.dir/Drivers/PY32F071_HAL_Driver/Src/py32f071_ll_crc.c.obj
 .data          0x00000000        0x0 CMakeFiles/n7six.ApeX-k1.v7.6.5br2.dir/Drivers/PY32F071_HAL_Driver/Src/py32f071_ll_crc.c.obj
 .bss           0x00000000        0x0 CMakeFiles/n7six.ApeX-k1.v7.6.5br2.dir/Drivers/PY32F071_HAL_Driver/Src/py32f071_ll_crc.c.obj
 .text.LL_CRC_DeInit
                0x00000000       0x1c CMakeFiles/n7six.ApeX-k1.v7.6.5br2.dir/Drivers/PY32F071_HAL_Driver/Src/py32f071_ll_crc.c.obj
 .comment       0x00000000       0x46 CMakeFiles/n7six.ApeX-k1.v7.6.5br2.dir/Drivers/PY32F071_HAL_Driver/Src/py32f071_ll_crc.c.obj
 .ARM.attributes
                0x00000000       0x2c CMakeFiles/n7six.ApeX-k1.v7.6.5br2.dir/Drivers/PY32F071_HAL_Driver/Src/py32f071_ll_crc.c.obj
 .text          0x00000000        0x0 CMakeFiles/n7six.ApeX-k1.v7.6.5br2.dir/Drivers/PY32F071_HAL_Driver/Src/py32f071_ll_dac.c.obj
 .data          0x00000000        0x0 CMakeFiles/n7six.ApeX-k1.v7.6.5br2.dir/Drivers/PY32F071_HAL_Driver/Src/py32f071_ll_dac.c.obj
 .bss           0x00000000        0x0 CMakeFiles/n7six.ApeX-k1.v7.6.5br2.dir/Drivers/PY32F071_HAL_Driver/Src/py32f071_ll_dac.c.obj
 .text.LL_DAC_DeInit
                0x00000000       0x20 CMakeFiles/n7six.ApeX-k1.v7.6.5br2.dir/Drivers/PY32F071_HAL_Driver/Src/py32f071_ll_dac.c.obj
 .text.LL_DAC_Init
                0x00000000       0x50 CMakeFiles/n7six.ApeX-k1.v7.6.5br2.dir/Drivers/PY32F071_HAL_Driver/Src/py32f071_ll_dac.c.obj
 .text.LL_DAC_StructInit
                0x00000000        0xe CMakeFiles/n7six.ApeX-k1.v7.6.5br2.dir/Drivers/PY32F071_HAL_Driver/Src/py32f071_ll_dac.c.obj
 .comment       0x00000000       0x46 CMakeFiles/n7six.ApeX-k1.v7.6.5br2.dir/Drivers/PY32F071_HAL_Driver/Src/py32f071_ll_dac.c.obj
 .ARM.attributes
                0x00000000       0x2c CMakeFiles/n7six.ApeX-k1.v7.6.5br2.dir/Drivers/PY32F071_HAL_Driver/Src/py32f071_ll_dac.c.obj
 .text          0x00000000        0x0 CMakeFiles/n7six.ApeX-k1.v7.6.5br2.dir/Drivers/PY32F071_HAL_Driver/Src/py32f071_ll_exti.c.obj
 .data          0x00000000        0x0 CMakeFiles/n7six.ApeX-k1.v7.6.5br2.dir/Drivers/PY32F071_HAL_Driver/Src/py32f071_ll_exti.c.obj
 .bss           0x00000000        0x0 CMakeFiles/n7six.ApeX-k1.v7.6.5br2.dir/Drivers/PY32F071_HAL_Driver/Src/py32f071_ll_exti.c.obj
 .text.LL_EXTI_DeInit
                0x00000000       0x28 CMakeFiles/n7six.ApeX-k1.v7.6.5br2.dir/Drivers/PY32F071_HAL_Driver/Src/py32f071_ll_exti.c.obj
 .text.LL_EXTI_Init
                0x00000000       0xa8 CMakeFiles/n7six.ApeX-k1.v7.6.5br2.dir/Drivers/PY32F071_HAL_Driver/Src/py32f071_ll_exti.c.obj
 .text.LL_EXTI_StructInit
                0x00000000        0xc CMakeFiles/n7six.ApeX-k1.v7.6.5br2.dir/Drivers/PY32F071_HAL_Driver/Src/py32f071_ll_exti.c.obj
 .comment       0x00000000       0x46 CMakeFiles/n7six.ApeX-k1.v7.6.5br2.dir/Drivers/PY32F071_HAL_Driver/Src/py32f071_ll_exti.c.obj
 .ARM.attributes
                0x00000000       0x2c CMakeFiles/n7six.ApeX-k1.v7.6.5br2.dir/Drivers/PY32F071_HAL_Driver/Src/py32f071_ll_exti.c.obj
 .text          0x00000000        0x0 CMakeFiles/n7six.ApeX-k1.v7.6.5br2.dir/Drivers/PY32F071_HAL_Driver/Src/py32f071_ll_i2c.c.obj
 .data          0x00000000        0x0 CMakeFiles/n7six.ApeX-k1.v7.6.5br2.dir/Drivers/PY32F071_HAL_Driver/Src/py32f071_ll_i2c.c.obj
 .bss           0x00000000        0x0 CMakeFiles/n7six.ApeX-k1.v7.6.5br2.dir/Drivers/PY32F071_HAL_Driver/Src/py32f071_ll_i2c.c.obj
 .text.LL_I2C_DeInit
                0x00000000       0x50 CMakeFiles/n7six.ApeX-k1.v7.6.5br2.dir/Drivers/PY32F071_HAL_Driver/Src/py32f071_ll_i2c.c.obj
 .text.LL_I2C_Init
                0x00000000       0xf0 CMakeFiles/n7six.ApeX-k1.v7.6.5br2.dir/Drivers/PY32F071_HAL_Driver/Src/py32f071_ll_i2c.c.obj
 .text.LL_I2C_StructInit
                0x00000000       0x1c CMakeFiles/n7six.ApeX-k1.v7.6.5br2.dir/Drivers/PY32F071_HAL_Driver/Src/py32f071_ll_i2c.c.obj
 .comment       0x00000000       0x46 CMakeFiles/n7six.ApeX-k1.v7.6.5br2.dir/Drivers/PY32F071_HAL_Driver/Src/py32f071_ll_i2c.c.obj
 .ARM.attributes
                0x00000000       0x2c CMakeFiles/n7six.ApeX-k1.v7.6.5br2.dir/Drivers/PY32F071_HAL_Driver/Src/py32f071_ll_i2c.c.obj
 .text          0x00000000        0x0 CMakeFiles/n7six.ApeX-k1.v7.6.5br2.dir/Drivers/PY32F071_HAL_Driver/Src/py32f071_ll_rtc.c.obj
 .data          0x00000000        0x0 CMakeFiles/n7six.ApeX-k1.v7.6.5br2.dir/Drivers/PY32F071_HAL_Driver/Src/py32f071_ll_rtc.c.obj
 .bss           0x00000000        0x0 CMakeFiles/n7six.ApeX-k1.v7.6.5br2.dir/Drivers/PY32F071_HAL_Driver/Src/py32f071_ll_rtc.c.obj
 .text.LL_RTC_StructInit
                0x00000000        0xc CMakeFiles/n7six.ApeX-k1.v7.6.5br2.dir/Drivers/PY32F071_HAL_Driver/Src/py32f071_ll_rtc.c.obj
 .text.LL_RTC_TIME_StructInit
                0x00000000        0xa CMakeFiles/n7six.ApeX-k1.v7.6.5br2.dir/Drivers/PY32F071_HAL_Driver/Src/py32f071_ll_rtc.c.obj
 .text.LL_RTC_ALARM_StructInit
                0x00000000        0xa CMakeFiles/n7six.ApeX-k1.v7.6.5br2.dir/Drivers/PY32F071_HAL_Driver/Src/py32f071_ll_rtc.c.obj
 .text.LL_RTC_EnterInitMode
                0x00000000       0x50 CMakeFiles/n7six.ApeX-k1.v7.6.5br2.dir/Drivers/PY32F071_HAL_Driver/Src/py32f071_ll_rtc.c.obj
 .text.LL_RTC_ExitInitMode
                0x00000000       0x50 CMakeFiles/n7six.ApeX-k1.v7.6.5br2.dir/Drivers/PY32F071_HAL_Driver/Src/py32f071_ll_rtc.c.obj
 .text.LL_RTC_TIME_Init
                0x00000000       0x6c CMakeFiles/n7six.ApeX-k1.v7.6.5br2.dir/Drivers/PY32F071_HAL_Driver/Src/py32f071_ll_rtc.c.obj
 .text.LL_RTC_ALARM_Init
                0x00000000       0x6c CMakeFiles/n7six.ApeX-k1.v7.6.5br2.dir/Drivers/PY32F071_HAL_Driver/Src/py32f071_ll_rtc.c.obj
 .text.LL_RTC_TIME_SetCounter
                0x00000000       0x24 CMakeFiles/n7six.ApeX-k1.v7.6.5br2.dir/Drivers/PY32F071_HAL_Driver/Src/py32f071_ll_rtc.c.obj
 .text.LL_RTC_ALARM_SetCounter
                0x00000000       0x24 CMakeFiles/n7six.ApeX-k1.v7.6.5br2.dir/Drivers/PY32F071_HAL_Driver/Src/py32f071_ll_rtc.c.obj
 .text.LL_RTC_WaitForSynchro
                0x00000000       0x50 CMakeFiles/n7six.ApeX-k1.v7.6.5br2.dir/Drivers/PY32F071_HAL_Driver/Src/py32f071_ll_rtc.c.obj
 .text.LL_RTC_DeInit
                0x00000000       0x56 CMakeFiles/n7six.ApeX-k1.v7.6.5br2.dir/Drivers/PY32F071_HAL_Driver/Src/py32f071_ll_rtc.c.obj
 .text.LL_RTC_Init
                0x00000000       0x68 CMakeFiles/n7six.ApeX-k1.v7.6.5br2.dir/Drivers/PY32F071_HAL_Driver/Src/py32f071_ll_rtc.c.obj
 .comment       0x00000000       0x46 CMakeFiles/n7six.ApeX-k1.v7.6.5br2.dir/Drivers/PY32F071_HAL_Driver/Src/py32f071_ll_rtc.c.obj
 .ARM.attributes
                0x00000000       0x2c CMakeFiles/n7six.ApeX-k1.v7.6.5br2.dir/Drivers/PY32F071_HAL_Driver/Src/py32f071_ll_rtc.c.obj
 .text          0x00000000        0x0 CMakeFiles/n7six.ApeX-k1.v7.6.5br2.dir/Drivers/PY32F071_HAL_Driver/Src/py32f071_ll_spi.c.obj
 .data          0x00000000        0x0 CMakeFiles/n7six.ApeX-k1.v7.6.5br2.dir/Drivers/PY32F071_HAL_Driver/Src/py32f071_ll_spi.c.obj
 .bss           0x00000000        0x0 CMakeFiles/n7six.ApeX-k1.v7.6.5br2.dir/Drivers/PY32F071_HAL_Driver/Src/py32f071_ll_spi.c.obj
 .text.LL_SPI_DeInit
                0x00000000       0x54 CMakeFiles/n7six.ApeX-k1.v7.6.5br2.dir/Drivers/PY32F071_HAL_Driver/Src/py32f071_ll_spi.c.obj
 .text.LL_I2S_DeInit
                0x00000000        0x8 CMakeFiles/n7six.ApeX-k1.v7.6.5br2.dir/Drivers/PY32F071_HAL_Driver/Src/py32f071_ll_spi.c.obj
 .text.LL_I2S_Init
                0x00000000       0x9c CMakeFiles/n7six.ApeX-k1.v7.6.5br2.dir/Drivers/PY32F071_HAL_Driver/Src/py32f071_ll_spi.c.obj
 .text.LL_I2S_StructInit
                0x00000000       0x12 CMakeFiles/n7six.ApeX-k1.v7.6.5br2.dir/Drivers/PY32F071_HAL_Driver/Src/py32f071_ll_spi.c.obj
 .text.LL_I2S_ConfigPrescaler
                0x00000000       0x10 CMakeFiles/n7six.ApeX-k1.v7.6.5br2.dir/Drivers/PY32F071_HAL_Driver/Src/py32f071_ll_spi.c.obj
 .text          0x00000000        0x0 CMakeFiles/n7six.ApeX-k1.v7.6.5br2.dir/Drivers/PY32F071_HAL_Driver/Src/py32f071_ll_tim.c.obj
 .data          0x00000000        0x0 CMakeFiles/n7six.ApeX-k1.v7.6.5br2.dir/Drivers/PY32F071_HAL_Driver/Src/py32f071_ll_tim.c.obj
 .bss           0x00000000        0x0 CMakeFiles/n7six.ApeX-k1.v7.6.5br2.dir/Drivers/PY32F071_HAL_Driver/Src/py32f071_ll_tim.c.obj
 .text.LL_TIM_DeInit
                0x00000000      0x100 CMakeFiles/n7six.ApeX-k1.v7.6.5br2.dir/Drivers/PY32F071_HAL_Driver/Src/py32f071_ll_tim.c.obj
 .text.LL_TIM_StructInit
                0x00000000       0x12 CMakeFiles/n7six.ApeX-k1.v7.6.5br2.dir/Drivers/PY32F071_HAL_Driver/Src/py32f071_ll_tim.c.obj
 .text.LL_TIM_Init
                0x00000000       0x7c CMakeFiles/n7six.ApeX-k1.v7.6.5br2.dir/Drivers/PY32F071_HAL_Driver/Src/py32f071_ll_tim.c.obj
 .text.LL_TIM_OC_StructInit
                0x00000000       0x14 CMakeFiles/n7six.ApeX-k1.v7.6.5br2.dir/Drivers/PY32F071_HAL_Driver/Src/py32f071_ll_tim.c.obj
 .text.LL_TIM_OC_Init
                0x00000000      0x200 CMakeFiles/n7six.ApeX-k1.v7.6.5br2.dir/Drivers/PY32F071_HAL_Driver/Src/py32f071_ll_tim.c.obj
 .text.LL_TIM_IC_StructInit
                0x00000000       0x10 CMakeFiles/n7six.ApeX-k1.v7.6.5br2.dir/Drivers/PY32F071_HAL_Driver/Src/py32f071_ll_tim.c.obj
 .text.LL_TIM_IC_Init
                0x00000000       0xe8 CMakeFiles/n7six.ApeX-k1.v7.6.5br2.dir/Drivers/PY32F071_HAL_Driver/Src/py32f071_ll_tim.c.obj
 .text.LL_TIM_ENCODER_StructInit
                0x00000000       0x1c CMakeFiles/n7six.ApeX-k1.v7.6.5br2.dir/Drivers/PY32F071_HAL_Driver/Src/py32f071_ll_tim.c.obj
 .text.LL_TIM_ENCODER_Init
                0x00000000       0x5c CMakeFiles/n7six.ApeX-k1.v7.6.5br2.dir/Drivers/PY32F071_HAL_Driver/Src/py32f071_ll_tim.c.obj
 .text.LL_TIM_HALLSENSOR_StructInit
                0x00000000        0xc CMakeFiles/n7six.ApeX-k1.v7.6.5br2.dir/Drivers/PY32F071_HAL_Driver/Src/py32f071_ll_tim.c.obj
 .text.LL_TIM_HALLSENSOR_Init
                0x00000000       0x5c CMakeFiles/n7six.ApeX-k1.v7.6.5br2.dir/Drivers/PY32F071_HAL_Driver/Src/py32f071_ll_tim.c.obj
 .text.LL_TIM_BDTR_StructInit
                0x00000000       0x12 CMakeFiles/n7six.ApeX-k1.v7.6.5br2.dir/Drivers/PY32F071_HAL_Driver/Src/py32f071_ll_tim.c.obj
 .text.LL_TIM_BDTR_Init
                0x00000000       0x48 CMakeFiles/n7six.ApeX-k1.v7.6.5br2.dir/Drivers/PY32F071_HAL_Driver/Src/py32f071_ll_tim.c.obj
 .comment       0x00000000       0x46 CMakeFiles/n7six.ApeX-k1.v7.6.5br2.dir/Drivers/PY32F071_HAL_Driver/Src/py32f071_ll_tim.c.obj
 .ARM.attributes
                0x00000000       0x2c CMakeFiles/n7six.ApeX-k1.v7.6.5br2.dir/Drivers/PY32F071_HAL_Driver/Src/py32f071_ll_tim.c.obj
 .text          0x00000000        0x0 CMakeFiles/n7six.ApeX-k1.v7.6.5br2.dir/Drivers/PY32F071_HAL_Driver/Src/py32f071_ll_lptim.c.obj
 .data          0x00000000        0x0 CMakeFiles/n7six.ApeX-k1.v7.6.5br2.dir/Drivers/PY32F071_HAL_Driver/Src/py32f071_ll_lptim.c.obj
 .bss           0x00000000        0x0 CMakeFiles/n7six.ApeX-k1.v7.6.5br2.dir/Drivers/PY32F071_HAL_Driver/Src/py32f071_ll_lptim.c.obj
 .text.LL_LPTIM_DeInit
                0x00000000       0x2c CMakeFiles/n7six.ApeX-k1.v7.6.5br2.dir/Drivers/PY32F071_HAL_Driver/Src/py32f071_ll_lptim.c.obj
 .text.LL_LPTIM_StructInit
                0x00000000        0x8 CMakeFiles/n7six.ApeX-k1.v7.6.5br2.dir/Drivers/PY32F071_HAL_Driver/Src/py32f071_ll_lptim.c.obj
 .text.LL_LPTIM_Init
                0x00000000       0x28 CMakeFiles/n7six.ApeX-k1.v7.6.5br2.dir/Drivers/PY32F071_HAL_Driver/Src/py32f071_ll_lptim.c.obj
 .comment       0x00000000       0x46 CMakeFiles/n7six.ApeX-k1.v7.6.5br2.dir/Drivers/PY32F071_HAL_Driver/Src/py32f071_ll_lptim.c.obj
 .ARM.attributes
                0x00000000       0x2c CMakeFiles/n7six.ApeX-k1.v7.6.5br2.dir/Drivers/PY32F071_HAL_Driver/Src/py32f071_ll_lptim.c.obj
 .text          0x00000000        0x0 CMakeFiles/n7six.ApeX-k1.v7.6.5br2.dir/Drivers/PY32F071_HAL_Driver/Src/py32f071_ll_usart.c.obj
 .data          0x00000000        0x0 CMakeFiles/n7six.ApeX-k1.v7.6.5br2.dir/Drivers/PY32F071_HAL_Driver/Src/py32f071_ll_usart.c.obj
 .bss           0x00000000        0x0 CMakeFiles/n7six.ApeX-k1.v7.6.5br2.dir/Drivers/PY32F071_HAL_Driver/Src/py32f071_ll_usart.c.obj
 .text.LL_USART_DeInit
                0x00000000       0x94 CMakeFiles/n7six.ApeX-k1.v7.6.5br2.dir/Drivers/PY32F071_HAL_Driver/Src/py32f071_ll_usart.c.obj
 .text.LL_USART_ClockInit
                0x00000000       0x40 CMakeFiles/n7six.ApeX-k1.v7.6.5br2.dir/Drivers/PY32F071_HAL_Driver/Src/py32f071_ll_usart.c.obj
 .text.LL_USART_ClockStructInit
                0x00000000        0xc CMakeFiles/n7six.ApeX-k1.v7.6.5br2.dir/Drivers/PY32F071_HAL_Driver/Src/py32f071_ll_usart.c.obj
 .text          0x00000000        0x0 CMakeFiles/n7six.ApeX-k1.v7.6.5br2.dir/App/driver/backlight.c.obj
 .data          0x00000000        0x0 CMakeFiles/n7six.ApeX-k1.v7.6.5br2.dir/App/driver/backlight.c.obj
 .bss           0x00000000        0x0 CMakeFiles/n7six.ApeX-k1.v7.6.5br2.dir/App/driver/backlight.c.obj
 .text.BACKLIGHT_GetBrightness
                0x00000000        0xc CMakeFiles/n7six.ApeX-k1.v7.6.5br2.dir/App/driver/backlight.c.obj
 .text          0x00000000        0x0 CMakeFiles/n7six.ApeX-k1.v7.6.5br2.dir/App/driver/bk4829.c.obj
 .data          0x00000000        0x0 CMakeFiles/n7six.ApeX-k1.v7.6.5br2.dir/App/driver/bk4829.c.obj
 .bss           0x00000000        0x0 CMakeFiles/n7six.ApeX-k1.v7.6.5br2.dir/App/driver/bk4829.c.obj
 .rodata.BK4819_GetRxGain_dB.str1.1
                0x00000000       0x10 CMakeFiles/n7six.ApeX-k1.v7.6.5br2.dir/App/driver/bk4829.c.obj
 .text.BK4819_GetRxGain_dB
                0x00000000       0x78 CMakeFiles/n7six.ApeX-k1.v7.6.5br2.dir/App/driver/bk4829.c.obj
 .text.BK4819_EnableScramble
                0x00000000       0x40 CMakeFiles/n7six.ApeX-k1.v7.6.5br2.dir/App/driver/bk4829.c.obj
 .text.BK4819_CompanderEnabled
                0x00000000        0xe CMakeFiles/n7six.ApeX-k1.v7.6.5br2.dir/App/driver/bk4829.c.obj
 .text.BK4819_GetGlitchIndicator
                0x00000000        0xc CMakeFiles/n7six.ApeX-k1.v7.6.5br2.dir/App/driver/bk4829.c.obj
 .text.BK4819_GetExNoiceIndicator
                0x00000000        0xe CMakeFiles/n7six.ApeX-k1.v7.6.5br2.dir/App/driver/bk4829.c.obj
 .text.BK4819_GetCTCShift
                0x00000000        0xe CMakeFiles/n7six.ApeX-k1.v7.6.5br2.dir/App/driver/bk4829.c.obj
 .text.BK4819_Enable_AfDac_DiscMode_TxDsp
                0x00000000       0x18 CMakeFiles/n7six.ApeX-k1.v7.6.5br2.dir/App/driver/bk4829.c.obj
 .text.BK4819_GetVoxAmp
                0x00000000       0x12 CMakeFiles/n7six.ApeX-k1.v7.6.5br2.dir/App/driver/bk4829.c.obj
 .text.BK4819_SetScrambleFrequencyControlWord
                0x00000000       0x1c CMakeFiles/n7six.ApeX-k1.v7.6.5br2.dir/App/driver/bk4829.c.obj
 .text          0x00000000        0x0 CMakeFiles/n7six.ApeX-k1.v7.6.5br2.dir/App/driver/py25q16.c.obj
 .data          0x00000000        0x0 CMakeFiles/n7six.ApeX-k1.v7.6.5br2.dir/App/driver/py25q16.c.obj
 .bss           0x00000000        0x0 CMakeFiles/n7six.ApeX-k1.v7.6.5br2.dir/App/driver/py25q16.c.obj
 .text          0x00000000        0x0 CMakeFiles/n7six.ApeX-k1.v7.6.5br2.dir/App/driver/gpio.c.obj
 .data          0x00000000        0x0 CMakeFiles/n7six.ApeX-k1.v7.6.5br2.dir/App/driver/gpio.c.obj
 .bss           0x00000000        0x0 CMakeFiles/n7six.ApeX-k1.v7.6.5br2.dir/App/driver/gpio.c.obj
 .comment       0x00000000       0x46 CMakeFiles/n7six.ApeX-k1.v7.6.5br2.dir/App/driver/gpio.c.obj
 .ARM.attributes
                0x00000000       0x2c CMakeFiles/n7six.ApeX-k1.v7.6.5br2.dir/App/driver/gpio.c.obj
 .text          0x00000000        0x0 CMakeFiles/n7six.ApeX-k1.v7.6.5br2.dir/App/driver/i2c.c.obj
 .data          0x00000000        0x0 CMakeFiles/n7six.ApeX-k1.v7.6.5br2.dir/App/driver/i2c.c.obj
 .bss           0x00000000        0x0 CMakeFiles/n7six.ApeX-k1.v7.6.5br2.dir/App/driver/i2c.c.obj
 .text          0x00000000        0x0 CMakeFiles/n7six.ApeX-k1.v7.6.5br2.dir/App/driver/keyboard.c.obj
 .data          0x00000000        0x0 CMakeFiles/n7six.ApeX-k1.v7.6.5br2.dir/App/driver/keyboard.c.obj
 .bss           0x00000000        0x0 CMakeFiles/n7six.ApeX-k1.v7.6.5br2.dir/App/driver/keyboard.c.obj
 .text          0x00000000        0x0 CMakeFiles/n7six.ApeX-k1.v7.6.5br2.dir/App/driver/st7565.c.obj
 .data          0x00000000        0x0 CMakeFiles/n7six.ApeX-k1.v7.6.5br2.dir/App/driver/st7565.c.obj
 .bss           0x00000000        0x0 CMakeFiles/n7six.ApeX-k1.v7.6.5br2.dir/App/driver/st7565.c.obj
 .text          0x00000000        0x0 CMakeFiles/n7six.ApeX-k1.v7.6.5br2.dir/App/driver/system.c.obj
 .data          0x00000000        0x0 CMakeFiles/n7six.ApeX-k1.v7.6.5br2.dir/App/driver/system.c.obj
 .bss           0x00000000        0x0 CMakeFiles/n7six.ApeX-k1.v7.6.5br2.dir/App/driver/system.c.obj
 .text.SYSTEM_ConfigureClocks
                0x00000000        0x2 CMakeFiles/n7six.ApeX-k1.v7.6.5br2.dir/App/driver/system.c.obj
 .text          0x00000000        0x0 CMakeFiles/n7six.ApeX-k1.v7.6.5br2.dir/App/driver/systick.c.obj
 .data          0x00000000        0x0 CMakeFiles/n7six.ApeX-k1.v7.6.5br2.dir/App/driver/systick.c.obj
 .bss           0x00000000        0x0 CMakeFiles/n7six.ApeX-k1.v7.6.5br2.dir/App/driver/systick.c.obj
 .text          0x00000000        0x0 CMakeFiles/n7six.ApeX-k1.v7.6.5br2.dir/App/app/action.c.obj
 .data          0x00000000        0x0 CMakeFiles/n7six.ApeX-k1.v7.6.5br2.dir/App/app/action.c.obj
 .bss           0x00000000        0x0 CMakeFiles/n7six.ApeX-k1.v7.6.5br2.dir/App/app/action.c.obj
 .text          0x00000000        0x0 CMakeFiles/n7six.ApeX-k1.v7.6.5br2.dir/App/app/app.c.obj
 .data          0x00000000        0x0 CMakeFiles/n7six.ApeX-k1.v7.6.5br2.dir/App/app/app.c.obj
 .bss           0x00000000        0x0 CMakeFiles/n7six.ApeX-k1.v7.6.5br2.dir/App/app/app.c.obj
 .text          0x00000000        0x0 CMakeFiles/n7six.ApeX-k1.v7.6.5br2.dir/App/app/chFrScanner.c.obj
 .data          0x00000000        0x0 CMakeFiles/n7six.ApeX-k1.v7.6.5br2.dir/App/app/chFrScanner.c.obj
 .bss           0x00000000        0x0 CMakeFiles/n7six.ApeX-k1.v7.6.5br2.dir/App/app/chFrScanner.c.obj
 .text          0x00000000        0x0 CMakeFiles/n7six.ApeX-k1.v7.6.5br2.dir/App/app/common.c.obj
 .data          0x00000000        0x0 CMakeFiles/n7six.ApeX-k1.v7.6.5br2.dir/App/app/common.c.obj
 .bss           0x00000000        0x0 CMakeFiles/n7six.ApeX-k1.v7.6.5br2.dir/App/app/common.c.obj
 .text          0x00000000        0x0 CMakeFiles/n7six.ApeX-k1.v7.6.5br2.dir/App/app/dtmf.c.obj
 .data          0x00000000        0x0 CMakeFiles/n7six.ApeX-k1.v7.6.5br2.dir/App/app/dtmf.c.obj
 .bss           0x00000000        0x0 CMakeFiles/n7six.ApeX-k1.v7.6.5br2.dir/App/app/dtmf.c.obj
 .text          0x00000000        0x0 CMakeFiles/n7six.ApeX-k1.v7.6.5br2.dir/App/app/events.c.obj
 .data          0x00000000        0x0 CMakeFiles/n7six.ApeX-k1.v7.6.5br2.dir/App/app/events.c.obj
 .bss           0x00000000        0x0 CMakeFiles/n7six.ApeX-k1.v7.6.5br2.dir/App/app/events.c.obj
 .text.APP_UnsubscribeEvent
                0x00000000       0x54 CMakeFiles/n7six.ApeX-k1.v7.6.5br2.dir/App/app/events.c.obj
 .text.APP_RaiseEvent
                0x00000000       0x38 CMakeFiles/n7six.ApeX-k1.v7.6.5br2.dir/App/app/events.c.obj
 .text          0x00000000        0x0 CMakeFiles/n7six.ApeX-k1.v7.6.5br2.dir/App/app/events_handlers.c.obj
 .data          0x00000000        0x0 CMakeFiles/n7six.ApeX-k1.v7.6.5br2.dir/App/app/events_handlers.c.obj
 .bss           0x00000000        0x0 CMakeFiles/n7six.ApeX-k1.v7.6.5br2.dir/App/app/events_handlers.c.obj
 .text          0x00000000        0x0 CMakeFiles/n7six.ApeX-k1.v7.6.5br2.dir/App/app/generic.c.obj
 .data          0x00000000        0x0 CMakeFiles/n7six.ApeX-k1.v7.6.5br2.dir/App/app/generic.c.obj
 .bss           0x00000000        0x0 CMakeFiles/n7six.ApeX-k1.v7.6.5br2.dir/App/app/generic.c.obj
 .text          0x00000000        0x0 CMakeFiles/n7six.ApeX-k1.v7.6.5br2.dir/App/app/main.c.obj
 .data          0x00000000        0x0 CMakeFiles/n7six.ApeX-k1.v7.6.5br2.dir/App/app/main.c.obj
 .bss           0x00000000        0x0 CMakeFiles/n7six.ApeX-k1.v7.6.5br2.dir/App/app/main.c.obj
 .text          0x00000000        0x0 CMakeFiles/n7six.ApeX-k1.v7.6.5br2.dir/App/app/menu.c.obj
 .data          0x00000000        0x0 CMakeFiles/n7six.ApeX-k1.v7.6.5br2.dir/App/app/menu.c.obj
 .bss           0x00000000        0x0 CMakeFiles/n7six.ApeX-k1.v7.6.5br2.dir/App/app/menu.c.obj
 .text          0x00000000        0x0 CMakeFiles/n7six.ApeX-k1.v7.6.5br2.dir/App/app/scanner.c.obj
 .data          0x00000000        0x0 CMakeFiles/n7six.ApeX-k1.v7.6.5br2.dir/App/app/scanner.c.obj
 .bss           0x00000000        0x0 CMakeFiles/n7six.ApeX-k1.v7.6.5br2.dir/App/app/scanner.c.obj
 .text          0x00000000        0x0 CMakeFiles/n7six.ApeX-k1.v7.6.5br2.dir/App/audio.c.obj
 .data          0x00000000        0x0 CMakeFiles/n7six.ApeX-k1.v7.6.5br2.dir/App/audio.c.obj
 .bss           0x00000000        0x0 CMakeFiles/n7six.ApeX-k1.v7.6.5br2.dir/App/audio.c.obj
 .text          0x00000000        0x0 CMakeFiles/n7six.ApeX-k1.v7.6.5br2.dir/App/bitmaps.c.obj
 .data          0x00000000        0x0 CMakeFiles/n7six.ApeX-k1.v7.6.5br2.dir/App/bitmaps.c.obj
 .bss           0x00000000        0x0 CMakeFiles/n7six.ApeX-k1.v7.6.5br2.dir/App/bitmaps.c.obj
 .rodata.BITMAP_USB_C
                0x00000000        0x9 CMakeFiles/n7six.ApeX-k1.v7.6.5br2.dir/App/bitmaps.c.obj
 .text          0x00000000        0x0 CMakeFiles/n7six.ApeX-k1.v7.6.5br2.dir/App/board.c.obj
 .data          0x00000000        0x0 CMakeFiles/n7six.ApeX-k1.v7.6.5br2.dir/App/board.c.obj
 .bss           0x00000000        0x0 CMakeFiles/n7six.ApeX-k1.v7.6.5br2.dir/App/board.c.obj
 .text          0x00000000        0x0 CMakeFiles/n7six.ApeX-k1.v7.6.5br2.dir/App/dcs.c.obj
 .data          0x00000000        0x0 CMakeFiles/n7six.ApeX-k1.v7.6.5br2.dir/App/dcs.c.obj
 .bss           0x00000000        0x0 CMakeFiles/n7six.ApeX-k1.v7.6.5br2.dir/App/dcs.c.obj
 .text          0x00000000        0x0 CMakeFiles/n7six.ApeX-k1.v7.6.5br2.dir/App/font.c.obj
 .data          0x00000000        0x0 CMakeFiles/n7six.ApeX-k1.v7.6.5br2.dir/App/font.c.obj
 .bss           0x00000000        0x0 CMakeFiles/n7six.ApeX-k1.v7.6.5br2.dir/App/font.c.obj
 .text          0x00000000        0x0 CMakeFiles/n7six.ApeX-k1.v7.6.5br2.dir/App/frequencies.c.obj
 .data          0x00000000        0x0 CMakeFiles/n7six.ApeX-k1.v7.6.5br2.dir/App/frequencies.c.obj
 .bss           0x00000000        0x0 CMakeFiles/n7six.ApeX-k1.v7.6.5br2.dir/App/frequencies.c.obj
 .text          0x00000000        0x0 CMakeFiles/n7six.ApeX-k1.v7.6.5br2.dir/App/functions.c.obj
 .data          0x00000000        0x0 CMakeFiles/n7six.ApeX-k1.v7.6.5br2.dir/App/functions.c.obj
 .bss           0x00000000        0x0 CMakeFiles/n7six.ApeX-k1.v7.6.5br2.dir/App/functions.c.obj
 .text          0x00000000        0x0 CMakeFiles/n7six.ApeX-k1.v7.6.5br2.dir/App/helper/battery.c.obj
 .data          0x00000000        0x0 CMakeFiles/n7six.ApeX-k1.v7.6.5br2.dir/App/helper/battery.c.obj
 .bss           0x00000000        0x0 CMakeFiles/n7six.ApeX-k1.v7.6.5br2.dir/App/helper/battery.c.obj
 .rodata.lowBatteryPeriod
                0x00000000        0x2 CMakeFiles/n7six.ApeX-k1.v7.6.5br2.dir/App/helper/battery.c.obj
 .text          0x00000000        0x0 CMakeFiles/n7six.ApeX-k1.v7.6.5br2.dir/App/helper/boot.c.obj
 .data          0x00000000        0x0 CMakeFiles/n7six.ApeX-k1.v7.6.5br2.dir/App/helper/boot.c.obj
 .bss           0x00000000        0x0 CMakeFiles/n7six.ApeX-k1.v7.6.5br2.dir/App/helper/boot.c.obj
 .text          0x00000000        0x0 CMakeFiles/n7six.ApeX-k1.v7.6.5br2.dir/App/misc.c.obj
 .data          0x00000000        0x0 CMakeFiles/n7six.ApeX-k1.v7.6.5br2.dir/App/misc.c.obj
 .bss           0x00000000        0x0 CMakeFiles/n7six.ApeX-k1.v7.6.5br2.dir/App/misc.c.obj
 .bss.gVFO_RSSI
                0x00000000        0x4 CMakeFiles/n7six.ApeX-k1.v7.6.5br2.dir/App/misc.c.obj
 .bss.gTryCount
                0x00000000        0x1 CMakeFiles/n7six.ApeX-k1.v7.6.5br2.dir/App/misc.c.obj
 .rodata.gDefaultAesKey
                0x00000000       0x10 CMakeFiles/n7six.ApeX-k1.v7.6.5br2.dir/App/misc.c.obj
 .rodata.NOAA_countdown_3_10ms
                0x00000000        0x2 CMakeFiles/n7six.ApeX-k1.v7.6.5br2.dir/App/misc.c.obj
 .rodata.NOAA_countdown_2_10ms
                0x00000000        0x2 CMakeFiles/n7six.ApeX-k1.v7.6.5br2.dir/App/misc.c.obj
 .rodata.NOAA_countdown_10ms
                0x00000000        0x2 CMakeFiles/n7six.ApeX-k1.v7.6.5br2.dir/App/misc.c.obj
 .rodata.scan_pause_delay_in_7_10ms
                0x00000000        0x2 CMakeFiles/n7six.ApeX-k1.v7.6.5br2.dir/App/misc.c.obj
 .rodata.scan_pause_delay_in_6_10ms
                0x00000000        0x2 CMakeFiles/n7six.ApeX-k1.v7.6.5br2.dir/App/misc.c.obj
 .rodata.scan_pause_delay_in_4_10ms
                0x00000000        0x2 CMakeFiles/n7six.ApeX-k1.v7.6.5br2.dir/App/misc.c.obj
 .rodata.dual_watch_count_noaa_10ms
                0x00000000        0x2 CMakeFiles/n7six.ApeX-k1.v7.6.5br2.dir/App/misc.c.obj
 .rodata.dual_watch_count_after_1_10ms
                0x00000000        0x2 CMakeFiles/n7six.ApeX-k1.v7.6.5br2.dir/App/misc.c.obj
 .text          0x00000000        0x0 CMakeFiles/n7six.ApeX-k1.v7.6.5br2.dir/App/radio.c.obj
 .data          0x00000000        0x0 CMakeFiles/n7six.ApeX-k1.v7.6.5br2.dir/App/radio.c.obj
 .bss           0x00000000        0x0 CMakeFiles/n7six.ApeX-k1.v7.6.5br2.dir/App/radio.c.obj
 .text.RADIO_PrepareCssTX
                0x00000000       0x24 CMakeFiles/n7six.ApeX-k1.v7.6.5br2.dir/App/radio.c.obj
 .text          0x00000000        0x0 CMakeFiles/n7six.ApeX-k1.v7.6.5br2.dir/App/scheduler.c.obj
 .data          0x00000000        0x0 CMakeFiles/n7six.ApeX-k1.v7.6.5br2.dir/App/scheduler.c.obj
 .bss           0x00000000        0x0 CMakeFiles/n7six.ApeX-k1.v7.6.5br2.dir/App/scheduler.c.obj
 .text          0x00000000        0x0 CMakeFiles/n7six.ApeX-k1.v7.6.5br2.dir/App/settings.c.obj
 .data          0x00000000        0x0 CMakeFiles/n7six.ApeX-k1.v7.6.5br2.dir/App/settings.c.obj
 .bss           0x00000000        0x0 CMakeFiles/n7six.ApeX-k1.v7.6.5br2.dir/App/settings.c.obj
 .text          0x00000000        0x0 CMakeFiles/n7six.ApeX-k1.v7.6.5br2.dir/App/ui/battery.c.obj
 .data          0x00000000        0x0 CMakeFiles/n7six.ApeX-k1.v7.6.5br2.dir/App/ui/battery.c.obj
 .bss           0x00000000        0x0 CMakeFiles/n7six.ApeX-k1.v7.6.5br2.dir/App/ui/battery.c.obj
 .text          0x00000000        0x0 CMakeFiles/n7six.ApeX-k1.v7.6.5br2.dir/App/ui/helper.c.obj
 .data          0x00000000        0x0 CMakeFiles/n7six.ApeX-k1.v7.6.5br2.dir/App/ui/helper.c.obj
 .bss           0x00000000        0x0 CMakeFiles/n7six.ApeX-k1.v7.6.5br2.dir/App/ui/helper.c.obj
 .text.UI_PrintStringSmallBufferBold
                0x00000000       0x10 CMakeFiles/n7six.ApeX-k1.v7.6.5br2.dir/App/ui/helper.c.obj
 .text          0x00000000        0x0 CMakeFiles/n7six.ApeX-k1.v7.6.5br2.dir/App/ui/inputbox.c.obj
 .data          0x00000000        0x0 CMakeFiles/n7six.ApeX-k1.v7.6.5br2.dir/App/ui/inputbox.c.obj
 .bss           0x00000000        0x0 CMakeFiles/n7six.ApeX-k1.v7.6.5br2.dir/App/ui/inputbox.c.obj
 .text          0x00000000        0x0 CMakeFiles/n7six.ApeX-k1.v7.6.5br2.dir/App/ui/main.c.obj
 .data          0x00000000        0x0 CMakeFiles/n7six.ApeX-k1.v7.6.5br2.dir/App/ui/main.c.obj
 .bss           0x00000000        0x0 CMakeFiles/n7six.ApeX-k1.v7.6.5br2.dir/App/ui/main.c.obj
 .text          0x00000000        0x0 CMakeFiles/n7six.ApeX-k1.v7.6.5br2.dir/App/ui/menu.c.obj
 .data          0x00000000        0x0 CMakeFiles/n7six.ApeX-k1.v7.6.5br2.dir/App/ui/menu.c.obj
 .bss           0x00000000        0x0 CMakeFiles/n7six.ApeX-k1.v7.6.5br2.dir/App/ui/menu.c.obj
 .rodata.gSubMenu_NA
                0x00000000        0x4 CMakeFiles/n7six.ApeX-k1.v7.6.5br2.dir/App/ui/menu.c.obj
 .text          0x00000000        0x0 CMakeFiles/n7six.ApeX-k1.v7.6.5br2.dir/App/ui/scanner.c.obj
 .data          0x00000000        0x0 CMakeFiles/n7six.ApeX-k1.v7.6.5br2.dir/App/ui/scanner.c.obj
 .bss           0x00000000        0x0 CMakeFiles/n7six.ApeX-k1.v7.6.5br2.dir/App/ui/scanner.c.obj
 .text          0x00000000        0x0 CMakeFiles/n7six.ApeX-k1.v7.6.5br2.dir/App/ui/status.c.obj
 .data          0x00000000        0x0 CMakeFiles/n7six.ApeX-k1.v7.6.5br2.dir/App/ui/status.c.obj
 .bss           0x00000000        0x0 CMakeFiles/n7six.ApeX-k1.v7.6.5br2.dir/App/ui/status.c.obj
 .text          0x00000000        0x0 CMakeFiles/n7six.ApeX-k1.v7.6.5br2.dir/App/ui/ui.c.obj
 .data          0x00000000        0x0 CMakeFiles/n7six.ApeX-k1.v7.6.5br2.dir/App/ui/ui.c.obj
 .bss           0x00000000        0x0 CMakeFiles/n7six.ApeX-k1.v7.6.5br2.dir/App/ui/ui.c.obj
 .text          0x00000000        0x0 CMakeFiles/n7six.ApeX-k1.v7.6.5br2.dir/App/ui/welcome.c.obj
 .data          0x00000000        0x0 CMakeFiles/n7six.ApeX-k1.v7.6.5br2.dir/App/ui/welcome.c.obj
 .bss           0x00000000        0x0 CMakeFiles/n7six.ApeX-k1.v7.6.5br2.dir/App/ui/welcome.c.obj
 .text          0x00000000        0x0 CMakeFiles/n7six.ApeX-k1.v7.6.5br2.dir/App/version.c.obj
 .data          0x00000000        0x0 CMakeFiles/n7six.ApeX-k1.v7.6.5br2.dir/App/version.c.obj
 .bss           0x00000000        0x0 CMakeFiles/n7six.ApeX-k1.v7.6.5br2.dir/App/version.c.obj
 .text          0x00000000        0x0 CMakeFiles/n7six.ApeX-k1.v7.6.5br2.dir/App/main.c.obj
 .data          0x00000000        0x0 CMakeFiles/n7six.ApeX-k1.v7.6.5br2.dir/App/main.c.obj
 .bss           0x00000000        0x0 CMakeFiles/n7six.ApeX-k1.v7.6.5br2.dir/App/main.c.obj
 .text._putchar
                0x00000000       0x12 CMakeFiles/n7six.ApeX-k1.v7.6.5br2.dir/App/main.c.obj
 .text          0x00000000        0x0 CMakeFiles/n7six.ApeX-k1.v7.6.5br2.dir/App/external/printf/printf.c.obj
 .data          0x00000000        0x0 CMakeFiles/n7six.ApeX-k1.v7.6.5br2.dir/App/external/printf/printf.c.obj
 .bss           0x00000000        0x0 CMakeFiles/n7six.ApeX-k1.v7.6.5br2.dir/App/external/printf/printf.c.obj
 .text._out_char
                0x00000000        0xc CMakeFiles/n7six.ApeX-k1.v7.6.5br2.dir/App/external/printf/printf.c.obj
 .text._out_fct
                0x00000000        0xe CMakeFiles/n7six.ApeX-k1.v7.6.5br2.dir/App/external/printf/printf.c.obj
 .text.printf_  0x00000000       0x24 CMakeFiles/n7six.ApeX-k1.v7.6.5br2.dir/App/external/printf/printf.c.obj
 .text.snprintf_
                0x00000000       0x28 CMakeFiles/n7six.ApeX-k1.v7.6.5br2.dir/App/external/printf/printf.c.obj
 .text.vprintf_
                0x00000000       0x1c CMakeFiles/n7six.ApeX-k1.v7.6.5br2.dir/App/external/printf/printf.c.obj
 .text.vsnprintf_
                0x00000000       0x18 CMakeFiles/n7six.ApeX-k1.v7.6.5br2.dir/App/external/printf/printf.c.obj
 .text.fctprintf
                0x00000000       0x2c CMakeFiles/n7six.ApeX-k1.v7.6.5br2.dir/App/external/printf/printf.c.obj
 .text          0x00000000        0x0 CMakeFiles/n7six.ApeX-k1.v7.6.5br2.dir/App/driver/crc.c.obj
 .data          0x00000000        0x0 CMakeFiles/n7six.ApeX-k1.v7.6.5br2.dir/App/driver/crc.c.obj
 .bss           0x00000000        0x0 CMakeFiles/n7six.ApeX-k1.v7.6.5br2.dir/App/driver/crc.c.obj
 .text          0x00000000        0x0 CMakeFiles/n7six.ApeX-k1.v7.6.5br2.dir/App/driver/eeprom_compat.c.obj
 .data          0x00000000        0x0 CMakeFiles/n7six.ApeX-k1.v7.6.5br2.dir/App/driver/eeprom_compat.c.obj
 .bss           0x00000000        0x0 CMakeFiles/n7six.ApeX-k1.v7.6.5br2.dir/App/driver/eeprom_compat.c.obj
 .text          0x00000000        0x0 CMakeFiles/n7six.ApeX-k1.v7.6.5br2.dir/App/driver/uart.c.obj
 .data          0x00000000        0x0 CMakeFiles/n7six.ApeX-k1.v7.6.5br2.dir/App/driver/uart.c.obj
 .bss           0x00000000        0x0 CMakeFiles/n7six.ApeX-k1.v7.6.5br2.dir/App/driver/uart.c.obj
 .text.UART_LogSend
                0x00000000        0x2 CMakeFiles/n7six.ApeX-k1.v7.6.5br2.dir/App/driver/uart.c.obj
 .text          0x00000000        0x0 CMakeFiles/n7six.ApeX-k1.v7.6.5br2.dir/App/app/uart.c.obj
 .data          0x00000000        0x0 CMakeFiles/n7six.ApeX-k1.v7.6.5br2.dir/App/app/uart.c.obj
 .bss           0x00000000        0x0 CMakeFiles/n7six.ApeX-k1.v7.6.5br2.dir/App/app/uart.c.obj
 .text          0x00000000        0x0 CMakeFiles/n7six.ApeX-k1.v7.6.5br2.dir/App/driver/vcp.c.obj
 .data          0x00000000        0x0 CMakeFiles/n7six.ApeX-k1.v7.6.5br2.dir/App/driver/vcp.c.obj
 .bss           0x00000000        0x0 CMakeFiles/n7six.ApeX-k1.v7.6.5br2.dir/App/driver/vcp.c.obj
 .text          0x00000000        0x0 CMakeFiles/n7six.ApeX-k1.v7.6.5br2.dir/App/usb/usbd_cdc_if.c.obj
 .data          0x00000000        0x0 CMakeFiles/n7six.ApeX-k1.v7.6.5br2.dir/App/usb/usbd_cdc_if.c.obj
 .bss           0x00000000        0x0 CMakeFiles/n7six.ApeX-k1.v7.6.5br2.dir/App/usb/usbd_cdc_if.c.obj
 .text.cdc_acm_data_send_with_dtr
                0x00000000       0x30 CMakeFiles/n7six.ApeX-k1.v7.6.5br2.dir/App/usb/usbd_cdc_if.c.obj
 .data.dma_out_ep_idx
                0x00000000        0x1 CMakeFiles/n7six.ApeX-k1.v7.6.5br2.dir/App/usb/usbd_cdc_if.c.obj
 .data.dma_in_ep_idx
                0x00000000        0x1 CMakeFiles/n7six.ApeX-k1.v7.6.5br2.dir/App/usb/usbd_cdc_if.c.obj
 .text          0x00000000        0x0 CMakeFiles/n7six.ApeX-k1.v7.6.5br2.dir/App/driver/bk1080.c.obj
 .data          0x00000000        0x0 CMakeFiles/n7six.ApeX-k1.v7.6.5br2.dir/App/driver/bk1080.c.obj
 .bss           0x00000000        0x0 CMakeFiles/n7six.ApeX-k1.v7.6.5br2.dir/App/driver/bk1080.c.obj
 .text          0x00000000        0x0 CMakeFiles/n7six.ApeX-k1.v7.6.5br2.dir/App/app/fm.c.obj
 .data          0x00000000        0x0 CMakeFiles/n7six.ApeX-k1.v7.6.5br2.dir/App/app/fm.c.obj
 .bss           0x00000000        0x0 CMakeFiles/n7six.ApeX-k1.v7.6.5br2.dir/App/app/fm.c.obj
 .rodata.BUTTON_EVENT_LONG
                0x00000000        0x1 CMakeFiles/n7six.ApeX-k1.v7.6.5br2.dir/App/app/fm.c.obj
 .rodata.BUTTON_EVENT_SHORT
                0x00000000        0x1 CMakeFiles/n7six.ApeX-k1.v7.6.5br2.dir/App/app/fm.c.obj
 .rodata.BUTTON_EVENT_HELD
                0x00000000        0x1 CMakeFiles/n7six.ApeX-k1.v7.6.5br2.dir/App/app/fm.c.obj
 .rodata.BUTTON_EVENT_PRESSED
                0x00000000        0x1 CMakeFiles/n7six.ApeX-k1.v7.6.5br2.dir/App/app/fm.c.obj
 .rodata.BUTTON_STATE_HELD
                0x00000000        0x1 CMakeFiles/n7six.ApeX-k1.v7.6.5br2.dir/App/app/fm.c.obj
 .rodata.BUTTON_STATE_PRESSED
                0x00000000        0x1 CMakeFiles/n7six.ApeX-k1.v7.6.5br2.dir/App/app/fm.c.obj
 .text          0x00000000        0x0 CMakeFiles/n7six.ApeX-k1.v7.6.5br2.dir/App/ui/fmradio.c.obj
 .data          0x00000000        0x0 CMakeFiles/n7six.ApeX-k1.v7.6.5br2.dir/App/ui/fmradio.c.obj
 .bss           0x00000000        0x0 CMakeFiles/n7six.ApeX-k1.v7.6.5br2.dir/App/ui/fmradio.c.obj
 .text          0x00000000        0x0 CMakeFiles/n7six.ApeX-k1.v7.6.5br2.dir/App/app/aircopy.c.obj
 .data          0x00000000        0x0 CMakeFiles/n7six.ApeX-k1.v7.6.5br2.dir/App/app/aircopy.c.obj
 .bss           0x00000000        0x0 CMakeFiles/n7six.ApeX-k1.v7.6.5br2.dir/App/app/aircopy.c.obj
 .text          0x00000000        0x0 CMakeFiles/n7six.ApeX-k1.v7.6.5br2.dir/App/ui/aircopy.c.obj
 .data          0x00000000        0x0 CMakeFiles/n7six.ApeX-k1.v7.6.5br2.dir/App/ui/aircopy.c.obj
 .bss           0x00000000        0x0 CMakeFiles/n7six.ApeX-k1.v7.6.5br2.dir/App/ui/aircopy.c.obj
 .text          0x00000000        0x0 CMakeFiles/n7six.ApeX-k1.v7.6.5br2.dir/App/app/flashlight.c.obj
 .data          0x00000000        0x0 CMakeFiles/n7six.ApeX-k1.v7.6.5br2.dir/App/app/flashlight.c.obj
 .bss           0x00000000        0x0 CMakeFiles/n7six.ApeX-k1.v7.6.5br2.dir/App/app/flashlight.c.obj
 .text          0x00000000        0x0 CMakeFiles/n7six.ApeX-k1.v7.6.5br2.dir/App/app/spectrum.c.obj
 .data          0x00000000        0x0 CMakeFiles/n7six.ApeX-k1.v7.6.5br2.dir/App/app/spectrum.c.obj
 .bss           0x00000000        0x0 CMakeFiles/n7six.ApeX-k1.v7.6.5br2.dir/App/app/spectrum.c.obj
 .text.IsCenterMode
                0x00000000       0x14 CMakeFiles/n7six.ApeX-k1.v7.6.5br2.dir/App/app/spectrum.c.obj
 .text.GetBWRegValueForScan
                0x00000000       0x14 CMakeFiles/n7six.ApeX-k1.v7.6.5br2.dir/App/app/spectrum.c.obj
 .rodata.modTypeReg47Values
                0x00000000        0x3 CMakeFiles/n7six.ApeX-k1.v7.6.5br2.dir/App/app/spectrum.c.obj
 .bss.waterfallUpdateCounter
                0x00000000        0x2 CMakeFiles/n7six.ApeX-k1.v7.6.5br2.dir/App/app/spectrum.c.obj
 .rodata.scanStepBWRegValues
                0x00000000       0x18 CMakeFiles/n7six.ApeX-k1.v7.6.5br2.dir/App/app/spectrum.c.obj
 .text          0x00000000        0x0 CMakeFiles/n7six.ApeX-k1.v7.6.5br2.dir/App/app/breakout.c.obj
 .data          0x00000000        0x0 CMakeFiles/n7six.ApeX-k1.v7.6.5br2.dir/App/app/breakout.c.obj
 .bss           0x00000000        0x0 CMakeFiles/n7six.ApeX-k1.v7.6.5br2.dir/App/app/breakout.c.obj
 .text.srand_custom
                0x00000000        0xc CMakeFiles/n7six.ApeX-k1.v7.6.5br2.dir/App/app/breakout.c.obj
 .text.randInt  0x00000000       0x16 CMakeFiles/n7six.ApeX-k1.v7.6.5br2.dir/App/app/breakout.c.obj
 .rodata.BITMAP_blockEmpty
                0x00000000        0xf CMakeFiles/n7six.ApeX-k1.v7.6.5br2.dir/App/app/breakout.c.obj
 .rodata.BITMAP_blockOn
                0x00000000        0xf CMakeFiles/n7six.ApeX-k1.v7.6.5br2.dir/App/app/breakout.c.obj
 .text          0x00000000        0x0 CMakeFiles/n7six.ApeX-k1.v7.6.5br2.dir/App/screenshot.c.obj
 .data          0x00000000        0x0 CMakeFiles/n7six.ApeX-k1.v7.6.5br2.dir/App/screenshot.c.obj
 .bss           0x00000000        0x0 CMakeFiles/n7six.ApeX-k1.v7.6.5br2.dir/App/screenshot.c.obj
 .text          0x00000000        0x0 CMakeFiles/n7six.ApeX-k1.v7.6.5br2.dir/Middlewares/CherryUSB/core/usbd_core.c.obj
 .data          0x00000000        0x0 CMakeFiles/n7six.ApeX-k1.v7.6.5br2.dir/Middlewares/CherryUSB/core/usbd_core.c.obj
 .bss           0x00000000        0x0 CMakeFiles/n7six.ApeX-k1.v7.6.5br2.dir/Middlewares/CherryUSB/core/usbd_core.c.obj
 .text.usbd_event_connect_handler
                0x00000000        0xc CMakeFiles/n7six.ApeX-k1.v7.6.5br2.dir/Middlewares/CherryUSB/core/usbd_core.c.obj
 .text.usbd_event_disconnect_handler
                0x00000000        0xc CMakeFiles/n7six.ApeX-k1.v7.6.5br2.dir/Middlewares/CherryUSB/core/usbd_core.c.obj
 .text.usbd_msosv1_desc_register
                0x00000000        0xc CMakeFiles/n7six.ApeX-k1.v7.6.5br2.dir/Middlewares/CherryUSB/core/usbd_core.c.obj
 .text.usbd_msosv2_desc_register
                0x00000000        0xc CMakeFiles/n7six.ApeX-k1.v7.6.5br2.dir/Middlewares/CherryUSB/core/usbd_core.c.obj
 .text.usbd_bos_desc_register
                0x00000000        0xc CMakeFiles/n7six.ApeX-k1.v7.6.5br2.dir/Middlewares/CherryUSB/core/usbd_core.c.obj
 .text.usb_device_is_configured
                0x00000000       0x10 CMakeFiles/n7six.ApeX-k1.v7.6.5br2.dir/Middlewares/CherryUSB/core/usbd_core.c.obj
 .text.usbd_deinitialize
                0x00000000       0x20 CMakeFiles/n7six.ApeX-k1.v7.6.5br2.dir/Middlewares/CherryUSB/core/usbd_core.c.obj
 .text          0x00000000        0x0 CMakeFiles/n7six.ApeX-k1.v7.6.5br2.dir/Middlewares/CherryUSB/port/usb_dc_py32.c.obj
 .data          0x00000000        0x0 CMakeFiles/n7six.ApeX-k1.v7.6.5br2.dir/Middlewares/CherryUSB/port/usb_dc_py32.c.obj
 .bss           0x00000000        0x0 CMakeFiles/n7six.ApeX-k1.v7.6.5br2.dir/Middlewares/CherryUSB/port/usb_dc_py32.c.obj
 .text.usbd_ep0_reset_zlp_flag
                0x00000000        0xc CMakeFiles/n7six.ApeX-k1.v7.6.5br2.dir/Middlewares/CherryUSB/port/usb_dc_py32.c.obj
 .text.usb_dc_low_level_deinit
                0x00000000        0x2 CMakeFiles/n7six.ApeX-k1.v7.6.5br2.dir/Middlewares/CherryUSB/port/usb_dc_py32.c.obj
 .text.usb_dc_deinit
                0x00000000        0x4 CMakeFiles/n7six.ApeX-k1.v7.6.5br2.dir/Middlewares/CherryUSB/port/usb_dc_py32.c.obj
 .text.usbd_activateremotewakeup
                0x00000000       0x10 CMakeFiles/n7six.ApeX-k1.v7.6.5br2.dir/Middlewares/CherryUSB/port/usb_dc_py32.c.obj
 .text.usbd_deactivateremotewakeup
                0x00000000       0x10 CMakeFiles/n7six.ApeX-k1.v7.6.5br2.dir/Middlewares/CherryUSB/port/usb_dc_py32.c.obj
 .text          0x00000000        0x0 CMakeFiles/n7six.ApeX-k1.v7.6.5br2.dir/Middlewares/CherryUSB/class/cdc/usbd_cdc.c.obj
 .data          0x00000000        0x0 CMakeFiles/n7six.ApeX-k1.v7.6.5br2.dir/Middlewares/CherryUSB/class/cdc/usbd_cdc.c.obj
 .bss           0x00000000        0x0 CMakeFiles/n7six.ApeX-k1.v7.6.5br2.dir/Middlewares/CherryUSB/class/cdc/usbd_cdc.c.obj
 .text.usbd_cdc_acm_set_dtr
                0x00000000        0x2 CMakeFiles/n7six.ApeX-k1.v7.6.5br2.dir/Middlewares/CherryUSB/class/cdc/usbd_cdc.c.obj
 .rodata.str1.1
                0x00000000       0x12 CMakeFiles/n7six.ApeX-k1.v7.6.5br2.dir/Middlewares/CherryUSB/class/cdc/usbd_cdc.c.obj
 .data.parity_name
                0x00000000       0x14 CMakeFiles/n7six.ApeX-k1.v7.6.5br2.dir/Middlewares/CherryUSB/class/cdc/usbd_cdc.c.obj
 .data.stop_name
                0x00000000        0xc CMakeFiles/n7six.ApeX-k1.v7.6.5br2.dir/Middlewares/CherryUSB/class/cdc/usbd_cdc.c.obj
 .data          0x00000000        0x0 /opt/toolchain/bin/../lib/gcc/arm-none-eabi/13.3.1/thumb/v6-m/nofp/libgcc.a(_thumb1_case_sqi.o)
 .bss           0x00000000        0x0 /opt/toolchain/bin/../lib/gcc/arm-none-eabi/13.3.1/thumb/v6-m/nofp/libgcc.a(_thumb1_case_sqi.o)
 .data          0x00000000        0x0 /opt/toolchain/bin/../lib/gcc/arm-none-eabi/13.3.1/thumb/v6-m/nofp/libgcc.a(_thumb1_case_uqi.o)
 .bss           0x00000000        0x0 /opt/toolchain/bin/../lib/gcc/arm-none-eabi/13.3.1/thumb/v6-m/nofp/libgcc.a(_thumb1_case_uqi.o)
 .data          0x00000000        0x0 /opt/toolchain/bin/../lib/gcc/arm-none-eabi/13.3.1/thumb/v6-m/nofp/libgcc.a(_thumb1_case_shi.o)
 .bss           0x00000000        0x0 /opt/toolchain/bin/../lib/gcc/arm-none-eabi/13.3.1/thumb/v6-m/nofp/libgcc.a(_thumb1_case_shi.o)
 .data          0x00000000        0x0 /opt/toolchain/bin/../lib/gcc/arm-none-eabi/13.3.1/thumb/v6-m/nofp/libgcc.a(_thumb1_case_uhi.o)
 .bss           0x00000000        0x0 /opt/toolchain/bin/../lib/gcc/arm-none-eabi/13.3.1/thumb/v6-m/nofp/libgcc.a(_thumb1_case_uhi.o)
 .data          0x00000000        0x0 /opt/toolchain/bin/../lib/gcc/arm-none-eabi/13.3.1/thumb/v6-m/nofp/libgcc.a(_udivsi3.o)
 .bss           0x00000000        0x0 /opt/toolchain/bin/../lib/gcc/arm-none-eabi/13.3.1/thumb/v6-m/nofp/libgcc.a(_udivsi3.o)
 .data          0x00000000        0x0 /opt/toolchain/bin/../lib/gcc/arm-none-eabi/13.3.1/thumb/v6-m/nofp/libgcc.a(_divsi3.o)
 .bss           0x00000000        0x0 /opt/toolchain/bin/../lib/gcc/arm-none-eabi/13.3.1/thumb/v6-m/nofp/libgcc.a(_divsi3.o)
 .data          0x00000000        0x0 /opt/toolchain/bin/../lib/gcc/arm-none-eabi/13.3.1/thumb/v6-m/nofp/libgcc.a(_dvmd_tls.o)
 .bss           0x00000000        0x0 /opt/toolchain/bin/../lib/gcc/arm-none-eabi/13.3.1/thumb/v6-m/nofp/libgcc.a(_dvmd_tls.o)
 .data          0x00000000        0x0 /opt/toolchain/bin/../lib/gcc/arm-none-eabi/13.3.1/thumb/v6-m/nofp/libgcc.a(_clzsi2.o)
 .bss           0x00000000        0x0 /opt/toolchain/bin/../lib/gcc/arm-none-eabi/13.3.1/thumb/v6-m/nofp/libgcc.a(_clzsi2.o)
 .text          0x00000000        0x0 /opt/toolchain/bin/../lib/gcc/arm-none-eabi/13.3.1/thumb/v6-m/nofp/libgcc.a(_muldi3.o)
 .data          0x00000000        0x0 /opt/toolchain/bin/../lib/gcc/arm-none-eabi/13.3.1/thumb/v6-m/nofp/libgcc.a(_muldi3.o)
 .bss           0x00000000        0x0 /opt/toolchain/bin/../lib/gcc/arm-none-eabi/13.3.1/thumb/v6-m/nofp/libgcc.a(_muldi3.o)
 .text          0x00000000        0x0 /opt/toolchain/bin/../lib/gcc/arm-none-eabi/13.3.1/../../../../arm-none-eabi/lib/thumb/v6-m/nofp/libg_nano.a(libc_a-exit.o)
 .data          0x00000000        0x0 /opt/toolchain/bin/../lib/gcc/arm-none-eabi/13.3.1/../../../../arm-none-eabi/lib/thumb/v6-m/nofp/libg_nano.a(libc_a-exit.o)
 .bss           0x00000000        0x0 /opt/toolchain/bin/../lib/gcc/arm-none-eabi/13.3.1/../../../../arm-none-eabi/lib/thumb/v6-m/nofp/libg_nano.a(libc_a-exit.o)
 .text.exit     0x00000000       0x28 /opt/toolchain/bin/../lib/gcc/arm-none-eabi/13.3.1/../../../../arm-none-eabi/lib/thumb/v6-m/nofp/libg_nano.a(libc_a-exit.o)
 .debug_frame   0x00000000       0x28 /opt/toolchain/bin/../lib/gcc/arm-none-eabi/13.3.1/../../../../arm-none-eabi/lib/thumb/v6-m/nofp/libg_nano.a(libc_a-exit.o)
 .ARM.attributes
                0x00000000       0x2c /opt/toolchain/bin/../lib/gcc/arm-none-eabi/13.3.1/../../../../arm-none-eabi/lib/thumb/v6-m/nofp/libg_nano.a(libc_a-exit.o)
 .text          0x00000000        0x0 /opt/toolchain/bin/../lib/gcc/arm-none-eabi/13.3.1/../../../../arm-none-eabi/lib/thumb/v6-m/nofp/libg_nano.a(libc_a-init.o)
 .data          0x00000000        0x0 /opt/toolchain/bin/../lib/gcc/arm-none-eabi/13.3.1/../../../../arm-none-eabi/lib/thumb/v6-m/nofp/libg_nano.a(libc_a-init.o)
 .bss           0x00000000        0x0 /opt/toolchain/bin/../lib/gcc/arm-none-eabi/13.3.1/../../../../arm-none-eabi/lib/thumb/v6-m/nofp/libg_nano.a(libc_a-init.o)
 .text          0x00000000        0x0 /opt/toolchain/bin/../lib/gcc/arm-none-eabi/13.3.1/../../../../arm-none-eabi/lib/thumb/v6-m/nofp/libg_nano.a(libc_a-memmove.o)
 .data          0x00000000        0x0 /opt/toolchain/bin/../lib/gcc/arm-none-eabi/13.3.1/../../../../arm-none-eabi/lib/thumb/v6-m/nofp/libg_nano.a(libc_a-memmove.o)
 .bss           0x00000000        0x0 /opt/toolchain/bin/../lib/gcc/arm-none-eabi/13.3.1/../../../../arm-none-eabi/lib/thumb/v6-m/nofp/libg_nano.a(libc_a-memmove.o)
 .text          0x00000000        0x0 /opt/toolchain/bin/../lib/gcc/arm-none-eabi/13.3.1/../../../../arm-none-eabi/lib/thumb/v6-m/nofp/libg_nano.a(libc_a-memset.o)
 .data          0x00000000        0x0 /opt/toolchain/bin/../lib/gcc/arm-none-eabi/13.3.1/../../../../arm-none-eabi/lib/thumb/v6-m/nofp/libg_nano.a(libc_a-memset.o)
 .bss           0x00000000        0x0 /opt/toolchain/bin/../lib/gcc/arm-none-eabi/13.3.1/../../../../arm-none-eabi/lib/thumb/v6-m/nofp/libg_nano.a(libc_a-memset.o)
 .text          0x00000000        0x0 /opt/toolchain/bin/../lib/gcc/arm-none-eabi/13.3.1/../../../../arm-none-eabi/lib/thumb/v6-m/nofp/libg_nano.a(libc_a-memcpy-stub.o)
 .data          0x00000000        0x0 /opt/toolchain/bin/../lib/gcc/arm-none-eabi/13.3.1/../../../../arm-none-eabi/lib/thumb/v6-m/nofp/libg_nano.a(libc_a-memcpy-stub.o)
 .bss           0x00000000        0x0 /opt/toolchain/bin/../lib/gcc/arm-none-eabi/13.3.1/../../../../arm-none-eabi/lib/thumb/v6-m/nofp/libg_nano.a(libc_a-memcpy-stub.o)
 .data          0x00000000        0x0 /opt/toolchain/bin/../lib/gcc/arm-none-eabi/13.3.1/../../../../arm-none-eabi/lib/thumb/v6-m/nofp/libg_nano.a(libc_a-strlen.o)
 .bss           0x00000000        0x0 /opt/toolchain/bin/../lib/gcc/arm-none-eabi/13.3.1/../../../../arm-none-eabi/lib/thumb/v6-m/nofp/libg_nano.a(libc_a-strlen.o)
 .text          0x00000000        0x0 /opt/toolchain/bin/../lib/gcc/arm-none-eabi/13.3.1/../../../../arm-none-eabi/lib/thumb/v6-m/nofp/libg_nano.a(libc_a-findfp.o)
 .data          0x00000000        0x0 /opt/toolchain/bin/../lib/gcc/arm-none-eabi/13.3.1/../../../../arm-none-eabi/lib/thumb/v6-m/nofp/libg_nano.a(libc_a-findfp.o)
 .bss           0x00000000        0x0 /opt/toolchain/bin/../lib/gcc/arm-none-eabi/13.3.1/../../../../arm-none-eabi/lib/thumb/v6-m/nofp/libg_nano.a(libc_a-findfp.o)
 .text.std      0x00000000       0x6c /opt/toolchain/bin/../lib/gcc/arm-none-eabi/13.3.1/../../../../arm-none-eabi/lib/thumb/v6-m/nofp/libg_nano.a(libc_a-findfp.o)
 .text.stdio_exit_handler
                0x00000000       0x1c /opt/toolchain/bin/../lib/gcc/arm-none-eabi/13.3.1/../../../../arm-none-eabi/lib/thumb/v6-m/nofp/libg_nano.a(libc_a-findfp.o)
 .text.cleanup_stdio
                0x00000000       0x3c /opt/toolchain/bin/../lib/gcc/arm-none-eabi/13.3.1/../../../../arm-none-eabi/lib/thumb/v6-m/nofp/libg_nano.a(libc_a-findfp.o)
 .text.__fp_lock
                0x00000000       0x18 /opt/toolchain/bin/../lib/gcc/arm-none-eabi/13.3.1/../../../../arm-none-eabi/lib/thumb/v6-m/nofp/libg_nano.a(libc_a-findfp.o)
 .text.__fp_unlock
                0x00000000       0x18 /opt/toolchain/bin/../lib/gcc/arm-none-eabi/13.3.1/../../../../arm-none-eabi/lib/thumb/v6-m/nofp/libg_nano.a(libc_a-findfp.o)
 .text.global_stdio_init.part.0
                0x00000000       0x3c /opt/toolchain/bin/../lib/gcc/arm-none-eabi/13.3.1/../../../../arm-none-eabi/lib/thumb/v6-m/nofp/libg_nano.a(libc_a-findfp.o)
 .text.__sfp_lock_acquire
                0x00000000       0x10 /opt/toolchain/bin/../lib/gcc/arm-none-eabi/13.3.1/../../../../arm-none-eabi/lib/thumb/v6-m/nofp/libg_nano.a(libc_a-findfp.o)
 .text.__sfp_lock_release
                0x00000000       0x10 /opt/toolchain/bin/../lib/gcc/arm-none-eabi/13.3.1/../../../../arm-none-eabi/lib/thumb/v6-m/nofp/libg_nano.a(libc_a-findfp.o)
 .text.__sfp    0x00000000       0xa8 /opt/toolchain/bin/../lib/gcc/arm-none-eabi/13.3.1/../../../../arm-none-eabi/lib/thumb/v6-m/nofp/libg_nano.a(libc_a-findfp.o)
 .text.__sinit  0x00000000       0x30 /opt/toolchain/bin/../lib/gcc/arm-none-eabi/13.3.1/../../../../arm-none-eabi/lib/thumb/v6-m/nofp/libg_nano.a(libc_a-findfp.o)
 .text.__fp_lock_all
                0x00000000       0x1c /opt/toolchain/bin/../lib/gcc/arm-none-eabi/13.3.1/../../../../arm-none-eabi/lib/thumb/v6-m/nofp/libg_nano.a(libc_a-findfp.o)
 .text.__fp_unlock_all
                0x00000000       0x1c /opt/toolchain/bin/../lib/gcc/arm-none-eabi/13.3.1/../../../../arm-none-eabi/lib/thumb/v6-m/nofp/libg_nano.a(libc_a-findfp.o)
 .data.__sglue  0x00000000        0xc /opt/toolchain/bin/../lib/gcc/arm-none-eabi/13.3.1/../../../../arm-none-eabi/lib/thumb/v6-m/nofp/libg_nano.a(libc_a-findfp.o)
 .bss.__sf      0x00000000      0x138 /opt/toolchain/bin/../lib/gcc/arm-none-eabi/13.3.1/../../../../arm-none-eabi/lib/thumb/v6-m/nofp/libg_nano.a(libc_a-findfp.o)
 .bss.__stdio_exit_handler
                0x00000000        0x4 /opt/toolchain/bin/../lib/gcc/arm-none-eabi/13.3.1/../../../../arm-none-eabi/lib/thumb/v6-m/nofp/libg_nano.a(libc_a-findfp.o)
 .debug_frame   0x00000000      0x138 /opt/toolchain/bin/../lib/gcc/arm-none-eabi/13.3.1/../../../../arm-none-eabi/lib/thumb/v6-m/nofp/libg_nano.a(libc_a-findfp.o)
 .ARM.attributes
                0x00000000       0x2c /opt/toolchain/bin/../lib/gcc/arm-none-eabi/13.3.1/../../../../arm-none-eabi/lib/thumb/v6-m/nofp/libg_nano.a(libc_a-findfp.o)
 .text          0x00000000        0x0 /opt/toolchain/bin/../lib/gcc/arm-none-eabi/13.3.1/../../../../arm-none-eabi/lib/thumb/v6-m/nofp/libg_nano.a(libc_a-strncpy.o)
 .data          0x00000000        0x0 /opt/toolchain/bin/../lib/gcc/arm-none-eabi/13.3.1/../../../../arm-none-eabi/lib/thumb/v6-m/nofp/libg_nano.a(libc_a-strncpy.o)
 .bss           0x00000000        0x0 /opt/toolchain/bin/../lib/gcc/arm-none-eabi/13.3.1/../../../../arm-none-eabi/lib/thumb/v6-m/nofp/libg_nano.a(libc_a-strncpy.o)
 .text          0x00000000        0x0 /opt/toolchain/bin/../lib/gcc/arm-none-eabi/13.3.1/../../../../arm-none-eabi/lib/thumb/v6-m/nofp/libg_nano.a(libc_a-strnlen.o)
 .data          0x00000000        0x0 /opt/toolchain/bin/../lib/gcc/arm-none-eabi/13.3.1/../../../../arm-none-eabi/lib/thumb/v6-m/nofp/libg_nano.a(libc_a-strnlen.o)
 .bss           0x00000000        0x0 /opt/toolchain/bin/../lib/gcc/arm-none-eabi/13.3.1/../../../../arm-none-eabi/lib/thumb/v6-m/nofp/libg_nano.a(libc_a-strnlen.o)
 .text          0x00000000        0x0 /opt/toolchain/bin/../lib/gcc/arm-none-eabi/13.3.1/../../../../arm-none-eabi/lib/thumb/v6-m/nofp/libg_nano.a(libc_a-stdio.o)
 .data          0x00000000        0x0 /opt/toolchain/bin/../lib/gcc/arm-none-eabi/13.3.1/../../../../arm-none-eabi/lib/thumb/v6-m/nofp/libg_nano.a(libc_a-stdio.o)
 .bss           0x00000000        0x0 /opt/toolchain/bin/../lib/gcc/arm-none-eabi/13.3.1/../../../../arm-none-eabi/lib/thumb/v6-m/nofp/libg_nano.a(libc_a-stdio.o)
 .text.__sread  0x00000000       0x28 /opt/toolchain/bin/../lib/gcc/arm-none-eabi/13.3.1/../../../../arm-none-eabi/lib/thumb/v6-m/nofp/libg_nano.a(libc_a-stdio.o)
 .text.__seofread
                0x00000000        0x4 /opt/toolchain/bin/../lib/gcc/arm-none-eabi/13.3.1/../../../../arm-none-eabi/lib/thumb/v6-m/nofp/libg_nano.a(libc_a-stdio.o)
 .text.__swrite
                0x00000000       0x38 /opt/toolchain/bin/../lib/gcc/arm-none-eabi/13.3.1/../../../../arm-none-eabi/lib/thumb/v6-m/nofp/libg_nano.a(libc_a-stdio.o)
 .text.__sseek  0x00000000       0x2c /opt/toolchain/bin/../lib/gcc/arm-none-eabi/13.3.1/../../../../arm-none-eabi/lib/thumb/v6-m/nofp/libg_nano.a(libc_a-stdio.o)
 .text.__sclose
                0x00000000        0xc /opt/toolchain/bin/../lib/gcc/arm-none-eabi/13.3.1/../../../../arm-none-eabi/lib/thumb/v6-m/nofp/libg_nano.a(libc_a-stdio.o)
 .debug_frame   0x00000000       0x90 /opt/toolchain/bin/../lib/gcc/arm-none-eabi/13.3.1/../../../../arm-none-eabi/lib/thumb/v6-m/nofp/libg_nano.a(libc_a-stdio.o)
 .ARM.attributes
                0x00000000       0x2c /opt/toolchain/bin/../lib/gcc/arm-none-eabi/13.3.1/../../../../arm-none-eabi/lib/thumb/v6-m/nofp/libg_nano.a(libc_a-stdio.o)
 .text          0x00000000        0x0 /opt/toolchain/bin/../lib/gcc/arm-none-eabi/13.3.1/../../../../arm-none-eabi/lib/thumb/v6-m/nofp/libg_nano.a(libc_a-lseekr.o)
 .data          0x00000000        0x0 /opt/toolchain/bin/../lib/gcc/arm-none-eabi/13.3.1/../../../../arm-none-eabi/lib/thumb/v6-m/nofp/libg_nano.a(libc_a-lseekr.o)
 .bss           0x00000000        0x0 /opt/toolchain/bin/../lib/gcc/arm-none-eabi/13.3.1/../../../../arm-none-eabi/lib/thumb/v6-m/nofp/libg_nano.a(libc_a-lseekr.o)
 .text._lseek_r
                0x00000000       0x28 /opt/toolchain/bin/../lib/gcc/arm-none-eabi/13.3.1/../../../../arm-none-eabi/lib/thumb/v6-m/nofp/libg_nano.a(libc_a-lseekr.o)
 .debug_frame   0x00000000       0x2c /opt/toolchain/bin/../lib/gcc/arm-none-eabi/13.3.1/../../../../arm-none-eabi/lib/thumb/v6-m/nofp/libg_nano.a(libc_a-lseekr.o)
 .ARM.attributes
                0x00000000       0x2c /opt/toolchain/bin/../lib/gcc/arm-none-eabi/13.3.1/../../../../arm-none-eabi/lib/thumb/v6-m/nofp/libg_nano.a(libc_a-lseekr.o)
 .text          0x00000000        0x0 /opt/toolchain/bin/../lib/gcc/arm-none-eabi/13.3.1/../../../../arm-none-eabi/lib/thumb/v6-m/nofp/libg_nano.a(libc_a-readr.o)
 .data          0x00000000        0x0 /opt/toolchain/bin/../lib/gcc/arm-none-eabi/13.3.1/../../../../arm-none-eabi/lib/thumb/v6-m/nofp/libg_nano.a(libc_a-readr.o)
 .bss           0x00000000        0x0 /opt/toolchain/bin/../lib/gcc/arm-none-eabi/13.3.1/../../../../arm-none-eabi/lib/thumb/v6-m/nofp/libg_nano.a(libc_a-readr.o)
 .text._read_r  0x00000000       0x28 /opt/toolchain/bin/../lib/gcc/arm-none-eabi/13.3.1/../../../../arm-none-eabi/lib/thumb/v6-m/nofp/libg_nano.a(libc_a-readr.o)
 .debug_frame   0x00000000       0x2c /opt/toolchain/bin/../lib/gcc/arm-none-eabi/13.3.1/../../../../arm-none-eabi/lib/thumb/v6-m/nofp/libg_nano.a(libc_a-readr.o)
 .ARM.attributes
                0x00000000       0x2c /opt/toolchain/bin/../lib/gcc/arm-none-eabi/13.3.1/../../../../arm-none-eabi/lib/thumb/v6-m/nofp/libg_nano.a(libc_a-readr.o)
 .text          0x00000000        0x0 /opt/toolchain/bin/../lib/gcc/arm-none-eabi/13.3.1/../../../../arm-none-eabi/lib/thumb/v6-m/nofp/libg_nano.a(libc_a-fwalk.o)
 .data          0x00000000        0x0 /opt/toolchain/bin/../lib/gcc/arm-none-eabi/13.3.1/../../../../arm-none-eabi/lib/thumb/v6-m/nofp/libg_nano.a(libc_a-fwalk.o)
 .bss           0x00000000        0x0 /opt/toolchain/bin/../lib/gcc/arm-none-eabi/13.3.1/../../../../arm-none-eabi/lib/thumb/v6-m/nofp/libg_nano.a(libc_a-fwalk.o)
 .text._fwalk_sglue
                0x00000000       0x38 /opt/toolchain/bin/../lib/gcc/arm-none-eabi/13.3.1/../../../../arm-none-eabi/lib/thumb/v6-m/nofp/libg_nano.a(libc_a-fwalk.o)
 .debug_frame   0x00000000       0x34 /opt/toolchain/bin/../lib/gcc/arm-none-eabi/13.3.1/../../../../arm-none-eabi/lib/thumb/v6-m/nofp/libg_nano.a(libc_a-fwalk.o)
 .ARM.attributes
                0x00000000       0x2c /opt/toolchain/bin/../lib/gcc/arm-none-eabi/13.3.1/../../../../arm-none-eabi/lib/thumb/v6-m/nofp/libg_nano.a(libc_a-fwalk.o)
 .text          0x00000000        0x0 /opt/toolchain/bin/../lib/gcc/arm-none-eabi/13.3.1/../../../../arm-none-eabi/lib/thumb/v6-m/nofp/libg_nano.a(libc_a-memcmp.o)
 .data          0x00000000        0x0 /opt/toolchain/bin/../lib/gcc/arm-none-eabi/13.3.1/../../../../arm-none-eabi/lib/thumb/v6-m/nofp/libg_nano.a(libc_a-memcmp.o)
 .bss           0x00000000        0x0 /opt/toolchain/bin/../lib/gcc/arm-none-eabi/13.3.1/../../../../arm-none-eabi/lib/thumb/v6-m/nofp/libg_nano.a(libc_a-memcmp.o)
 .text          0x00000000        0x0 /opt/toolchain/bin/../lib/gcc/arm-none-eabi/13.3.1/../../../../arm-none-eabi/lib/thumb/v6-m/nofp/libg_nano.a(libc_a-writer.o)
 .data          0x00000000        0x0 /opt/toolchain/bin/../lib/gcc/arm-none-eabi/13.3.1/../../../../arm-none-eabi/lib/thumb/v6-m/nofp/libg_nano.a(libc_a-writer.o)
 .bss           0x00000000        0x0 /opt/toolchain/bin/../lib/gcc/arm-none-eabi/13.3.1/../../../../arm-none-eabi/lib/thumb/v6-m/nofp/libg_nano.a(libc_a-writer.o)
 .text._write_r
                0x00000000       0x28 /opt/toolchain/bin/../lib/gcc/arm-none-eabi/13.3.1/../../../../arm-none-eabi/lib/thumb/v6-m/nofp/libg_nano.a(libc_a-writer.o)
 .debug_frame   0x00000000       0x2c /opt/toolchain/bin/../lib/gcc/arm-none-eabi/13.3.1/../../../../arm-none-eabi/lib/thumb/v6-m/nofp/libg_nano.a(libc_a-writer.o)
 .ARM.attributes
                0x00000000       0x2c /opt/toolchain/bin/../lib/gcc/arm-none-eabi/13.3.1/../../../../arm-none-eabi/lib/thumb/v6-m/nofp/libg_nano.a(libc_a-writer.o)
 .text          0x00000000        0x0 /opt/toolchain/bin/../lib/gcc/arm-none-eabi/13.3.1/../../../../arm-none-eabi/lib/thumb/v6-m/nofp/libg_nano.a(libc_a-lock.o)
 .data          0x00000000        0x0 /opt/toolchain/bin/../lib/gcc/arm-none-eabi/13.3.1/../../../../arm-none-eabi/lib/thumb/v6-m/nofp/libg_nano.a(libc_a-lock.o)
 .bss           0x00000000        0x0 /opt/toolchain/bin/../lib/gcc/arm-none-eabi/13.3.1/../../../../arm-none-eabi/lib/thumb/v6-m/nofp/libg_nano.a(libc_a-lock.o)
 .text.__retarget_lock_init
                0x00000000        0x2 /opt/toolchain/bin/../lib/gcc/arm-none-eabi/13.3.1/../../../../arm-none-eabi/lib/thumb/v6-m/nofp/libg_nano.a(libc_a-lock.o)
 .text.__retarget_lock_init_recursive
                0x00000000        0x2 /opt/toolchain/bin/../lib/gcc/arm-none-eabi/13.3.1/../../../../arm-none-eabi/lib/thumb/v6-m/nofp/libg_nano.a(libc_a-lock.o)
 .text.__retarget_lock_close
                0x00000000        0x2 /opt/toolchain/bin/../lib/gcc/arm-none-eabi/13.3.1/../../../../arm-none-eabi/lib/thumb/v6-m/nofp/libg_nano.a(libc_a-lock.o)
 .text.__retarget_lock_close_recursive
                0x00000000        0x2 /opt/toolchain/bin/../lib/gcc/arm-none-eabi/13.3.1/../../../../arm-none-eabi/lib/thumb/v6-m/nofp/libg_nano.a(libc_a-lock.o)
 .text.__retarget_lock_acquire
                0x00000000        0x2 /opt/toolchain/bin/../lib/gcc/arm-none-eabi/13.3.1/../../../../arm-none-eabi/lib/thumb/v6-m/nofp/libg_nano.a(libc_a-lock.o)
 .text.__retarget_lock_acquire_recursive
                0x00000000        0x2 /opt/toolchain/bin/../lib/gcc/arm-none-eabi/13.3.1/../../../../arm-none-eabi/lib/thumb/v6-m/nofp/libg_nano.a(libc_a-lock.o)
 .text.__retarget_lock_try_acquire
                0x00000000        0x4 /opt/toolchain/bin/../lib/gcc/arm-none-eabi/13.3.1/../../../../arm-none-eabi/lib/thumb/v6-m/nofp/libg_nano.a(libc_a-lock.o)
 .text.__retarget_lock_try_acquire_recursive
                0x00000000        0x4 /opt/toolchain/bin/../lib/gcc/arm-none-eabi/13.3.1/../../../../arm-none-eabi/lib/thumb/v6-m/nofp/libg_nano.a(libc_a-lock.o)
 .text.__retarget_lock_release
                0x00000000        0x2 /opt/toolchain/bin/../lib/gcc/arm-none-eabi/13.3.1/../../../../arm-none-eabi/lib/thumb/v6-m/nofp/libg_nano.a(libc_a-lock.o)
 .text.__retarget_lock_release_recursive
                0x00000000        0x2 /opt/toolchain/bin/../lib/gcc/arm-none-eabi/13.3.1/../../../../arm-none-eabi/lib/thumb/v6-m/nofp/libg_nano.a(libc_a-lock.o)
 .bss.__lock___arc4random_mutex
                0x00000000        0x1 /opt/toolchain/bin/../lib/gcc/arm-none-eabi/13.3.1/../../../../arm-none-eabi/lib/thumb/v6-m/nofp/libg_nano.a(libc_a-lock.o)
 .bss.__lock___dd_hash_mutex
                0x00000000        0x1 /opt/toolchain/bin/../lib/gcc/arm-none-eabi/13.3.1/../../../../arm-none-eabi/lib/thumb/v6-m/nofp/libg_nano.a(libc_a-lock.o)
 .bss.__lock___tz_mutex
                0x00000000        0x1 /opt/toolchain/bin/../lib/gcc/arm-none-eabi/13.3.1/../../../../arm-none-eabi/lib/thumb/v6-m/nofp/libg_nano.a(libc_a-lock.o)
 .bss.__lock___env_recursive_mutex
                0x00000000        0x1 /opt/toolchain/bin/../lib/gcc/arm-none-eabi/13.3.1/../../../../arm-none-eabi/lib/thumb/v6-m/nofp/libg_nano.a(libc_a-lock.o)
 .bss.__lock___malloc_recursive_mutex
                0x00000000        0x1 /opt/toolchain/bin/../lib/gcc/arm-none-eabi/13.3.1/../../../../arm-none-eabi/lib/thumb/v6-m/nofp/libg_nano.a(libc_a-lock.o)
 .bss.__lock___at_quick_exit_mutex
                0x00000000        0x1 /opt/toolchain/bin/../lib/gcc/arm-none-eabi/13.3.1/../../../../arm-none-eabi/lib/thumb/v6-m/nofp/libg_nano.a(libc_a-lock.o)
 .bss.__lock___atexit_recursive_mutex
                0x00000000        0x1 /opt/toolchain/bin/../lib/gcc/arm-none-eabi/13.3.1/../../../../arm-none-eabi/lib/thumb/v6-m/nofp/libg_nano.a(libc_a-lock.o)
 .bss.__lock___sfp_recursive_mutex
                0x00000000        0x1 /opt/toolchain/bin/../lib/gcc/arm-none-eabi/13.3.1/../../../../arm-none-eabi/lib/thumb/v6-m/nofp/libg_nano.a(libc_a-lock.o)
 .debug_frame   0x00000000       0xb0 /opt/toolchain/bin/../lib/gcc/arm-none-eabi/13.3.1/../../../../arm-none-eabi/lib/thumb/v6-m/nofp/libg_nano.a(libc_a-lock.o)
 .ARM.attributes
                0x00000000       0x2c /opt/toolchain/bin/../lib/gcc/arm-none-eabi/13.3.1/../../../../arm-none-eabi/lib/thumb/v6-m/nofp/libg_nano.a(libc_a-lock.o)
 .text          0x00000000        0x0 /opt/toolchain/bin/../lib/gcc/arm-none-eabi/13.3.1/../../../../arm-none-eabi/lib/thumb/v6-m/nofp/libg_nano.a(libc_a-fflush.o)
 .data          0x00000000        0x0 /opt/toolchain/bin/../lib/gcc/arm-none-eabi/13.3.1/../../../../arm-none-eabi/lib/thumb/v6-m/nofp/libg_nano.a(libc_a-fflush.o)
 .bss           0x00000000        0x0 /opt/toolchain/bin/../lib/gcc/arm-none-eabi/13.3.1/../../../../arm-none-eabi/lib/thumb/v6-m/nofp/libg_nano.a(libc_a-fflush.o)
 .text.__sflush_r
                0x00000000      0x10c /opt/toolchain/bin/../lib/gcc/arm-none-eabi/13.3.1/../../../../arm-none-eabi/lib/thumb/v6-m/nofp/libg_nano.a(libc_a-fflush.o)
 .text._fflush_r
                0x00000000       0x56 /opt/toolchain/bin/../lib/gcc/arm-none-eabi/13.3.1/../../../../arm-none-eabi/lib/thumb/v6-m/nofp/libg_nano.a(libc_a-fflush.o)
 .text.fflush   0x00000000       0x30 /opt/toolchain/bin/../lib/gcc/arm-none-eabi/13.3.1/../../../../arm-none-eabi/lib/thumb/v6-m/nofp/libg_nano.a(libc_a-fflush.o)
 .debug_frame   0x00000000       0x68 /opt/toolchain/bin/../lib/gcc/arm-none-eabi/13.3.1/../../../../arm-none-eabi/lib/thumb/v6-m/nofp/libg_nano.a(libc_a-fflush.o)
 .ARM.attributes
                0x00000000       0x2c /opt/toolchain/bin/../lib/gcc/arm-none-eabi/13.3.1/../../../../arm-none-eabi/lib/thumb/v6-m/nofp/libg_nano.a(libc_a-fflush.o)
 .text          0x00000000        0x0 /opt/toolchain/bin/../lib/gcc/arm-none-eabi/13.3.1/../../../../arm-none-eabi/lib/thumb/v6-m/nofp/libg_nano.a(libc_a-mallocr.o)
 .data          0x00000000        0x0 /opt/toolchain/bin/../lib/gcc/arm-none-eabi/13.3.1/../../../../arm-none-eabi/lib/thumb/v6-m/nofp/libg_nano.a(libc_a-mallocr.o)
 .bss           0x00000000        0x0 /opt/toolchain/bin/../lib/gcc/arm-none-eabi/13.3.1/../../../../arm-none-eabi/lib/thumb/v6-m/nofp/libg_nano.a(libc_a-mallocr.o)
 .text.sbrk_aligned
                0x00000000       0x44 /opt/toolchain/bin/../lib/gcc/arm-none-eabi/13.3.1/../../../../arm-none-eabi/lib/thumb/v6-m/nofp/libg_nano.a(libc_a-mallocr.o)
 .text._malloc_r
                0x00000000      0x100 /opt/toolchain/bin/../lib/gcc/arm-none-eabi/13.3.1/../../../../arm-none-eabi/lib/thumb/v6-m/nofp/libg_nano.a(libc_a-mallocr.o)
 .bss.__malloc_sbrk_start
                0x00000000        0x4 /opt/toolchain/bin/../lib/gcc/arm-none-eabi/13.3.1/../../../../arm-none-eabi/lib/thumb/v6-m/nofp/libg_nano.a(libc_a-mallocr.o)
 .bss.__malloc_free_list
                0x00000000        0x4 /opt/toolchain/bin/../lib/gcc/arm-none-eabi/13.3.1/../../../../arm-none-eabi/lib/thumb/v6-m/nofp/libg_nano.a(libc_a-mallocr.o)
 .debug_frame   0x00000000       0x50 /opt/toolchain/bin/../lib/gcc/arm-none-eabi/13.3.1/../../../../arm-none-eabi/lib/thumb/v6-m/nofp/libg_nano.a(libc_a-mallocr.o)
 .ARM.attributes
                0x00000000       0x2c /opt/toolchain/bin/../lib/gcc/arm-none-eabi/13.3.1/../../../../arm-none-eabi/lib/thumb/v6-m/nofp/libg_nano.a(libc_a-mallocr.o)
 .text          0x00000000        0x0 /opt/toolchain/bin/../lib/gcc/arm-none-eabi/13.3.1/../../../../arm-none-eabi/lib/thumb/v6-m/nofp/libg_nano.a(libc_a-closer.o)
 .data          0x00000000        0x0 /opt/toolchain/bin/../lib/gcc/arm-none-eabi/13.3.1/../../../../arm-none-eabi/lib/thumb/v6-m/nofp/libg_nano.a(libc_a-closer.o)
 .bss           0x00000000        0x0 /opt/toolchain/bin/../lib/gcc/arm-none-eabi/13.3.1/../../../../arm-none-eabi/lib/thumb/v6-m/nofp/libg_nano.a(libc_a-closer.o)
 .text._close_r
                0x00000000       0x24 /opt/toolchain/bin/../lib/gcc/arm-none-eabi/13.3.1/../../../../arm-none-eabi/lib/thumb/v6-m/nofp/libg_nano.a(libc_a-closer.o)
 .debug_frame   0x00000000       0x2c /opt/toolchain/bin/../lib/gcc/arm-none-eabi/13.3.1/../../../../arm-none-eabi/lib/thumb/v6-m/nofp/libg_nano.a(libc_a-closer.o)
 .ARM.attributes
                0x00000000       0x2c /opt/toolchain/bin/../lib/gcc/arm-none-eabi/13.3.1/../../../../arm-none-eabi/lib/thumb/v6-m/nofp/libg_nano.a(libc_a-closer.o)
 .text          0x00000000        0x0 /opt/toolchain/bin/../lib/gcc/arm-none-eabi/13.3.1/../../../../arm-none-eabi/lib/thumb/v6-m/nofp/libg_nano.a(libc_a-reent.o)
 .data          0x00000000        0x0 /opt/toolchain/bin/../lib/gcc/arm-none-eabi/13.3.1/../../../../arm-none-eabi/lib/thumb/v6-m/nofp/libg_nano.a(libc_a-reent.o)
 .bss           0x00000000        0x0 /opt/toolchain/bin/../lib/gcc/arm-none-eabi/13.3.1/../../../../arm-none-eabi/lib/thumb/v6-m/nofp/libg_nano.a(libc_a-reent.o)
 .text._reclaim_reent
                0x00000000       0xd4 /opt/toolchain/bin/../lib/gcc/arm-none-eabi/13.3.1/../../../../arm-none-eabi/lib/thumb/v6-m/nofp/libg_nano.a(libc_a-reent.o)
 .bss.errno     0x00000000        0x4 /opt/toolchain/bin/../lib/gcc/arm-none-eabi/13.3.1/../../../../arm-none-eabi/lib/thumb/v6-m/nofp/libg_nano.a(libc_a-reent.o)
 .debug_frame   0x00000000       0x2c /opt/toolchain/bin/../lib/gcc/arm-none-eabi/13.3.1/../../../../arm-none-eabi/lib/thumb/v6-m/nofp/libg_nano.a(libc_a-reent.o)
 .ARM.attributes
                0x00000000       0x2c /opt/toolchain/bin/../lib/gcc/arm-none-eabi/13.3.1/../../../../arm-none-eabi/lib/thumb/v6-m/nofp/libg_nano.a(libc_a-reent.o)
 .text          0x00000000        0x0 /opt/toolchain/bin/../lib/gcc/arm-none-eabi/13.3.1/../../../../arm-none-eabi/lib/thumb/v6-m/nofp/libg_nano.a(libc_a-impure.o)
 .data          0x00000000        0x0 /opt/toolchain/bin/../lib/gcc/arm-none-eabi/13.3.1/../../../../arm-none-eabi/lib/thumb/v6-m/nofp/libg_nano.a(libc_a-impure.o)
 .bss           0x00000000        0x0 /opt/toolchain/bin/../lib/gcc/arm-none-eabi/13.3.1/../../../../arm-none-eabi/lib/thumb/v6-m/nofp/libg_nano.a(libc_a-impure.o)
 .data._impure_ptr
                0x00000000        0x4 /opt/toolchain/bin/../lib/gcc/arm-none-eabi/13.3.1/../../../../arm-none-eabi/lib/thumb/v6-m/nofp/libg_nano.a(libc_a-impure.o)
 .data._impure_data
                0x00000000       0x4c /opt/toolchain/bin/../lib/gcc/arm-none-eabi/13.3.1/../../../../arm-none-eabi/lib/thumb/v6-m/nofp/libg_nano.a(libc_a-impure.o)
 .ARM.attributes
                0x00000000       0x2c /opt/toolchain/bin/../lib/gcc/arm-none-eabi/13.3.1/../../../../arm-none-eabi/lib/thumb/v6-m/nofp/libg_nano.a(libc_a-impure.o)
 .text          0x00000000        0x0 /opt/toolchain/bin/../lib/gcc/arm-none-eabi/13.3.1/../../../../arm-none-eabi/lib/thumb/v6-m/nofp/libg_nano.a(libc_a-mlock.o)
 .data          0x00000000        0x0 /opt/toolchain/bin/../lib/gcc/arm-none-eabi/13.3.1/../../../../arm-none-eabi/lib/thumb/v6-m/nofp/libg_nano.a(libc_a-mlock.o)
 .bss           0x00000000        0x0 /opt/toolchain/bin/../lib/gcc/arm-none-eabi/13.3.1/../../../../arm-none-eabi/lib/thumb/v6-m/nofp/libg_nano.a(libc_a-mlock.o)
 .text.__malloc_lock
                0x00000000       0x10 /opt/toolchain/bin/../lib/gcc/arm-none-eabi/13.3.1/../../../../arm-none-eabi/lib/thumb/v6-m/nofp/libg_nano.a(libc_a-mlock.o)
 .text.__malloc_unlock
                0x00000000       0x10 /opt/toolchain/bin/../lib/gcc/arm-none-eabi/13.3.1/../../../../arm-none-eabi/lib/thumb/v6-m/nofp/libg_nano.a(libc_a-mlock.o)
 .debug_frame   0x00000000       0x40 /opt/toolchain/bin/../lib/gcc/arm-none-eabi/13.3.1/../../../../arm-none-eabi/lib/thumb/v6-m/nofp/libg_nano.a(libc_a-mlock.o)
 .ARM.attributes
                0x00000000       0x2c /opt/toolchain/bin/../lib/gcc/arm-none-eabi/13.3.1/../../../../arm-none-eabi/lib/thumb/v6-m/nofp/libg_nano.a(libc_a-mlock.o)
 .text          0x00000000        0x0 /opt/toolchain/bin/../lib/gcc/arm-none-eabi/13.3.1/../../../../arm-none-eabi/lib/thumb/v6-m/nofp/libg_nano.a(libc_a-sbrkr.o)
 .data          0x00000000        0x0 /opt/toolchain/bin/../lib/gcc/arm-none-eabi/13.3.1/../../../../arm-none-eabi/lib/thumb/v6-m/nofp/libg_nano.a(libc_a-sbrkr.o)
 .bss           0x00000000        0x0 /opt/toolchain/bin/../lib/gcc/arm-none-eabi/13.3.1/../../../../arm-none-eabi/lib/thumb/v6-m/nofp/libg_nano.a(libc_a-sbrkr.o)
 .text._sbrk_r  0x00000000       0x24 /opt/toolchain/bin/../lib/gcc/arm-none-eabi/13.3.1/../../../../arm-none-eabi/lib/thumb/v6-m/nofp/libg_nano.a(libc_a-sbrkr.o)
 .debug_frame   0x00000000       0x2c /opt/toolchain/bin/../lib/gcc/arm-none-eabi/13.3.1/../../../../arm-none-eabi/lib/thumb/v6-m/nofp/libg_nano.a(libc_a-sbrkr.o)
 .ARM.attributes
                0x00000000       0x2c /opt/toolchain/bin/../lib/gcc/arm-none-eabi/13.3.1/../../../../arm-none-eabi/lib/thumb/v6-m/nofp/libg_nano.a(libc_a-sbrkr.o)
 .text          0x00000000        0x0 /opt/toolchain/bin/../lib/gcc/arm-none-eabi/13.3.1/../../../../arm-none-eabi/lib/thumb/v6-m/nofp/libg_nano.a(libc_a-freer.o)
 .data          0x00000000        0x0 /opt/toolchain/bin/../lib/gcc/arm-none-eabi/13.3.1/../../../../arm-none-eabi/lib/thumb/v6-m/nofp/libg_nano.a(libc_a-freer.o)
 .bss           0x00000000        0x0 /opt/toolchain/bin/../lib/gcc/arm-none-eabi/13.3.1/../../../../arm-none-eabi/lib/thumb/v6-m/nofp/libg_nano.a(libc_a-freer.o)
 .text._free_r  0x00000000       0x94 /opt/toolchain/bin/../lib/gcc/arm-none-eabi/13.3.1/../../../../arm-none-eabi/lib/thumb/v6-m/nofp/libg_nano.a(libc_a-freer.o)
 .debug_frame   0x00000000       0x2c /opt/toolchain/bin/../lib/gcc/arm-none-eabi/13.3.1/../../../../arm-none-eabi/lib/thumb/v6-m/nofp/libg_nano.a(libc_a-freer.o)
 .ARM.attributes
                0x00000000       0x2c /opt/toolchain/bin/../lib/gcc/arm-none-eabi/13.3.1/../../../../arm-none-eabi/lib/thumb/v6-m/nofp/libg_nano.a(libc_a-freer.o)
 .text          0x00000000        0x0 /opt/toolchain/bin/../lib/gcc/arm-none-eabi/13.3.1/thumb/v6-m/nofp/crtend.o
 .data          0x00000000        0x0 /opt/toolchain/bin/../lib/gcc/arm-none-eabi/13.3.1/thumb/v6-m/nofp/crtend.o
 .bss           0x00000000        0x0 /opt/toolchain/bin/../lib/gcc/arm-none-eabi/13.3.1/thumb/v6-m/nofp/crtend.o
 .rodata.all_implied_fbits
                0x00000000       0x24 /opt/toolchain/bin/../lib/gcc/arm-none-eabi/13.3.1/thumb/v6-m/nofp/crtend.o
 .eh_frame      0x00000000        0x4 /opt/toolchain/bin/../lib/gcc/arm-none-eabi/13.3.1/thumb/v6-m/nofp/crtend.o
 .text          0x00000000        0x0 /opt/toolchain/bin/../lib/gcc/arm-none-eabi/13.3.1/thumb/v6-m/nofp/crtn.o
 .data          0x00000000        0x0 /opt/toolchain/bin/../lib/gcc/arm-none-eabi/13.3.1/thumb/v6-m/nofp/crtn.o
 .bss           0x00000000        0x0 /opt/toolchain/bin/../lib/gcc/arm-none-eabi/13.3.1/thumb/v6-m/nofp/crtn.o

Memory Configuration

Name             Origin             Length             Attributes
RAM              0x20000000         0x00004000         xrw
FLASH            0x08002800         0x0001d800         xr
*default*        0x00000000         0xffffffff

Linker script and memory map

LOAD /opt/toolchain/bin/../lib/gcc/arm-none-eabi/13.3.1/thumb/v6-m/nofp/crti.o
LOAD /opt/toolchain/bin/../lib/gcc/arm-none-eabi/13.3.1/thumb/v6-m/nofp/crtbegin.o
LOAD /opt/toolchain/bin/../lib/gcc/arm-none-eabi/13.3.1/../../../../arm-none-eabi/lib/thumb/v6-m/nofp/crt0.o
LOAD CMakeFiles/n7six.ApeX-k1.v7.6.5br2.dir/Core/Src/main.c.obj
LOAD CMakeFiles/n7six.ApeX-k1.v7.6.5br2.dir/Core/Src/py32f071_it.c.obj
LOAD CMakeFiles/n7six.ApeX-k1.v7.6.5br2.dir/Core/Src/system_py32f071.c.obj
LOAD CMakeFiles/n7six.ApeX-k1.v7.6.5br2.dir/Core/startup_py32f071xx.s.obj
LOAD CMakeFiles/n7six.ApeX-k1.v7.6.5br2.dir/Drivers/PY32F071_HAL_Driver/Src/py32f071_ll_rcc.c.obj
LOAD CMakeFiles/n7six.ApeX-k1.v7.6.5br2.dir/Drivers/PY32F071_HAL_Driver/Src/py32f071_ll_pwr.c.obj
LOAD CMakeFiles/n7six.ApeX-k1.v7.6.5br2.dir/Drivers/PY32F071_HAL_Driver/Src/py32f071_ll_dma.c.obj
LOAD CMakeFiles/n7six.ApeX-k1.v7.6.5br2.dir/Drivers/PY32F071_HAL_Driver/Src/py32f071_ll_gpio.c.obj
LOAD CMakeFiles/n7six.ApeX-k1.v7.6.5br2.dir/Drivers/PY32F071_HAL_Driver/Src/py32f071_ll_utils.c.obj
LOAD CMakeFiles/n7six.ApeX-k1.v7.6.5br2.dir/Drivers/PY32F071_HAL_Driver/Src/py32f071_ll_adc.c.obj
LOAD CMakeFiles/n7six.ApeX-k1.v7.6.5br2.dir/Drivers/PY32F071_HAL_Driver/Src/py32f071_ll_comp.c.obj
LOAD CMakeFiles/n7six.ApeX-k1.v7.6.5br2.dir/Drivers/PY32F071_HAL_Driver/Src/py32f071_ll_crc.c.obj
LOAD CMakeFiles/n7six.ApeX-k1.v7.6.5br2.dir/Drivers/PY32F071_HAL_Driver/Src/py32f071_ll_dac.c.obj
LOAD CMakeFiles/n7six.ApeX-k1.v7.6.5br2.dir/Drivers/PY32F071_HAL_Driver/Src/py32f071_ll_exti.c.obj
LOAD CMakeFiles/n7six.ApeX-k1.v7.6.5br2.dir/Drivers/PY32F071_HAL_Driver/Src/py32f071_ll_i2c.c.obj
LOAD CMakeFiles/n7six.ApeX-k1.v7.6.5br2.dir/Drivers/PY32F071_HAL_Driver/Src/py32f071_ll_rtc.c.obj
LOAD CMakeFiles/n7six.ApeX-k1.v7.6.5br2.dir/Drivers/PY32F071_HAL_Driver/Src/py32f071_ll_spi.c.obj
LOAD CMakeFiles/n7six.ApeX-k1.v7.6.5br2.dir/Drivers/PY32F071_HAL_Driver/Src/py32f071_ll_tim.c.obj
LOAD CMakeFiles/n7six.ApeX-k1.v7.6.5br2.dir/Drivers/PY32F071_HAL_Driver/Src/py32f071_ll_lptim.c.obj
LOAD CMakeFiles/n7six.ApeX-k1.v7.6.5br2.dir/Drivers/PY32F071_HAL_Driver/Src/py32f071_ll_usart.c.obj
LOAD CMakeFiles/n7six.ApeX-k1.v7.6.5br2.dir/App/driver/backlight.c.obj
LOAD CMakeFiles/n7six.ApeX-k1.v7.6.5br2.dir/App/driver/bk4829.c.obj
LOAD CMakeFiles/n7six.ApeX-k1.v7.6.5br2.dir/App/driver/py25q16.c.obj
LOAD CMakeFiles/n7six.ApeX-k1.v7.6.5br2.dir/App/driver/gpio.c.obj
LOAD CMakeFiles/n7six.ApeX-k1.v7.6.5br2.dir/App/driver/i2c.c.obj
LOAD CMakeFiles/n7six.ApeX-k1.v7.6.5br2.dir/App/driver/keyboard.c.obj
LOAD CMakeFiles/n7six.ApeX-k1.v7.6.5br2.dir/App/driver/st7565.c.obj
LOAD CMakeFiles/n7six.ApeX-k1.v7.6.5br2.dir/App/driver/system.c.obj
LOAD CMakeFiles/n7six.ApeX-k1.v7.6.5br2.dir/App/driver/systick.c.obj
LOAD CMakeFiles/n7six.ApeX-k1.v7.6.5br2.dir/App/app/action.c.obj
LOAD CMakeFiles/n7six.ApeX-k1.v7.6.5br2.dir/App/app/app.c.obj
LOAD CMakeFiles/n7six.ApeX-k1.v7.6.5br2.dir/App/app/chFrScanner.c.obj
LOAD CMakeFiles/n7six.ApeX-k1.v7.6.5br2.dir/App/app/common.c.obj
LOAD CMakeFiles/n7six.ApeX-k1.v7.6.5br2.dir/App/app/dtmf.c.obj
LOAD CMakeFiles/n7six.ApeX-k1.v7.6.5br2.dir/App/app/events.c.obj
LOAD CMakeFiles/n7six.ApeX-k1.v7.6.5br2.dir/App/app/events_handlers.c.obj
LOAD CMakeFiles/n7six.ApeX-k1.v7.6.5br2.dir/App/app/generic.c.obj
LOAD CMakeFiles/n7six.ApeX-k1.v7.6.5br2.dir/App/app/main.c.obj
LOAD CMakeFiles/n7six.ApeX-k1.v7.6.5br2.dir/App/app/menu.c.obj
LOAD CMakeFiles/n7six.ApeX-k1.v7.6.5br2.dir/App/app/scanner.c.obj
LOAD CMakeFiles/n7six.ApeX-k1.v7.6.5br2.dir/App/audio.c.obj
LOAD CMakeFiles/n7six.ApeX-k1.v7.6.5br2.dir/App/bitmaps.c.obj
LOAD CMakeFiles/n7six.ApeX-k1.v7.6.5br2.dir/App/board.c.obj
LOAD CMakeFiles/n7six.ApeX-k1.v7.6.5br2.dir/App/dcs.c.obj
LOAD CMakeFiles/n7six.ApeX-k1.v7.6.5br2.dir/App/font.c.obj
LOAD CMakeFiles/n7six.ApeX-k1.v7.6.5br2.dir/App/frequencies.c.obj
LOAD CMakeFiles/n7six.ApeX-k1.v7.6.5br2.dir/App/functions.c.obj
LOAD CMakeFiles/n7six.ApeX-k1.v7.6.5br2.dir/App/helper/battery.c.obj
LOAD CMakeFiles/n7six.ApeX-k1.v7.6.5br2.dir/App/helper/boot.c.obj
LOAD CMakeFiles/n7six.ApeX-k1.v7.6.5br2.dir/App/misc.c.obj
LOAD CMakeFiles/n7six.ApeX-k1.v7.6.5br2.dir/App/radio.c.obj
LOAD CMakeFiles/n7six.ApeX-k1.v7.6.5br2.dir/App/scheduler.c.obj
LOAD CMakeFiles/n7six.ApeX-k1.v7.6.5br2.dir/App/settings.c.obj
LOAD CMakeFiles/n7six.ApeX-k1.v7.6.5br2.dir/App/ui/battery.c.obj
LOAD CMakeFiles/n7six.ApeX-k1.v7.6.5br2.dir/App/ui/helper.c.obj
LOAD CMakeFiles/n7six.ApeX-k1.v7.6.5br2.dir/App/ui/inputbox.c.obj
LOAD CMakeFiles/n7six.ApeX-k1.v7.6.5br2.dir/App/ui/main.c.obj
LOAD CMakeFiles/n7six.ApeX-k1.v7.6.5br2.dir/App/ui/menu.c.obj
LOAD CMakeFiles/n7six.ApeX-k1.v7.6.5br2.dir/App/ui/scanner.c.obj
LOAD CMakeFiles/n7six.ApeX-k1.v7.6.5br2.dir/App/ui/status.c.obj
LOAD CMakeFiles/n7six.ApeX-k1.v7.6.5br2.dir/App/ui/ui.c.obj
LOAD CMakeFiles/n7six.ApeX-k1.v7.6.5br2.dir/App/ui/welcome.c.obj
LOAD CMakeFiles/n7six.ApeX-k1.v7.6.5br2.dir/App/version.c.obj
LOAD CMakeFiles/n7six.ApeX-k1.v7.6.5br2.dir/App/main.c.obj
LOAD CMakeFiles/n7six.ApeX-k1.v7.6.5br2.dir/App/external/printf/printf.c.obj
LOAD CMakeFiles/n7six.ApeX-k1.v7.6.5br2.dir/App/driver/crc.c.obj
LOAD CMakeFiles/n7six.ApeX-k1.v7.6.5br2.dir/App/driver/eeprom_compat.c.obj
LOAD CMakeFiles/n7six.ApeX-k1.v7.6.5br2.dir/App/driver/uart.c.obj
LOAD CMakeFiles/n7six.ApeX-k1.v7.6.5br2.dir/App/app/uart.c.obj
LOAD CMakeFiles/n7six.ApeX-k1.v7.6.5br2.dir/App/driver/vcp.c.obj
LOAD CMakeFiles/n7six.ApeX-k1.v7.6.5br2.dir/App/usb/usbd_cdc_if.c.obj
LOAD CMakeFiles/n7six.ApeX-k1.v7.6.5br2.dir/App/driver/bk1080.c.obj
LOAD CMakeFiles/n7six.ApeX-k1.v7.6.5br2.dir/App/app/fm.c.obj
LOAD CMakeFiles/n7six.ApeX-k1.v7.6.5br2.dir/App/ui/fmradio.c.obj
LOAD CMakeFiles/n7six.ApeX-k1.v7.6.5br2.dir/App/app/aircopy.c.obj
LOAD CMakeFiles/n7six.ApeX-k1.v7.6.5br2.dir/App/ui/aircopy.c.obj
LOAD CMakeFiles/n7six.ApeX-k1.v7.6.5br2.dir/App/app/flashlight.c.obj
LOAD CMakeFiles/n7six.ApeX-k1.v7.6.5br2.dir/App/app/spectrum.c.obj
LOAD CMakeFiles/n7six.ApeX-k1.v7.6.5br2.dir/App/app/breakout.c.obj
LOAD CMakeFiles/n7six.ApeX-k1.v7.6.5br2.dir/App/screenshot.c.obj
LOAD CMakeFiles/n7six.ApeX-k1.v7.6.5br2.dir/Middlewares/CherryUSB/core/usbd_core.c.obj
LOAD CMakeFiles/n7six.ApeX-k1.v7.6.5br2.dir/Middlewares/CherryUSB/port/usb_dc_py32.c.obj
LOAD CMakeFiles/n7six.ApeX-k1.v7.6.5br2.dir/Middlewares/CherryUSB/class/cdc/usbd_cdc.c.obj
LOAD /opt/toolchain/bin/../lib/gcc/arm-none-eabi/13.3.1/../../../../arm-none-eabi/lib/thumb/v6-m/nofp/libm.a
START GROUP
LOAD /opt/toolchain/bin/../lib/gcc/arm-none-eabi/13.3.1/thumb/v6-m/nofp/libgcc.a
LOAD /opt/toolchain/bin/../lib/gcc/arm-none-eabi/13.3.1/../../../../arm-none-eabi/lib/thumb/v6-m/nofp/libg_nano.a
LOAD /opt/toolchain/bin/../lib/gcc/arm-none-eabi/13.3.1/../../../../arm-none-eabi/lib/thumb/v6-m/nofp/libc_nano.a
END GROUP
START GROUP
LOAD /opt/toolchain/bin/../lib/gcc/arm-none-eabi/13.3.1/thumb/v6-m/nofp/libgcc.a
LOAD /opt/toolchain/bin/../lib/gcc/arm-none-eabi/13.3.1/../../../../arm-none-eabi/lib/thumb/v6-m/nofp/libc_nano.a
END GROUP
LOAD /opt/toolchain/bin/../lib/gcc/arm-none-eabi/13.3.1/thumb/v6-m/nofp/crtend.o
LOAD /opt/toolchain/bin/../lib/gcc/arm-none-eabi/13.3.1/thumb/v6-m/nofp/crtn.o
                0x20004000                        _estack = (ORIGIN (RAM) + LENGTH (RAM))
                0x00000200                        _Min_Heap_Size = 0x200
                0x00000400                        _Min_Stack_Size = 0x400

.isr_vector     0x08002800       0xc0
                0x08002800                        . = ALIGN (0x4)
 *(.isr_vector)
 .isr_vector    0x08002800       0xc0 CMakeFiles/n7six.ApeX-k1.v7.6.5br2.dir/Core/startup_py32f071xx.s.obj
                0x08002800                g_pfnVectors
                0x080028c0                        . = ALIGN (0x4)

.text           0x080028c0    0x12c44
                0x080028c0                        . = ALIGN (0x4)
 *(.text)
 .text          0x080028c0       0x14 /opt/toolchain/bin/../lib/gcc/arm-none-eabi/13.3.1/thumb/v6-m/nofp/libgcc.a(_thumb1_case_sqi.o)
                0x080028c0                __gnu_thumb1_case_sqi
 .text          0x080028d4       0x14 /opt/toolchain/bin/../lib/gcc/arm-none-eabi/13.3.1/thumb/v6-m/nofp/libgcc.a(_thumb1_case_uqi.o)
                0x080028d4                __gnu_thumb1_case_uqi
 .text          0x080028e8       0x14 /opt/toolchain/bin/../lib/gcc/arm-none-eabi/13.3.1/thumb/v6-m/nofp/libgcc.a(_thumb1_case_shi.o)
                0x080028e8                __gnu_thumb1_case_shi
 .text          0x080028fc       0x14 /opt/toolchain/bin/../lib/gcc/arm-none-eabi/13.3.1/thumb/v6-m/nofp/libgcc.a(_thumb1_case_uhi.o)
                0x080028fc                __gnu_thumb1_case_uhi
 .text          0x08002910      0x114 /opt/toolchain/bin/../lib/gcc/arm-none-eabi/13.3.1/thumb/v6-m/nofp/libgcc.a(_udivsi3.o)
                0x08002910                __udivsi3
                0x08002910                __aeabi_uidiv
                0x08002a1c                __aeabi_uidivmod
 .text          0x08002a24      0x1d4 /opt/toolchain/bin/../lib/gcc/arm-none-eabi/13.3.1/thumb/v6-m/nofp/libgcc.a(_divsi3.o)
                0x08002a24                __aeabi_idiv
                0x08002a24                __divsi3
                0x08002bf0                __aeabi_idivmod
 .text          0x08002bf8        0x4 /opt/toolchain/bin/../lib/gcc/arm-none-eabi/13.3.1/thumb/v6-m/nofp/libgcc.a(_dvmd_tls.o)
                0x08002bf8                __aeabi_ldiv0
                0x08002bf8                __aeabi_idiv0
 .text          0x08002bfc       0x3c /opt/toolchain/bin/../lib/gcc/arm-none-eabi/13.3.1/thumb/v6-m/nofp/libgcc.a(_clzsi2.o)
                0x08002bfc                __clzsi2
 .text          0x08002c38        0xe /opt/toolchain/bin/../lib/gcc/arm-none-eabi/13.3.1/../../../../arm-none-eabi/lib/thumb/v6-m/nofp/libg_nano.a(libc_a-strlen.o)
                0x08002c38                strlen
 *(.text*)
 *fill*         0x08002c46        0x2 
 .text.deregister_tm_clones
                0x08002c48       0x20 /opt/toolchain/bin/../lib/gcc/arm-none-eabi/13.3.1/thumb/v6-m/nofp/crtbegin.o
 .text.register_tm_clones
                0x08002c68       0x28 /opt/toolchain/bin/../lib/gcc/arm-none-eabi/13.3.1/thumb/v6-m/nofp/crtbegin.o
 .text.__do_global_dtors_aux
                0x08002c90       0x2c /opt/toolchain/bin/../lib/gcc/arm-none-eabi/13.3.1/thumb/v6-m/nofp/crtbegin.o
 .text.frame_dummy
                0x08002cbc       0x24 /opt/toolchain/bin/../lib/gcc/arm-none-eabi/13.3.1/thumb/v6-m/nofp/crtbegin.o
 .text.startup.main
                0x08002ce0       0x3c CMakeFiles/n7six.ApeX-k1.v7.6.5br2.dir/Core/Src/main.c.obj
                0x08002ce0                main
 .text.NMI_Handler
                0x08002d1c        0x2 CMakeFiles/n7six.ApeX-k1.v7.6.5br2.dir/Core/Src/py32f071_it.c.obj
                0x08002d1c                NMI_Handler
 .text.HardFault_Handler
                0x08002d1e        0x2 CMakeFiles/n7six.ApeX-k1.v7.6.5br2.dir/Core/Src/py32f071_it.c.obj
                0x08002d1e                HardFault_Handler
 .text.SVC_Handler
                0x08002d20        0x2 CMakeFiles/n7six.ApeX-k1.v7.6.5br2.dir/Core/Src/py32f071_it.c.obj
                0x08002d20                SVC_Handler
 .text.PendSV_Handler
                0x08002d22        0x2 CMakeFiles/n7six.ApeX-k1.v7.6.5br2.dir/Core/Src/py32f071_it.c.obj
                0x08002d22                PendSV_Handler
 .text.SystemInit
                0x08002d24       0x10 CMakeFiles/n7six.ApeX-k1.v7.6.5br2.dir/Core/Src/system_py32f071.c.obj
                0x08002d24                SystemInit
 .text.Reset_Handler
                0x08002d34       0x50 CMakeFiles/n7six.ApeX-k1.v7.6.5br2.dir/Core/startup_py32f071xx.s.obj
                0x08002d34                Reset_Handler
 .text.Default_Handler
                0x08002d84        0x2 CMakeFiles/n7six.ApeX-k1.v7.6.5br2.dir/Core/startup_py32f071xx.s.obj
                0x08002d84                TIM1_CC_IRQHandler
                0x08002d84                PVD_IRQHandler
                0x08002d84                I2C1_IRQHandler
                0x08002d84                SPI1_IRQHandler
                0x08002d84                EXTI2_3_IRQHandler
                0x08002d84                I2C2_IRQHandler
                0x08002d84                TIM17_IRQHandler
                0x08002d84                USART3_IRQHandler
                0x08002d84                RTC_IRQHandler
                0x08002d84                LCD_IRQHandler
                0x08002d84                TIM16_IRQHandler
                0x08002d84                TIM3_IRQHandler
                0x08002d84                EXTI4_15_IRQHandler
                0x08002d84                RCC_IRQHandler
                0x08002d84                DMA1_Channel1_IRQHandler
                0x08002d84                Default_Handler
                0x08002d84                TIM14_IRQHandler
                0x08002d84                TIM7_IRQHandler
                0x08002d84                TIM15_IRQHandler
                0x08002d84                EXTI0_1_IRQHandler
                0x08002d84                SPI2_IRQHandler
                0x08002d84                WWDG_IRQHandler
                0x08002d84                TIM2_IRQHandler
                0x08002d84                DMA1_Channel2_3_IRQHandler
                0x08002d84                ADC_COMP_IRQHandler
                0x08002d84                USART2_IRQHandler
                0x08002d84                TIM6_LPTIM1_DAC_IRQHandler
                0x08002d84                FLASH_IRQHandler
                0x08002d84                USART1_IRQHandler
                0x08002d84                TIM1_BRK_UP_TRG_COM_IRQHandler
 *fill*         0x08002d86        0x2 
 .text.RCC_GetHCLKClockFreq
                0x08002d88       0x20 CMakeFiles/n7six.ApeX-k1.v7.6.5br2.dir/Drivers/PY32F071_HAL_Driver/Src/py32f071_ll_rcc.c.obj
                0x08002d88                RCC_GetHCLKClockFreq
 .text.RCC_GetPCLK1ClockFreq
                0x08002da8       0x20 CMakeFiles/n7six.ApeX-k1.v7.6.5br2.dir/Drivers/PY32F071_HAL_Driver/Src/py32f071_ll_rcc.c.obj
                0x08002da8                RCC_GetPCLK1ClockFreq
 .text.RCC_PLL_GetFreqDomain_SYS
                0x08002dc8       0x38 CMakeFiles/n7six.ApeX-k1.v7.6.5br2.dir/Drivers/PY32F071_HAL_Driver/Src/py32f071_ll_rcc.c.obj
                0x08002dc8                RCC_PLL_GetFreqDomain_SYS
 .text.RCC_GetSystemClockFreq
                0x08002e00       0x50 CMakeFiles/n7six.ApeX-k1.v7.6.5br2.dir/Drivers/PY32F071_HAL_Driver/Src/py32f071_ll_rcc.c.obj
                0x08002e00                RCC_GetSystemClockFreq
 .text.LL_RCC_GetSystemClocksFreq
                0x08002e50       0x18 CMakeFiles/n7six.ApeX-k1.v7.6.5br2.dir/Drivers/PY32F071_HAL_Driver/Src/py32f071_ll_rcc.c.obj
                0x08002e50                LL_RCC_GetSystemClocksFreq
 .text.LL_DMA_Init
                0x08002e68       0x4c CMakeFiles/n7six.ApeX-k1.v7.6.5br2.dir/Drivers/PY32F071_HAL_Driver/Src/py32f071_ll_dma.c.obj
                0x08002e68                LL_DMA_Init
 .text.LL_DMA_StructInit
                0x08002eb4       0x18 CMakeFiles/n7six.ApeX-k1.v7.6.5br2.dir/Drivers/PY32F071_HAL_Driver/Src/py32f071_ll_dma.c.obj
                0x08002eb4                LL_DMA_StructInit
 .text.LL_GPIO_Init
                0x08002ecc       0xa4 CMakeFiles/n7six.ApeX-k1.v7.6.5br2.dir/Drivers/PY32F071_HAL_Driver/Src/py32f071_ll_gpio.c.obj
                0x08002ecc                LL_GPIO_Init
 .text.LL_GPIO_StructInit
                0x08002f70       0x18 CMakeFiles/n7six.ApeX-k1.v7.6.5br2.dir/Drivers/PY32F071_HAL_Driver/Src/py32f071_ll_gpio.c.obj
                0x08002f70                LL_GPIO_StructInit
 .text.LL_SetSystemCoreClock
                0x08002f88        0xc CMakeFiles/n7six.ApeX-k1.v7.6.5br2.dir/Drivers/PY32F071_HAL_Driver/Src/py32f071_ll_utils.c.obj
                0x08002f88                LL_SetSystemCoreClock
 .text.LL_SPI_Init
                0x08002f94       0x68 CMakeFiles/n7six.ApeX-k1.v7.6.5br2.dir/Drivers/PY32F071_HAL_Driver/Src/py32f071_ll_spi.c.obj
                0x08002f94                LL_SPI_Init
 .text.LL_SPI_StructInit
                0x08002ffc       0x1a CMakeFiles/n7six.ApeX-k1.v7.6.5br2.dir/Drivers/PY32F071_HAL_Driver/Src/py32f071_ll_spi.c.obj
                0x08002ffc                LL_SPI_StructInit
 *fill*         0x08003016        0x2 
 .text.LL_USART_Init
                0x08003018       0xe4 CMakeFiles/n7six.ApeX-k1.v7.6.5br2.dir/Drivers/PY32F071_HAL_Driver/Src/py32f071_ll_usart.c.obj
                0x08003018                LL_USART_Init
 .text.LL_USART_StructInit
                0x080030fc       0x18 CMakeFiles/n7six.ApeX-k1.v7.6.5br2.dir/Drivers/PY32F071_HAL_Driver/Src/py32f071_ll_usart.c.obj
                0x080030fc                LL_USART_StructInit
 .text.BACKLIGHT_Sound
                0x08003114       0x28 CMakeFiles/n7six.ApeX-k1.v7.6.5br2.dir/App/driver/backlight.c.obj
 .text.BACKLIGHT_InitHardware
                0x0800313c       0xc4 CMakeFiles/n7six.ApeX-k1.v7.6.5br2.dir/App/driver/backlight.c.obj
                0x0800313c                BACKLIGHT_InitHardware
 .text.BACKLIGHT_IsOn
                0x08003200        0xc CMakeFiles/n7six.ApeX-k1.v7.6.5br2.dir/App/driver/backlight.c.obj
                0x08003200                BACKLIGHT_IsOn
 .text.BACKLIGHT_SetBrightness
                0x0800320c       0xbc CMakeFiles/n7six.ApeX-k1.v7.6.5br2.dir/App/driver/backlight.c.obj
                0x0800320c                BACKLIGHT_SetBrightness
 .text.BACKLIGHT_TurnOff
                0x080032c8       0x24 CMakeFiles/n7six.ApeX-k1.v7.6.5br2.dir/App/driver/backlight.c.obj
                0x080032c8                BACKLIGHT_TurnOff
 .text.BACKLIGHT_TurnOn
                0x080032ec       0x8c CMakeFiles/n7six.ApeX-k1.v7.6.5br2.dir/App/driver/backlight.c.obj
                0x080032ec                BACKLIGHT_TurnOn
 .text.BK4819_WriteU8
                0x08003378       0x54 CMakeFiles/n7six.ApeX-k1.v7.6.5br2.dir/App/driver/bk4829.c.obj
                0x08003378                BK4819_WriteU8
 .text.BK4819_ReadRegister
                0x080033cc       0x98 CMakeFiles/n7six.ApeX-k1.v7.6.5br2.dir/App/driver/bk4829.c.obj
                0x080033cc                BK4819_ReadRegister
 .text.BK4819_WriteU16
                0x08003464       0x54 CMakeFiles/n7six.ApeX-k1.v7.6.5br2.dir/App/driver/bk4829.c.obj
                0x08003464                BK4819_WriteU16
 .text.BK4819_WriteRegister
                0x080034b8       0x4c CMakeFiles/n7six.ApeX-k1.v7.6.5br2.dir/App/driver/bk4829.c.obj
                0x080034b8                BK4819_WriteRegister
 .text.BK4819_Init
                0x08003504      0x1d0 CMakeFiles/n7six.ApeX-k1.v7.6.5br2.dir/App/driver/bk4829.c.obj
                0x08003504                BK4819_Init
 .text.BK4819_SetAGC
                0x080036d4       0x30 CMakeFiles/n7six.ApeX-k1.v7.6.5br2.dir/App/driver/bk4829.c.obj
                0x080036d4                BK4819_SetAGC
 .text.BK4819_InitAGC
                0x08003704       0x64 CMakeFiles/n7six.ApeX-k1.v7.6.5br2.dir/App/driver/bk4829.c.obj
                0x08003704                BK4819_InitAGC
 .text.BK4819_ToggleGpioOut
                0x08003768       0x2c CMakeFiles/n7six.ApeX-k1.v7.6.5br2.dir/App/driver/bk4829.c.obj
                0x08003768                BK4819_ToggleGpioOut
 .text.BK4819_SetCDCSSCodeWord
                0x08003794       0x38 CMakeFiles/n7six.ApeX-k1.v7.6.5br2.dir/App/driver/bk4829.c.obj
                0x08003794                BK4819_SetCDCSSCodeWord
 .text.BK4819_SetCTCSSFrequency
                0x080037cc       0x48 CMakeFiles/n7six.ApeX-k1.v7.6.5br2.dir/App/driver/bk4829.c.obj
                0x080037cc                BK4819_SetCTCSSFrequency
 .text.BK4819_SetTailDetection
                0x08003814       0x24 CMakeFiles/n7six.ApeX-k1.v7.6.5br2.dir/App/driver/bk4829.c.obj
                0x08003814                BK4819_SetTailDetection
 .text.BK4819_EnableVox
                0x08003838       0x48 CMakeFiles/n7six.ApeX-k1.v7.6.5br2.dir/App/driver/bk4829.c.obj
                0x08003838                BK4819_EnableVox
 .text.BK4819_SetFilterBandwidth
                0x08003880       0x1c CMakeFiles/n7six.ApeX-k1.v7.6.5br2.dir/App/driver/bk4829.c.obj
                0x08003880                BK4819_SetFilterBandwidth
 .text.BK4819_SetupPowerAmplifier
                0x0800389c       0x20 CMakeFiles/n7six.ApeX-k1.v7.6.5br2.dir/App/driver/bk4829.c.obj
                0x0800389c                BK4819_SetupPowerAmplifier
 .text.BK4819_SetFrequency
                0x080038bc       0x16 CMakeFiles/n7six.ApeX-k1.v7.6.5br2.dir/App/driver/bk4829.c.obj
                0x080038bc                BK4819_SetFrequency
 *fill*         0x080038d2        0x2 
 .text.BK4819_SetAF
                0x080038d4       0x14 CMakeFiles/n7six.ApeX-k1.v7.6.5br2.dir/App/driver/bk4829.c.obj
                0x080038d4                BK4819_SetAF
 .text.BK4819_SetRegValue
                0x080038e8       0x2e CMakeFiles/n7six.ApeX-k1.v7.6.5br2.dir/App/driver/bk4829.c.obj
                0x080038e8                BK4819_SetRegValue
 *fill*         0x08003916        0x2 
 .text.BK4819_RX_TurnOn
                0x08003918       0x24 CMakeFiles/n7six.ApeX-k1.v7.6.5br2.dir/App/driver/bk4829.c.obj
                0x08003918                BK4819_RX_TurnOn
 .text.BK4819_SetupSquelch
                0x0800393c       0x56 CMakeFiles/n7six.ApeX-k1.v7.6.5br2.dir/App/driver/bk4829.c.obj
                0x0800393c                BK4819_SetupSquelch
 *fill*         0x08003992        0x2 
 .text.BK4819_PickRXFilterPathBasedOnFrequency
                0x08003994       0x30 CMakeFiles/n7six.ApeX-k1.v7.6.5br2.dir/App/driver/bk4829.c.obj
                0x08003994                BK4819_PickRXFilterPathBasedOnFrequency
 .text.BK4819_DisableScramble
                0x080039c4       0x1e CMakeFiles/n7six.ApeX-k1.v7.6.5br2.dir/App/driver/bk4829.c.obj
                0x080039c4                BK4819_DisableScramble
 *fill*         0x080039e2        0x2 
 .text.BK4819_SetCompander
                0x080039e4       0x54 CMakeFiles/n7six.ApeX-k1.v7.6.5br2.dir/App/driver/bk4829.c.obj
                0x080039e4                BK4819_SetCompander
 .text.BK4819_DisableVox
                0x08003a38       0x16 CMakeFiles/n7six.ApeX-k1.v7.6.5br2.dir/App/driver/bk4829.c.obj
                0x08003a38                BK4819_DisableVox
 .text.BK4819_DisableDTMF
                0x08003a4e        0xc CMakeFiles/n7six.ApeX-k1.v7.6.5br2.dir/App/driver/bk4829.c.obj
                0x08003a4e                BK4819_DisableDTMF
 *fill*         0x08003a5a        0x2 
 .text.BK4819_EnableDTMF
                0x08003a5c       0x1c CMakeFiles/n7six.ApeX-k1.v7.6.5br2.dir/App/driver/bk4829.c.obj
                0x08003a5c                BK4819_EnableDTMF
 .text.BK4819_EnterTxMute
                0x08003a78       0x10 CMakeFiles/n7six.ApeX-k1.v7.6.5br2.dir/App/driver/bk4829.c.obj
                0x08003a78                BK4819_EnterTxMute
 .text.BK4819_PlayTone
                0x08003a88       0x58 CMakeFiles/n7six.ApeX-k1.v7.6.5br2.dir/App/driver/bk4829.c.obj
                0x08003a88                BK4819_PlayTone
 .text.BK4819_ExitTxMute
                0x08003ae0       0x10 CMakeFiles/n7six.ApeX-k1.v7.6.5br2.dir/App/driver/bk4829.c.obj
                0x08003ae0                BK4819_ExitTxMute
 .text.BK4819_Sleep
                0x08003af0       0x16 CMakeFiles/n7six.ApeX-k1.v7.6.5br2.dir/App/driver/bk4829.c.obj
                0x08003af0                BK4819_Sleep
 *fill*         0x08003b06        0x2 
 .text.BK4819_TurnsOffTones_TurnsOnRX
                0x08003b08       0x2c CMakeFiles/n7six.ApeX-k1.v7.6.5br2.dir/App/driver/bk4829.c.obj
                0x08003b08                BK4819_TurnsOffTones_TurnsOnRX
 .text.BK4819_SetupAircopy
                0x08003b34       0x44 CMakeFiles/n7six.ApeX-k1.v7.6.5br2.dir/App/driver/bk4829.c.obj
                0x08003b34                BK4819_SetupAircopy
 .text.BK4819_Idle
                0x08003b78        0xc CMakeFiles/n7six.ApeX-k1.v7.6.5br2.dir/App/driver/bk4829.c.obj
                0x08003b78                BK4819_Idle
 .text.BK4819_ResetFSK
                0x08003b84       0x1e CMakeFiles/n7six.ApeX-k1.v7.6.5br2.dir/App/driver/bk4829.c.obj
                0x08003b84                BK4819_ResetFSK
 .text.BK4819_ExitBypass
                0x08003ba2       0x20 CMakeFiles/n7six.ApeX-k1.v7.6.5br2.dir/App/driver/bk4829.c.obj
                0x08003ba2                BK4819_ExitBypass
 *fill*         0x08003bc2        0x2 
 .text.BK4819_TxOn_Beep
                0x08003bc4       0x38 CMakeFiles/n7six.ApeX-k1.v7.6.5br2.dir/App/driver/bk4829.c.obj
                0x08003bc4                BK4819_TxOn_Beep
 .text.BK4819_PrepareTransmit
                0x08003bfc       0x10 CMakeFiles/n7six.ApeX-k1.v7.6.5br2.dir/App/driver/bk4829.c.obj
                0x08003bfc                BK4819_PrepareTransmit
 .text.BK4819_ExitSubAu
                0x08003c0c        0xc CMakeFiles/n7six.ApeX-k1.v7.6.5br2.dir/App/driver/bk4829.c.obj
                0x08003c0c                BK4819_ExitSubAu
 .text.BK4819_Conditional_RX_TurnOn_and_GPIO6_Enable
                0x08003c18       0x1c CMakeFiles/n7six.ApeX-k1.v7.6.5br2.dir/App/driver/bk4829.c.obj
                0x08003c18                BK4819_Conditional_RX_TurnOn_and_GPIO6_Enable
 .text.BK4819_ExitDTMF_TX
                0x08003c34       0x30 CMakeFiles/n7six.ApeX-k1.v7.6.5br2.dir/App/driver/bk4829.c.obj
                0x08003c34                BK4819_ExitDTMF_TX
 .text.BK4819_EnableTXLink
                0x08003c64       0x10 CMakeFiles/n7six.ApeX-k1.v7.6.5br2.dir/App/driver/bk4829.c.obj
                0x08003c64                BK4819_EnableTXLink
 .text.BK4819_PlaySingleTone
                0x08003c74       0x94 CMakeFiles/n7six.ApeX-k1.v7.6.5br2.dir/App/driver/bk4829.c.obj
                0x08003c74                BK4819_PlaySingleTone
 .text.BK4819_EnterDTMF_TX
                0x08003d08       0x2c CMakeFiles/n7six.ApeX-k1.v7.6.5br2.dir/App/driver/bk4829.c.obj
                0x08003d08                BK4819_EnterDTMF_TX
 .text.BK4819_PlayDTMF
                0x08003d34       0x7c CMakeFiles/n7six.ApeX-k1.v7.6.5br2.dir/App/driver/bk4829.c.obj
                0x08003d34                BK4819_PlayDTMF
 .text.BK4819_PlayDTMFString
                0x08003db0       0x5a CMakeFiles/n7six.ApeX-k1.v7.6.5br2.dir/App/driver/bk4829.c.obj
                0x08003db0                BK4819_PlayDTMFString
 *fill*         0x08003e0a        0x2 
 .text.BK4819_TransmitTone
                0x08003e0c       0x48 CMakeFiles/n7six.ApeX-k1.v7.6.5br2.dir/App/driver/bk4829.c.obj
                0x08003e0c                BK4819_TransmitTone
 .text.BK4819_GenTail
                0x08003e54       0x40 CMakeFiles/n7six.ApeX-k1.v7.6.5br2.dir/App/driver/bk4829.c.obj
                0x08003e54                BK4819_GenTail
 .text.BK4819_PlayCDCSSTail
                0x08003e94       0x18 CMakeFiles/n7six.ApeX-k1.v7.6.5br2.dir/App/driver/bk4829.c.obj
                0x08003e94                BK4819_PlayCDCSSTail
 .text.BK4819_PlayCTCSSTail
                0x08003eac       0x18 CMakeFiles/n7six.ApeX-k1.v7.6.5br2.dir/App/driver/bk4829.c.obj
                0x08003eac                BK4819_PlayCTCSSTail
 .text.BK4819_GetRSSI
                0x08003ec4        0xe CMakeFiles/n7six.ApeX-k1.v7.6.5br2.dir/App/driver/bk4829.c.obj
                0x08003ec4                BK4819_GetRSSI
 .text.BK4819_GetRSSI_dBm
                0x08003ed2        0xe CMakeFiles/n7six.ApeX-k1.v7.6.5br2.dir/App/driver/bk4829.c.obj
                0x08003ed2                BK4819_GetRSSI_dBm
 .text.BK4819_GetVoiceAmplitudeOut
                0x08003ee0        0xa CMakeFiles/n7six.ApeX-k1.v7.6.5br2.dir/App/driver/bk4829.c.obj
                0x08003ee0                BK4819_GetVoiceAmplitudeOut
 .text.BK4819_GetAfTxRx
                0x08003eea        0xe CMakeFiles/n7six.ApeX-k1.v7.6.5br2.dir/App/driver/bk4829.c.obj
                0x08003eea                BK4819_GetAfTxRx
 .text.BK4819_GetFrequencyScanResult
                0x08003ef8       0x30 CMakeFiles/n7six.ApeX-k1.v7.6.5br2.dir/App/driver/bk4829.c.obj
                0x08003ef8                BK4819_GetFrequencyScanResult
 .text.BK4819_GetCxCSSScanResult
                0x08003f28       0x58 CMakeFiles/n7six.ApeX-k1.v7.6.5br2.dir/App/driver/bk4829.c.obj
                0x08003f28                BK4819_GetCxCSSScanResult
 .text.BK4819_DisableFrequencyScan
                0x08003f80        0xe CMakeFiles/n7six.ApeX-k1.v7.6.5br2.dir/App/driver/bk4829.c.obj
                0x08003f80                BK4819_DisableFrequencyScan
 *fill*         0x08003f8e        0x2 
 .text.BK4819_EnableFrequencyScan
                0x08003f90       0x10 CMakeFiles/n7six.ApeX-k1.v7.6.5br2.dir/App/driver/bk4829.c.obj
                0x08003f90                BK4819_EnableFrequencyScan
 .text.BK4819_SetScanFrequency
                0x08003fa0       0x16 CMakeFiles/n7six.ApeX-k1.v7.6.5br2.dir/App/driver/bk4829.c.obj
                0x08003fa0                BK4819_SetScanFrequency
 .text.BK4819_Disable
                0x08003fb6        0x8 CMakeFiles/n7six.ApeX-k1.v7.6.5br2.dir/App/driver/bk4829.c.obj
                0x08003fb6                BK4819_Disable
 .text.BK4819_StopScan
                0x08003fbe        0xc CMakeFiles/n7six.ApeX-k1.v7.6.5br2.dir/App/driver/bk4829.c.obj
                0x08003fbe                BK4819_StopScan
 .text.BK4819_GetDTMF_5TONE_Code
                0x08003fca        0xe CMakeFiles/n7six.ApeX-k1.v7.6.5br2.dir/App/driver/bk4829.c.obj
                0x08003fca                BK4819_GetDTMF_5TONE_Code
 .text.BK4819_GetCDCSSCodeType
                0x08003fd8        0xe CMakeFiles/n7six.ApeX-k1.v7.6.5br2.dir/App/driver/bk4829.c.obj
                0x08003fd8                BK4819_GetCDCSSCodeType
 .text.BK4819_GetCTCType
                0x08003fe6        0xe CMakeFiles/n7six.ApeX-k1.v7.6.5br2.dir/App/driver/bk4829.c.obj
                0x08003fe6                BK4819_GetCTCType
 .text.BK4819_SendFSKData
                0x08003ff4       0x7c CMakeFiles/n7six.ApeX-k1.v7.6.5br2.dir/App/driver/bk4829.c.obj
                0x08003ff4                BK4819_SendFSKData
 .text.BK4819_PrepareFSKReceive
                0x08004070       0x40 CMakeFiles/n7six.ApeX-k1.v7.6.5br2.dir/App/driver/bk4829.c.obj
                0x08004070                BK4819_PrepareFSKReceive
 .text.BK4819_PlayRogerMDC
                0x080040b0       0x78 CMakeFiles/n7six.ApeX-k1.v7.6.5br2.dir/App/driver/bk4829.c.obj
                0x080040b0                BK4819_PlayRogerMDC
 .text.BK4819_PlayRoger
                0x08004128       0x80 CMakeFiles/n7six.ApeX-k1.v7.6.5br2.dir/App/driver/bk4829.c.obj
                0x08004128                BK4819_PlayRoger
 .text.BK4819_PlayDTMFEx
                0x080041a8       0x3c CMakeFiles/n7six.ApeX-k1.v7.6.5br2.dir/App/driver/bk4829.c.obj
                0x080041a8                BK4819_PlayDTMFEx
 .text.SPI_WriteByte
                0x080041e4       0x20 CMakeFiles/n7six.ApeX-k1.v7.6.5br2.dir/App/driver/py25q16.c.obj
 .text.WriteAddr
                0x08004204       0x1c CMakeFiles/n7six.ApeX-k1.v7.6.5br2.dir/App/driver/py25q16.c.obj
 .text.WaitWIP  0x08004220       0x30 CMakeFiles/n7six.ApeX-k1.v7.6.5br2.dir/App/driver/py25q16.c.obj
 .text.SectorErase
                0x08004250       0x2e CMakeFiles/n7six.ApeX-k1.v7.6.5br2.dir/App/driver/py25q16.c.obj
 *fill*         0x0800427e        0x2 
 .text.SectorProgram
                0x08004280      0x12c CMakeFiles/n7six.ApeX-k1.v7.6.5br2.dir/App/driver/py25q16.c.obj
 .text.PY25Q16_Init
                0x080043ac       0xf0 CMakeFiles/n7six.ApeX-k1.v7.6.5br2.dir/App/driver/py25q16.c.obj
                0x080043ac                PY25Q16_Init
 .text.PY25Q16_ReadBuffer
                0x0800449c       0xf4 CMakeFiles/n7six.ApeX-k1.v7.6.5br2.dir/App/driver/py25q16.c.obj
                0x0800449c                PY25Q16_ReadBuffer
 .text.PY25Q16_WriteBuffer
                0x08004590       0xdc CMakeFiles/n7six.ApeX-k1.v7.6.5br2.dir/App/driver/py25q16.c.obj
                0x08004590                PY25Q16_WriteBuffer
 .text.PY25Q16_SectorErase
                0x0800466c       0x2c CMakeFiles/n7six.ApeX-k1.v7.6.5br2.dir/App/driver/py25q16.c.obj
                0x0800466c                PY25Q16_SectorErase
 .text.DMA1_Channel4_5_6_7_IRQHandler
                0x08004698       0x64 CMakeFiles/n7six.ApeX-k1.v7.6.5br2.dir/App/driver/py25q16.c.obj
                0x08004698                DMA1_Channel4_5_6_7_IRQHandler
 .text.I2C_Start
                0x080046fc       0x30 CMakeFiles/n7six.ApeX-k1.v7.6.5br2.dir/App/driver/i2c.c.obj
                0x080046fc                I2C_Start
 .text.I2C_Stop
                0x0800472c       0x30 CMakeFiles/n7six.ApeX-k1.v7.6.5br2.dir/App/driver/i2c.c.obj
                0x0800472c                I2C_Stop
 .text.I2C_Read
                0x0800475c       0x98 CMakeFiles/n7six.ApeX-k1.v7.6.5br2.dir/App/driver/i2c.c.obj
                0x0800475c                I2C_Read
 .text.I2C_Write
                0x080047f4       0xa4 CMakeFiles/n7six.ApeX-k1.v7.6.5br2.dir/App/driver/i2c.c.obj
                0x080047f4                I2C_Write
 .text.I2C_ReadBuffer
                0x08004898       0x3e CMakeFiles/n7six.ApeX-k1.v7.6.5br2.dir/App/driver/i2c.c.obj
                0x08004898                I2C_ReadBuffer
 .text.I2C_WriteBuffer
                0x080048d6       0x20 CMakeFiles/n7six.ApeX-k1.v7.6.5br2.dir/App/driver/i2c.c.obj
                0x080048d6                I2C_WriteBuffer
 *fill*         0x080048f6        0x2 
 .text.KEYBOARD_Poll
                0x080048f8       0x8c CMakeFiles/n7six.ApeX-k1.v7.6.5br2.dir/App/driver/keyboard.c.obj
                0x080048f8                KEYBOARD_Poll
 .text.SPI_WriteByte.isra.0
                0x08004984       0x1c CMakeFiles/n7six.ApeX-k1.v7.6.5br2.dir/App/driver/st7565.c.obj
 .text.map      0x080049a0       0x1c CMakeFiles/n7six.ApeX-k1.v7.6.5br2.dir/App/driver/st7565.c.obj
                0x080049a0                map
 .text.ST7565_Gauge
                0x080049bc       0x50 CMakeFiles/n7six.ApeX-k1.v7.6.5br2.dir/App/driver/st7565.c.obj
                0x080049bc                ST7565_Gauge
 .text.ST7565_HardwareReset
                0x08004a0c        0x2 CMakeFiles/n7six.ApeX-k1.v7.6.5br2.dir/App/driver/st7565.c.obj
                0x08004a0c                ST7565_HardwareReset
 .text.ST7565_SelectColumnAndLine
                0x08004a0e       0x28 CMakeFiles/n7six.ApeX-k1.v7.6.5br2.dir/App/driver/st7565.c.obj
                0x08004a0e                ST7565_SelectColumnAndLine
 .text.DrawLine
                0x08004a36       0x30 CMakeFiles/n7six.ApeX-k1.v7.6.5br2.dir/App/driver/st7565.c.obj
 *fill*         0x08004a66        0x2 
 .text.ST7565_DrawLine
                0x08004a68       0x18 CMakeFiles/n7six.ApeX-k1.v7.6.5br2.dir/App/driver/st7565.c.obj
                0x08004a68                ST7565_DrawLine
 .text.ST7565_WriteByte
                0x08004a80       0x10 CMakeFiles/n7six.ApeX-k1.v7.6.5br2.dir/App/driver/st7565.c.obj
                0x08004a80                ST7565_WriteByte
 .text.ST7565_BlitScreen
                0x08004a90       0x5c CMakeFiles/n7six.ApeX-k1.v7.6.5br2.dir/App/driver/st7565.c.obj
 .text.ST7565_BlitFullScreen
                0x08004aec        0xa CMakeFiles/n7six.ApeX-k1.v7.6.5br2.dir/App/driver/st7565.c.obj
                0x08004aec                ST7565_BlitFullScreen
 .text.ST7565_BlitLine
                0x08004af6        0xc CMakeFiles/n7six.ApeX-k1.v7.6.5br2.dir/App/driver/st7565.c.obj
                0x08004af6                ST7565_BlitLine
 .text.ST7565_BlitStatusLine
                0x08004b02        0xa CMakeFiles/n7six.ApeX-k1.v7.6.5br2.dir/App/driver/st7565.c.obj
                0x08004b02                ST7565_BlitStatusLine
 .text.ST7565_FillScreen
                0x08004b0c       0x5c CMakeFiles/n7six.ApeX-k1.v7.6.5br2.dir/App/driver/st7565.c.obj
                0x08004b0c                ST7565_FillScreen
 .text.ST7565_Cmd
                0x08004b68       0x34 CMakeFiles/n7six.ApeX-k1.v7.6.5br2.dir/App/driver/st7565.c.obj
 .text.ST7565_FixInterfGlitch
                0x08004b9c       0x24 CMakeFiles/n7six.ApeX-k1.v7.6.5br2.dir/App/driver/st7565.c.obj
                0x08004b9c                ST7565_FixInterfGlitch
 .text.ST7565_ContrastAndInv
                0x08004bc0       0x28 CMakeFiles/n7six.ApeX-k1.v7.6.5br2.dir/App/driver/st7565.c.obj
                0x08004bc0                ST7565_ContrastAndInv
 .text.ST7565_Init
                0x08004be8      0x10c CMakeFiles/n7six.ApeX-k1.v7.6.5br2.dir/App/driver/st7565.c.obj
                0x08004be8                ST7565_Init
 .text.ST7565_ShutDown
                0x08004cf4       0x24 CMakeFiles/n7six.ApeX-k1.v7.6.5br2.dir/App/driver/st7565.c.obj
                0x08004cf4                ST7565_ShutDown
 .text.SYSTEM_DelayMs
                0x08004d18        0xe CMakeFiles/n7six.ApeX-k1.v7.6.5br2.dir/App/driver/system.c.obj
                0x08004d18                SYSTEM_DelayMs
 *fill*         0x08004d26        0x2 
 .text.SYSTICK_Init
                0x08004d28       0x40 CMakeFiles/n7six.ApeX-k1.v7.6.5br2.dir/App/driver/systick.c.obj
                0x08004d28                SYSTICK_Init
 .text.SYSTICK_DelayUs
                0x08004d68       0x34 CMakeFiles/n7six.ApeX-k1.v7.6.5br2.dir/App/driver/systick.c.obj
                0x08004d68                SYSTICK_DelayUs
 .text.ACTION_Power
                0x08004d9c       0x34 CMakeFiles/n7six.ApeX-k1.v7.6.5br2.dir/App/app/action.c.obj
                0x08004d9c                ACTION_Power
 .text.ACTION_SwitchDemodul
                0x08004dd0       0x24 CMakeFiles/n7six.ApeX-k1.v7.6.5br2.dir/App/app/action.c.obj
                0x08004dd0                ACTION_SwitchDemodul
 .text.ACTION_Vox
                0x08004df4       0x28 CMakeFiles/n7six.ApeX-k1.v7.6.5br2.dir/App/app/action.c.obj
                0x08004df4                ACTION_Vox
 .text.ACTION_Ptt
                0x08004e1c       0x10 CMakeFiles/n7six.ApeX-k1.v7.6.5br2.dir/App/app/action.c.obj
                0x08004e1c                ACTION_Ptt
 .text.ACTION_Power_High
                0x08004e2c       0x1c CMakeFiles/n7six.ApeX-k1.v7.6.5br2.dir/App/app/action.c.obj
                0x08004e2c                ACTION_Power_High
 .text.ACTION_Remove_Offset
                0x08004e48       0x1c CMakeFiles/n7six.ApeX-k1.v7.6.5br2.dir/App/app/action.c.obj
                0x08004e48                ACTION_Remove_Offset
 .text.ACTION_BackLight
                0x08004e64       0x28 CMakeFiles/n7six.ApeX-k1.v7.6.5br2.dir/App/app/action.c.obj
                0x08004e64                ACTION_BackLight
 .text.ACTION_Mute
                0x08004e8c       0x60 CMakeFiles/n7six.ApeX-k1.v7.6.5br2.dir/App/app/action.c.obj
                0x08004e8c                ACTION_Mute
 .text.ACTION_Monitor
                0x08004eec       0x88 CMakeFiles/n7six.ApeX-k1.v7.6.5br2.dir/App/app/action.c.obj
                0x08004eec                ACTION_Monitor
 .text.ACTION_FM
                0x08004f74       0x64 CMakeFiles/n7six.ApeX-k1.v7.6.5br2.dir/App/app/action.c.obj
                0x08004f74                ACTION_FM
 .text.ACTION_Wn
                0x08004fd8       0x5c CMakeFiles/n7six.ApeX-k1.v7.6.5br2.dir/App/app/action.c.obj
                0x08004fd8                ACTION_Wn
 .text.ACTION_1750
                0x08005034       0x48 CMakeFiles/n7six.ApeX-k1.v7.6.5br2.dir/App/app/action.c.obj
 .text.ACTION_Scan
                0x0800507c      0x148 CMakeFiles/n7six.ApeX-k1.v7.6.5br2.dir/App/app/action.c.obj
                0x0800507c                ACTION_Scan
 .text.ACTION_ScanRestart
                0x080051c4        0xa CMakeFiles/n7six.ApeX-k1.v7.6.5br2.dir/App/app/action.c.obj
 *fill*         0x080051ce        0x2 
 .text.ACTION_Handle
                0x080051d0       0xd0 CMakeFiles/n7six.ApeX-k1.v7.6.5br2.dir/App/app/action.c.obj
                0x080051d0                ACTION_Handle
 .text.ACTION_Update
                0x080052a0       0x20 CMakeFiles/n7six.ApeX-k1.v7.6.5br2.dir/App/app/action.c.obj
                0x080052a0                ACTION_Update
 .text.ACTION_RxMode
                0x080052c0       0x34 CMakeFiles/n7six.ApeX-k1.v7.6.5br2.dir/App/app/action.c.obj
                0x080052c0                ACTION_RxMode
 .text.ACTION_MainOnly
                0x080052f4       0x40 CMakeFiles/n7six.ApeX-k1.v7.6.5br2.dir/App/app/action.c.obj
                0x080052f4                ACTION_MainOnly
 .text.ACTION_BackLightOnDemand
                0x08005334       0x4c CMakeFiles/n7six.ApeX-k1.v7.6.5br2.dir/App/app/action.c.obj
                0x08005334                ACTION_BackLightOnDemand
 .text.DualwatchAlternate
                0x08005380       0x58 CMakeFiles/n7six.ApeX-k1.v7.6.5br2.dir/App/app/app.c.obj
 .text.HandleReceive
                0x080053d8      0x1f4 CMakeFiles/n7six.ApeX-k1.v7.6.5br2.dir/App/app/app.c.obj
 .text.CheckForIncoming
                0x080055cc       0x9c CMakeFiles/n7six.ApeX-k1.v7.6.5br2.dir/App/app/app.c.obj
 .text.HandlePowerSave
                0x08005668       0x14 CMakeFiles/n7six.ApeX-k1.v7.6.5br2.dir/App/app/app.c.obj
 .text.APP_StartListening
                0x0800567c      0x11c CMakeFiles/n7six.ApeX-k1.v7.6.5br2.dir/App/app/app.c.obj
                0x0800567c                APP_StartListening
 .text.HandleIncoming
                0x08005798       0xa4 CMakeFiles/n7six.ApeX-k1.v7.6.5br2.dir/App/app/app.c.obj
 .text.APP_SetFreqByStepAndLimits
                0x0800583c       0x2c CMakeFiles/n7six.ApeX-k1.v7.6.5br2.dir/App/app/app.c.obj
                0x0800583c                APP_SetFreqByStepAndLimits
 .text.APP_SetFrequencyByStep
                0x08005868       0x1c CMakeFiles/n7six.ApeX-k1.v7.6.5br2.dir/App/app/app.c.obj
                0x08005868                APP_SetFrequencyByStep
 .text.APP_EndTransmission
                0x08005884       0x28 CMakeFiles/n7six.ApeX-k1.v7.6.5br2.dir/App/app/app.c.obj
                0x08005884                APP_EndTransmission
 .text.cancelUserInputModes
                0x080058ac       0x7c CMakeFiles/n7six.ApeX-k1.v7.6.5br2.dir/App/app/app.c.obj
                0x080058ac                cancelUserInputModes
 .text.ProcessKey
                0x08005928      0x678 CMakeFiles/n7six.ApeX-k1.v7.6.5br2.dir/App/app/app.c.obj
 .text.APP_Update
                0x08005fa0      0x508 CMakeFiles/n7six.ApeX-k1.v7.6.5br2.dir/App/app/app.c.obj
                0x08005fa0                APP_Update
 .text.APP_TimeSlice10ms
                0x080064a8      0x614 CMakeFiles/n7six.ApeX-k1.v7.6.5br2.dir/App/app/app.c.obj
                0x080064a8                APP_TimeSlice10ms
 .text.APP_TimeSlice500ms
                0x08006abc      0x478 CMakeFiles/n7six.ApeX-k1.v7.6.5br2.dir/App/app/app.c.obj
                0x08006abc                APP_TimeSlice500ms
 .text.NextMemChannel
                0x08006f34      0x118 CMakeFiles/n7six.ApeX-k1.v7.6.5br2.dir/App/app/chFrScanner.c.obj
 .text.NextFreqChannel
                0x0800704c       0x60 CMakeFiles/n7six.ApeX-k1.v7.6.5br2.dir/App/app/chFrScanner.c.obj
 .text.CHFRSCANNER_Start
                0x080070ac       0xb4 CMakeFiles/n7six.ApeX-k1.v7.6.5br2.dir/App/app/chFrScanner.c.obj
                0x080070ac                CHFRSCANNER_Start
 .text.CHFRSCANNER_ContinueScanning
                0x08007160       0x6c CMakeFiles/n7six.ApeX-k1.v7.6.5br2.dir/App/app/chFrScanner.c.obj
                0x08007160                CHFRSCANNER_ContinueScanning
 .text.CHFRSCANNER_Found
                0x080071cc       0x78 CMakeFiles/n7six.ApeX-k1.v7.6.5br2.dir/App/app/chFrScanner.c.obj
                0x080071cc                CHFRSCANNER_Found
 .text.CHFRSCANNER_Stop
                0x08007244       0xb4 CMakeFiles/n7six.ApeX-k1.v7.6.5br2.dir/App/app/chFrScanner.c.obj
                0x08007244                CHFRSCANNER_Stop
 .text.COMMON_KeypadLockToggle
                0x080072f8       0x30 CMakeFiles/n7six.ApeX-k1.v7.6.5br2.dir/App/app/common.c.obj
                0x080072f8                COMMON_KeypadLockToggle
 .text.COMMON_SwitchVFOs
                0x08007328       0x54 CMakeFiles/n7six.ApeX-k1.v7.6.5br2.dir/App/app/common.c.obj
                0x08007328                COMMON_SwitchVFOs
 .text.COMMON_SwitchVFOMode
                0x0800737c       0x50 CMakeFiles/n7six.ApeX-k1.v7.6.5br2.dir/App/app/common.c.obj
                0x0800737c                COMMON_SwitchVFOMode
 .text.DTMF_BufferShiftAppend
                0x080073cc       0x3c CMakeFiles/n7six.ApeX-k1.v7.6.5br2.dir/App/app/dtmf.c.obj
                0x080073cc                DTMF_BufferShiftAppend
 .text.DTMF_SendEndOfTransmission
                0x08007408       0xa4 CMakeFiles/n7six.ApeX-k1.v7.6.5br2.dir/App/app/dtmf.c.obj
                0x08007408                DTMF_SendEndOfTransmission
 .text.DTMF_IsValidChar
                0x080074ac       0x20 CMakeFiles/n7six.ApeX-k1.v7.6.5br2.dir/App/app/dtmf.c.obj
                0x080074ac                DTMF_IsValidChar
 .text.DTMF_ValidateCodes
                0x080074cc       0x34 CMakeFiles/n7six.ApeX-k1.v7.6.5br2.dir/App/app/dtmf.c.obj
                0x080074cc                DTMF_ValidateCodes
 .text.DTMF_GetCharacter
                0x08007500       0x20 CMakeFiles/n7six.ApeX-k1.v7.6.5br2.dir/App/app/dtmf.c.obj
                0x08007500                DTMF_GetCharacter
 .text.DTMF_clear_input_box
                0x08007520       0x24 CMakeFiles/n7six.ApeX-k1.v7.6.5br2.dir/App/app/dtmf.c.obj
                0x08007520                DTMF_clear_input_box
 .text.DTMF_Append
                0x08007544       0x34 CMakeFiles/n7six.ApeX-k1.v7.6.5br2.dir/App/app/dtmf.c.obj
                0x08007544                DTMF_Append
 .text.DTMF_Reply
                0x08007578       0xb8 CMakeFiles/n7six.ApeX-k1.v7.6.5br2.dir/App/app/dtmf.c.obj
                0x08007578                DTMF_Reply
 .text.APP_SubscribeEvent
                0x08007630       0x48 CMakeFiles/n7six.ApeX-k1.v7.6.5br2.dir/App/app/events.c.obj
                0x08007630                APP_SubscribeEvent
 .text.APP_EventSystem_Init
                0x08007678       0x20 CMakeFiles/n7six.ApeX-k1.v7.6.5br2.dir/App/app/events.c.obj
                0x08007678                APP_EventSystem_Init
 .text.APP_InitializeEventHandlers
                0x08007698       0x28 CMakeFiles/n7six.ApeX-k1.v7.6.5br2.dir/App/app/events_handlers.c.obj
                0x08007698                APP_InitializeEventHandlers
 .text.GENERIC_Key_F
                0x080076c0       0x9c CMakeFiles/n7six.ApeX-k1.v7.6.5br2.dir/App/app/generic.c.obj
                0x080076c0                GENERIC_Key_F
 .text.GENERIC_Key_PTT
                0x0800775c      0x18c CMakeFiles/n7six.ApeX-k1.v7.6.5br2.dir/App/app/generic.c.obj
                0x0800775c                GENERIC_Key_PTT
 .text.processFKeyFunction
                0x080078e8      0x378 CMakeFiles/n7six.ApeX-k1.v7.6.5br2.dir/App/app/main.c.obj
 .text.MAIN_Key_UP_DOWN.part.0
                0x08007c60       0xe8 CMakeFiles/n7six.ApeX-k1.v7.6.5br2.dir/App/app/main.c.obj
 .text.channelMove
                0x08007d48       0x60 CMakeFiles/n7six.ApeX-k1.v7.6.5br2.dir/App/app/main.c.obj
                0x08007d48                channelMove
 .text.channelMoveSwitch
                0x08007da8       0x68 CMakeFiles/n7six.ApeX-k1.v7.6.5br2.dir/App/app/main.c.obj
                0x08007da8                channelMoveSwitch
 .text.MAIN_ProcessKeys
                0x08007e10      0x5b0 CMakeFiles/n7six.ApeX-k1.v7.6.5br2.dir/App/app/main.c.obj
                0x08007e10                MAIN_ProcessKeys
 .text.MENU_StartCssScan
                0x080083c0       0x24 CMakeFiles/n7six.ApeX-k1.v7.6.5br2.dir/App/app/menu.c.obj
                0x080083c0                MENU_StartCssScan
 .text.MENU_StopCssScan
                0x080083e4       0x20 CMakeFiles/n7six.ApeX-k1.v7.6.5br2.dir/App/app/menu.c.obj
                0x080083e4                MENU_StopCssScan
 .text.MENU_GetLimits
                0x08008404       0xe4 CMakeFiles/n7six.ApeX-k1.v7.6.5br2.dir/App/app/menu.c.obj
                0x08008404                MENU_GetLimits
 .text.MENU_Key_UP_DOWN
                0x080084e8      0x1c8 CMakeFiles/n7six.ApeX-k1.v7.6.5br2.dir/App/app/menu.c.obj
 .text.MENU_AcceptSetting
                0x080086b0      0x5bc CMakeFiles/n7six.ApeX-k1.v7.6.5br2.dir/App/app/menu.c.obj
                0x080086b0                MENU_AcceptSetting
 .text.MENU_ShowCurrentSetting
                0x08008c6c      0x408 CMakeFiles/n7six.ApeX-k1.v7.6.5br2.dir/App/app/menu.c.obj
                0x08008c6c                MENU_ShowCurrentSetting
 .text.MENU_CssScanFound
                0x08009074       0x3c CMakeFiles/n7six.ApeX-k1.v7.6.5br2.dir/App/app/menu.c.obj
                0x08009074                MENU_CssScanFound
 .text.MENU_ProcessKeys
                0x080090b0      0x550 CMakeFiles/n7six.ApeX-k1.v7.6.5br2.dir/App/app/menu.c.obj
                0x080090b0                MENU_ProcessKeys
 .text.SCANNER_Key_UP_DOWN
                0x08009600       0x68 CMakeFiles/n7six.ApeX-k1.v7.6.5br2.dir/App/app/scanner.c.obj
 .text.SCANNER_Start
                0x08009668      0x108 CMakeFiles/n7six.ApeX-k1.v7.6.5br2.dir/App/app/scanner.c.obj
                0x08009668                SCANNER_Start
 .text.SCANNER_IsScanning
                0x08009770       0x20 CMakeFiles/n7six.ApeX-k1.v7.6.5br2.dir/App/app/scanner.c.obj
                0x08009770                SCANNER_IsScanning
 .text.SCANNER_Stop
                0x08009790       0x50 CMakeFiles/n7six.ApeX-k1.v7.6.5br2.dir/App/app/scanner.c.obj
                0x08009790                SCANNER_Stop
 .text.SCANNER_ProcessKeys
                0x080097e0      0x2bc CMakeFiles/n7six.ApeX-k1.v7.6.5br2.dir/App/app/scanner.c.obj
                0x080097e0                SCANNER_ProcessKeys
 .text.SCANNER_TimeSlice10ms
                0x08009a9c      0x184 CMakeFiles/n7six.ApeX-k1.v7.6.5br2.dir/App/app/scanner.c.obj
                0x08009a9c                SCANNER_TimeSlice10ms
 .text.SCANNER_TimeSlice500ms
                0x08009c20       0x48 CMakeFiles/n7six.ApeX-k1.v7.6.5br2.dir/App/app/scanner.c.obj
                0x08009c20                SCANNER_TimeSlice500ms
 .text.AUDIO_PlayBeep
                0x08009c68      0x178 CMakeFiles/n7six.ApeX-k1.v7.6.5br2.dir/App/audio.c.obj
                0x08009c68                AUDIO_PlayBeep
 .text.BOARD_GPIO_Init
                0x08009de0       0xbc CMakeFiles/n7six.ApeX-k1.v7.6.5br2.dir/App/board.c.obj
                0x08009de0                BOARD_GPIO_Init
 .text.BOARD_ADC_Init
                0x08009e9c      0x1bc CMakeFiles/n7six.ApeX-k1.v7.6.5br2.dir/App/board.c.obj
                0x08009e9c                BOARD_ADC_Init
 .text.BOARD_ADC_GetBatteryInfo
                0x0800a058       0x2c CMakeFiles/n7six.ApeX-k1.v7.6.5br2.dir/App/board.c.obj
                0x0800a058                BOARD_ADC_GetBatteryInfo
 .text.BOARD_Init
                0x0800a084       0x20 CMakeFiles/n7six.ApeX-k1.v7.6.5br2.dir/App/board.c.obj
                0x0800a084                BOARD_Init
 .text.DCS_GetGolayCodeWord
                0x0800a0a4       0x4c CMakeFiles/n7six.ApeX-k1.v7.6.5br2.dir/App/dcs.c.obj
                0x0800a0a4                DCS_GetGolayCodeWord
 .text.DCS_GetCdcssCode
                0x0800a0f0       0x5c CMakeFiles/n7six.ApeX-k1.v7.6.5br2.dir/App/dcs.c.obj
                0x0800a0f0                DCS_GetCdcssCode
 .text.DCS_GetCtcssCode
                0x0800a14c       0x2c CMakeFiles/n7six.ApeX-k1.v7.6.5br2.dir/App/dcs.c.obj
                0x0800a14c                DCS_GetCtcssCode
 .text.FREQUENCY_GetStepIdxFromSortedIdx
                0x0800a178        0xc CMakeFiles/n7six.ApeX-k1.v7.6.5br2.dir/App/frequencies.c.obj
                0x0800a178                FREQUENCY_GetStepIdxFromSortedIdx
 .text.FREQUENCY_GetSortedIdxFromStepIdx
                0x0800a184       0x1c CMakeFiles/n7six.ApeX-k1.v7.6.5br2.dir/App/frequencies.c.obj
                0x0800a184                FREQUENCY_GetSortedIdxFromStepIdx
 .text.FREQUENCY_GetBand
                0x0800a1a0       0x1c CMakeFiles/n7six.ApeX-k1.v7.6.5br2.dir/App/frequencies.c.obj
                0x0800a1a0                FREQUENCY_GetBand
 .text.FREQUENCY_CalculateOutputPower
                0x0800a1bc       0x36 CMakeFiles/n7six.ApeX-k1.v7.6.5br2.dir/App/frequencies.c.obj
                0x0800a1bc                FREQUENCY_CalculateOutputPower
 *fill*         0x0800a1f2        0x2 
 .text.FREQUENCY_RoundToStep
                0x0800a1f4       0x64 CMakeFiles/n7six.ApeX-k1.v7.6.5br2.dir/App/frequencies.c.obj
                0x0800a1f4                FREQUENCY_RoundToStep
 .text.TX_freq_check
                0x0800a258      0x1a4 CMakeFiles/n7six.ApeX-k1.v7.6.5br2.dir/App/frequencies.c.obj
                0x0800a258                TX_freq_check
 .text.RX_freq_check
                0x0800a3fc       0x34 CMakeFiles/n7six.ApeX-k1.v7.6.5br2.dir/App/frequencies.c.obj
                0x0800a3fc                RX_freq_check
 .text.FUNCTION_IsRx
                0x0800a430       0x18 CMakeFiles/n7six.ApeX-k1.v7.6.5br2.dir/App/functions.c.obj
                0x0800a430                FUNCTION_IsRx
 .text.FUNCTION_Init
                0x0800a448       0x90 CMakeFiles/n7six.ApeX-k1.v7.6.5br2.dir/App/functions.c.obj
                0x0800a448                FUNCTION_Init
 .text.FUNCTION_Foreground
                0x0800a4d8       0x44 CMakeFiles/n7six.ApeX-k1.v7.6.5br2.dir/App/functions.c.obj
                0x0800a4d8                FUNCTION_Foreground
 .text.FUNCTION_PowerSave
                0x0800a51c       0x80 CMakeFiles/n7six.ApeX-k1.v7.6.5br2.dir/App/functions.c.obj
                0x0800a51c                FUNCTION_PowerSave
 .text.FUNCTION_Transmit
                0x0800a59c       0xd0 CMakeFiles/n7six.ApeX-k1.v7.6.5br2.dir/App/functions.c.obj
                0x0800a59c                FUNCTION_Transmit
 .text.FUNCTION_Select
                0x0800a66c       0xd0 CMakeFiles/n7six.ApeX-k1.v7.6.5br2.dir/App/functions.c.obj
                0x0800a66c                FUNCTION_Select
 .text.BATTERY_VoltsToPercent
                0x0800a73c       0x7c CMakeFiles/n7six.ApeX-k1.v7.6.5br2.dir/App/helper/battery.c.obj
                0x0800a73c                BATTERY_VoltsToPercent
 .text.BATTERY_GetReadings
                0x0800a7b8      0x154 CMakeFiles/n7six.ApeX-k1.v7.6.5br2.dir/App/helper/battery.c.obj
                0x0800a7b8                BATTERY_GetReadings
 .text.BATTERY_TimeSlice500ms
                0x0800a90c       0xb4 CMakeFiles/n7six.ApeX-k1.v7.6.5br2.dir/App/helper/battery.c.obj
                0x0800a90c                BATTERY_TimeSlice500ms
 .text.BOOT_GetMode
                0x0800a9c0       0x74 CMakeFiles/n7six.ApeX-k1.v7.6.5br2.dir/App/helper/boot.c.obj
                0x0800a9c0                BOOT_GetMode
 .text.BOOT_ProcessMode
                0x0800aa34       0x9c CMakeFiles/n7six.ApeX-k1.v7.6.5br2.dir/App/helper/boot.c.obj
                0x0800aa34                BOOT_ProcessMode
 .text.FUNCTION_NOP
                0x0800aad0        0x2 CMakeFiles/n7six.ApeX-k1.v7.6.5br2.dir/App/misc.c.obj
                0x0800aad0                FUNCTION_NOP
 *fill*         0x0800aad2        0x2 
 .text.NUMBER_AddWithWraparound
                0x0800aad4       0x20 CMakeFiles/n7six.ApeX-k1.v7.6.5br2.dir/App/misc.c.obj
                0x0800aad4                NUMBER_AddWithWraparound
 .text.StrToUL  0x0800aaf4       0x2a CMakeFiles/n7six.ApeX-k1.v7.6.5br2.dir/App/misc.c.obj
                0x0800aaf4                StrToUL
 *fill*         0x0800ab1e        0x2 
 .text.RADIO_SelectCurrentVfo
                0x0800ab20       0x2c CMakeFiles/n7six.ApeX-k1.v7.6.5br2.dir/App/radio.c.obj
 .text.RADIO_CheckValidChannel
                0x0800ab4c       0x88 CMakeFiles/n7six.ApeX-k1.v7.6.5br2.dir/App/radio.c.obj
                0x0800ab4c                RADIO_CheckValidChannel
 .text.RADIO_FindNextChannel
                0x0800abd4       0x3c CMakeFiles/n7six.ApeX-k1.v7.6.5br2.dir/App/radio.c.obj
                0x0800abd4                RADIO_FindNextChannel
 .text.RADIO_ConfigureSquelchAndOutputPower
                0x0800ac10      0x1d4 CMakeFiles/n7six.ApeX-k1.v7.6.5br2.dir/App/radio.c.obj
                0x0800ac10                RADIO_ConfigureSquelchAndOutputPower
 .text.RADIO_InitInfo
                0x0800ade4       0x6c CMakeFiles/n7six.ApeX-k1.v7.6.5br2.dir/App/radio.c.obj
                0x0800ade4                RADIO_InitInfo
 .text.RADIO_ApplyOffset
                0x0800ae50       0x1c CMakeFiles/n7six.ApeX-k1.v7.6.5br2.dir/App/radio.c.obj
                0x0800ae50                RADIO_ApplyOffset
 .text.RADIO_ConfigureChannel
                0x0800ae6c      0x3c8 CMakeFiles/n7six.ApeX-k1.v7.6.5br2.dir/App/radio.c.obj
                0x0800ae6c                RADIO_ConfigureChannel
 .text.RADIO_SelectVfos
                0x0800b234       0x44 CMakeFiles/n7six.ApeX-k1.v7.6.5br2.dir/App/radio.c.obj
                0x0800b234                RADIO_SelectVfos
 .text.RADIO_SetTxParameters
                0x0800b278       0xe4 CMakeFiles/n7six.ApeX-k1.v7.6.5br2.dir/App/radio.c.obj
                0x0800b278                RADIO_SetTxParameters
 .text.RADIO_SetupAGC
                0x0800b35c       0x38 CMakeFiles/n7six.ApeX-k1.v7.6.5br2.dir/App/radio.c.obj
                0x0800b35c                RADIO_SetupAGC
 .text.RADIO_SetupRegisters
                0x0800b394      0x204 CMakeFiles/n7six.ApeX-k1.v7.6.5br2.dir/App/radio.c.obj
                0x0800b394                RADIO_SetupRegisters
 .text.RADIO_SetModulation
                0x0800b598      0x110 CMakeFiles/n7six.ApeX-k1.v7.6.5br2.dir/App/radio.c.obj
                0x0800b598                RADIO_SetModulation
 .text.RADIO_SetVfoState
                0x0800b6a8       0x4c CMakeFiles/n7six.ApeX-k1.v7.6.5br2.dir/App/radio.c.obj
                0x0800b6a8                RADIO_SetVfoState
 .text.RADIO_PrepareTX
                0x0800b6f4      0x140 CMakeFiles/n7six.ApeX-k1.v7.6.5br2.dir/App/radio.c.obj
                0x0800b6f4                RADIO_PrepareTX
 .text.RADIO_SendCssTail
                0x0800b834       0x28 CMakeFiles/n7six.ApeX-k1.v7.6.5br2.dir/App/radio.c.obj
                0x0800b834                RADIO_SendCssTail
 .text.RADIO_SendEndOfTransmission
                0x0800b85c       0x24 CMakeFiles/n7six.ApeX-k1.v7.6.5br2.dir/App/radio.c.obj
                0x0800b85c                RADIO_SendEndOfTransmission
 .text.RADIO_OnSaveChannel
                0x0800b880        0xa CMakeFiles/n7six.ApeX-k1.v7.6.5br2.dir/App/radio.c.obj
                0x0800b880                RADIO_OnSaveChannel
 *fill*         0x0800b88a        0x2 
 .text.SysTick_Handler
                0x0800b88c      0x228 CMakeFiles/n7six.ApeX-k1.v7.6.5br2.dir/App/scheduler.c.obj
                0x0800b88c                SysTick_Handler
 .text.SETTINGS_InitEEPROM
                0x0800bab4      0x5ec CMakeFiles/n7six.ApeX-k1.v7.6.5br2.dir/App/settings.c.obj
                0x0800bab4                SETTINGS_InitEEPROM
 .text.SETTINGS_LoadCalibration
                0x0800c0a0      0x168 CMakeFiles/n7six.ApeX-k1.v7.6.5br2.dir/App/settings.c.obj
                0x0800c0a0                SETTINGS_LoadCalibration
 .text.SETTINGS_FetchChannelFrequency
                0x0800c208       0x10 CMakeFiles/n7six.ApeX-k1.v7.6.5br2.dir/App/settings.c.obj
                0x0800c208                SETTINGS_FetchChannelFrequency
 .text.SETTINGS_FetchChannelName
                0x0800c218       0x52 CMakeFiles/n7six.ApeX-k1.v7.6.5br2.dir/App/settings.c.obj
                0x0800c218                SETTINGS_FetchChannelName
 *fill*         0x0800c26a        0x2 
 .text.SETTINGS_FactoryReset
                0x0800c26c       0xdc CMakeFiles/n7six.ApeX-k1.v7.6.5br2.dir/App/settings.c.obj
                0x0800c26c                SETTINGS_FactoryReset
 .text.SETTINGS_SaveFM
                0x0800c348       0x58 CMakeFiles/n7six.ApeX-k1.v7.6.5br2.dir/App/settings.c.obj
                0x0800c348                SETTINGS_SaveFM
 .text.SETTINGS_SaveVfoIndices
                0x0800c3a0       0x3c CMakeFiles/n7six.ApeX-k1.v7.6.5br2.dir/App/settings.c.obj
                0x0800c3a0                SETTINGS_SaveVfoIndices
 .text.SETTINGS_SaveSettings
                0x0800c3dc      0x368 CMakeFiles/n7six.ApeX-k1.v7.6.5br2.dir/App/settings.c.obj
                0x0800c3dc                SETTINGS_SaveSettings
 .text.SETTINGS_SaveBatteryCalibration
                0x0800c744       0x14 CMakeFiles/n7six.ApeX-k1.v7.6.5br2.dir/App/settings.c.obj
                0x0800c744                SETTINGS_SaveBatteryCalibration
 .text.SETTINGS_SaveChannelName
                0x0800c758       0x44 CMakeFiles/n7six.ApeX-k1.v7.6.5br2.dir/App/settings.c.obj
                0x0800c758                SETTINGS_SaveChannelName
 .text.SETTINGS_UpdateChannel
                0x0800c79c       0xc4 CMakeFiles/n7six.ApeX-k1.v7.6.5br2.dir/App/settings.c.obj
                0x0800c79c                SETTINGS_UpdateChannel
 .text.SETTINGS_SaveChannel
                0x0800c860       0xd0 CMakeFiles/n7six.ApeX-k1.v7.6.5br2.dir/App/settings.c.obj
                0x0800c860                SETTINGS_SaveChannel
 .text.SETTINGS_WriteBuildOptions
                0x0800c930       0x28 CMakeFiles/n7six.ApeX-k1.v7.6.5br2.dir/App/settings.c.obj
                0x0800c930                SETTINGS_WriteBuildOptions
 .text.SETTINGS_WriteCurrentState
                0x0800c958       0x48 CMakeFiles/n7six.ApeX-k1.v7.6.5br2.dir/App/settings.c.obj
                0x0800c958                SETTINGS_WriteCurrentState
 .text.SETTINGS_ResetTxLock
                0x0800c9a0       0x46 CMakeFiles/n7six.ApeX-k1.v7.6.5br2.dir/App/settings.c.obj
                0x0800c9a0                SETTINGS_ResetTxLock
 .text.SETTINGS_OnSaveChannel
                0x0800c9e6        0x8 CMakeFiles/n7six.ApeX-k1.v7.6.5br2.dir/App/settings.c.obj
                0x0800c9e6                SETTINGS_OnSaveChannel
 *fill*         0x0800c9ee        0x2 
 .text.UI_DrawBattery
                0x0800c9f0       0x50 CMakeFiles/n7six.ApeX-k1.v7.6.5br2.dir/App/ui/battery.c.obj
                0x0800c9f0                UI_DrawBattery
 .text.UI_DisplayBattery
                0x0800ca40       0x1c CMakeFiles/n7six.ApeX-k1.v7.6.5br2.dir/App/ui/battery.c.obj
                0x0800ca40                UI_DisplayBattery
 .text.UI_GenerateChannelString
                0x0800ca5c       0x4c CMakeFiles/n7six.ApeX-k1.v7.6.5br2.dir/App/ui/helper.c.obj
                0x0800ca5c                UI_GenerateChannelString
 .text.UI_GenerateChannelStringEx
                0x0800caa8       0x68 CMakeFiles/n7six.ApeX-k1.v7.6.5br2.dir/App/ui/helper.c.obj
                0x0800caa8                UI_GenerateChannelStringEx
 .text.UI_PrintStringBuffer
                0x0800cb10       0x4c CMakeFiles/n7six.ApeX-k1.v7.6.5br2.dir/App/ui/helper.c.obj
                0x0800cb10                UI_PrintStringBuffer
 .text.UI_PrintString
                0x0800cb5c       0x90 CMakeFiles/n7six.ApeX-k1.v7.6.5br2.dir/App/ui/helper.c.obj
                0x0800cb5c                UI_PrintString
 .text.UI_PrintStringSmall
                0x0800cbec       0x40 CMakeFiles/n7six.ApeX-k1.v7.6.5br2.dir/App/ui/helper.c.obj
                0x0800cbec                UI_PrintStringSmall
 .text.UI_PrintStringSmallNormal
                0x0800cc2c       0x14 CMakeFiles/n7six.ApeX-k1.v7.6.5br2.dir/App/ui/helper.c.obj
                0x0800cc2c                UI_PrintStringSmallNormal
 .text.UI_PrintStringSmallBold
                0x0800cc40       0x14 CMakeFiles/n7six.ApeX-k1.v7.6.5br2.dir/App/ui/helper.c.obj
                0x0800cc40                UI_PrintStringSmallBold
 .text.UI_PrintStringSmallBufferNormal
                0x0800cc54       0x10 CMakeFiles/n7six.ApeX-k1.v7.6.5br2.dir/App/ui/helper.c.obj
                0x0800cc54                UI_PrintStringSmallBufferNormal
 .text.UI_DisplayFrequency
                0x0800cc64       0xcc CMakeFiles/n7six.ApeX-k1.v7.6.5br2.dir/App/ui/helper.c.obj
                0x0800cc64                UI_DisplayFrequency
 .text.UI_DrawPixelBuffer
                0x0800cd30       0x2e CMakeFiles/n7six.ApeX-k1.v7.6.5br2.dir/App/ui/helper.c.obj
                0x0800cd30                UI_DrawPixelBuffer
 *fill*         0x0800cd5e        0x2 
 .text.PutPixel
                0x0800cd60       0x18 CMakeFiles/n7six.ApeX-k1.v7.6.5br2.dir/App/ui/helper.c.obj
                0x0800cd60                PutPixel
 .text.PutPixelStatus
                0x0800cd78       0x18 CMakeFiles/n7six.ApeX-k1.v7.6.5br2.dir/App/ui/helper.c.obj
                0x0800cd78                PutPixelStatus
 .text.GUI_DisplaySmallest
                0x0800cd90       0x7c CMakeFiles/n7six.ApeX-k1.v7.6.5br2.dir/App/ui/helper.c.obj
                0x0800cd90                GUI_DisplaySmallest
 .text.UI_Draw5x5Char
                0x0800ce0c       0xa8 CMakeFiles/n7six.ApeX-k1.v7.6.5br2.dir/App/ui/helper.c.obj
                0x0800ce0c                UI_Draw5x5Char
 .text.UI_Draw5x5String
                0x0800ceb4       0x24 CMakeFiles/n7six.ApeX-k1.v7.6.5br2.dir/App/ui/helper.c.obj
                0x0800ceb4                UI_Draw5x5String
 .text.UI_DrawLineBuffer
                0x0800ced8       0x94 CMakeFiles/n7six.ApeX-k1.v7.6.5br2.dir/App/ui/helper.c.obj
                0x0800ced8                UI_DrawLineBuffer
 .text.UI_DrawRectangleBuffer
                0x0800cf6c       0x54 CMakeFiles/n7six.ApeX-k1.v7.6.5br2.dir/App/ui/helper.c.obj
                0x0800cf6c                UI_DrawRectangleBuffer
 .text.UI_FillRectangleBuffer
                0x0800cfc0       0x56 CMakeFiles/n7six.ApeX-k1.v7.6.5br2.dir/App/ui/helper.c.obj
                0x0800cfc0                UI_FillRectangleBuffer
 *fill*         0x0800d016        0x2 
 .text.UI_DisplayClear
                0x0800d018       0x14 CMakeFiles/n7six.ApeX-k1.v7.6.5br2.dir/App/ui/helper.c.obj
                0x0800d018                UI_DisplayClear
 .text.UI_DisplayPopup
                0x0800d02c       0x2c CMakeFiles/n7six.ApeX-k1.v7.6.5br2.dir/App/ui/helper.c.obj
                0x0800d02c                UI_DisplayPopup
 .text.INPUTBOX_Append
                0x0800d058       0x30 CMakeFiles/n7six.ApeX-k1.v7.6.5br2.dir/App/ui/inputbox.c.obj
                0x0800d058                INPUTBOX_Append
 .text.INPUTBOX_GetAscii
                0x0800d088       0x28 CMakeFiles/n7six.ApeX-k1.v7.6.5br2.dir/App/ui/inputbox.c.obj
                0x0800d088                INPUTBOX_GetAscii
 .text.isMainOnly
                0x0800d0b0       0x18 CMakeFiles/n7six.ApeX-k1.v7.6.5br2.dir/App/ui/main.c.obj
 .text.DrawLevelBar
                0x0800d0c8       0x88 CMakeFiles/n7six.ApeX-k1.v7.6.5br2.dir/App/ui/main.c.obj
 .text.log2_approx
                0x0800d150       0x10 CMakeFiles/n7six.ApeX-k1.v7.6.5br2.dir/App/ui/main.c.obj
                0x0800d150                log2_approx
 .text.UI_DisplayAudioBar
                0x0800d160      0x130 CMakeFiles/n7six.ApeX-k1.v7.6.5br2.dir/App/ui/main.c.obj
                0x0800d160                UI_DisplayAudioBar
 .text.DisplayRSSIBar
                0x0800d290      0x1e4 CMakeFiles/n7six.ApeX-k1.v7.6.5br2.dir/App/ui/main.c.obj
                0x0800d290                DisplayRSSIBar
 .text.UI_MAIN_TimeSlice500ms
                0x0800d474       0xa4 CMakeFiles/n7six.ApeX-k1.v7.6.5br2.dir/App/ui/main.c.obj
                0x0800d474                UI_MAIN_TimeSlice500ms
 .text.UI_DisplayMain
                0x0800d518      0xcf0 CMakeFiles/n7six.ApeX-k1.v7.6.5br2.dir/App/ui/main.c.obj
                0x0800d518                UI_DisplayMain
 .text.UI_MENU_GetCurrentMenuId
                0x0800e208       0x1c CMakeFiles/n7six.ApeX-k1.v7.6.5br2.dir/App/ui/menu.c.obj
                0x0800e208                UI_MENU_GetCurrentMenuId
 .text.UI_MENU_GetMenuIdx
                0x0800e224       0x20 CMakeFiles/n7six.ApeX-k1.v7.6.5br2.dir/App/ui/menu.c.obj
                0x0800e224                UI_MENU_GetMenuIdx
 .text.UI_DisplayMenu
                0x0800e244      0xb74 CMakeFiles/n7six.ApeX-k1.v7.6.5br2.dir/App/ui/menu.c.obj
                0x0800e244                UI_DisplayMenu
 .text.UI_DisplayScanner
                0x0800edb8      0x198 CMakeFiles/n7six.ApeX-k1.v7.6.5br2.dir/App/ui/scanner.c.obj
                0x0800edb8                UI_DisplayScanner
 .text.convertTime.constprop.0
                0x0800ef50       0x64 CMakeFiles/n7six.ApeX-k1.v7.6.5br2.dir/App/ui/status.c.obj
 .text.UI_DisplayStatus
                0x0800efb4      0x2b4 CMakeFiles/n7six.ApeX-k1.v7.6.5br2.dir/App/ui/status.c.obj
                0x0800efb4                UI_DisplayStatus
 .text.GUI_DisplayScreen
                0x0800f268       0x1c CMakeFiles/n7six.ApeX-k1.v7.6.5br2.dir/App/ui/ui.c.obj
                0x0800f268                GUI_DisplayScreen
 .text.GUI_SelectNextDisplay
                0x0800f284       0x7c CMakeFiles/n7six.ApeX-k1.v7.6.5br2.dir/App/ui/ui.c.obj
                0x0800f284                GUI_SelectNextDisplay
 .text.UI_OnChannelChange
                0x0800f300        0xc CMakeFiles/n7six.ApeX-k1.v7.6.5br2.dir/App/ui/ui.c.obj
                0x0800f300                UI_OnChannelChange
 .text.UI_DisplayReleaseKeys
                0x0800f30c       0x48 CMakeFiles/n7six.ApeX-k1.v7.6.5br2.dir/App/ui/welcome.c.obj
                0x0800f30c                UI_DisplayReleaseKeys
 .text.UI_DisplayWelcome
                0x0800f354      0x1a8 CMakeFiles/n7six.ApeX-k1.v7.6.5br2.dir/App/ui/welcome.c.obj
                0x0800f354                UI_DisplayWelcome
 .text.Main     0x0800f4fc      0x34c CMakeFiles/n7six.ApeX-k1.v7.6.5br2.dir/App/main.c.obj
                0x0800f4fc                Main
 .text._out_buffer
                0x0800f848        0x8 CMakeFiles/n7six.ApeX-k1.v7.6.5br2.dir/App/external/printf/printf.c.obj
 .text._out_null
                0x0800f850        0x2 CMakeFiles/n7six.ApeX-k1.v7.6.5br2.dir/App/external/printf/printf.c.obj
 .text._ntoa_long
                0x0800f852      0x1c2 CMakeFiles/n7six.ApeX-k1.v7.6.5br2.dir/App/external/printf/printf.c.obj
 .text._vsnprintf
                0x0800fa14      0x42c CMakeFiles/n7six.ApeX-k1.v7.6.5br2.dir/App/external/printf/printf.c.obj
 .text.sprintf_
                0x0800fe40       0x28 CMakeFiles/n7six.ApeX-k1.v7.6.5br2.dir/App/external/printf/printf.c.obj
                0x0800fe40                sprintf_
 .text.CRC_Init
                0x0800fe68        0x2 CMakeFiles/n7six.ApeX-k1.v7.6.5br2.dir/App/driver/crc.c.obj
                0x0800fe68                CRC_Init
 *fill*         0x0800fe6a        0x2 
 .text.CRC_Calculate
                0x0800fe6c       0x3c CMakeFiles/n7six.ApeX-k1.v7.6.5br2.dir/App/driver/crc.c.obj
                0x0800fe6c                CRC_Calculate
 .text.AddrTranslate
                0x0800fea8       0x70 CMakeFiles/n7six.ApeX-k1.v7.6.5br2.dir/App/driver/eeprom_compat.c.obj
 .text.EEPROM_ReadBuffer
                0x0800ff18       0x52 CMakeFiles/n7six.ApeX-k1.v7.6.5br2.dir/App/driver/eeprom_compat.c.obj
                0x0800ff18                EEPROM_ReadBuffer
 .text.EEPROM_WriteBuffer
                0x0800ff6a       0x4a CMakeFiles/n7six.ApeX-k1.v7.6.5br2.dir/App/driver/eeprom_compat.c.obj
                0x0800ff6a                EEPROM_WriteBuffer
 .text.UART_Init
                0x0800ffb4      0x130 CMakeFiles/n7six.ApeX-k1.v7.6.5br2.dir/App/driver/uart.c.obj
                0x0800ffb4                UART_Init
 .text.UART_Send
                0x080100e4       0x20 CMakeFiles/n7six.ApeX-k1.v7.6.5br2.dir/App/driver/uart.c.obj
                0x080100e4                UART_Send
 .text.UART_IsCableConnected
                0x08010104       0x24 CMakeFiles/n7six.ApeX-k1.v7.6.5br2.dir/App/driver/uart.c.obj
                0x08010104                UART_IsCableConnected
 .text.SendReply
                0x08010128       0xd0 CMakeFiles/n7six.ApeX-k1.v7.6.5br2.dir/App/app/uart.c.obj
 .text.UART_IsCommandAvailable
                0x080101f8      0x184 CMakeFiles/n7six.ApeX-k1.v7.6.5br2.dir/App/app/uart.c.obj
                0x080101f8                UART_IsCommandAvailable
 .text.UART_HandleCommand
                0x0801037c      0x210 CMakeFiles/n7six.ApeX-k1.v7.6.5br2.dir/App/app/uart.c.obj
                0x0801037c                UART_HandleCommand
 .text.VCP_Init
                0x0801058c       0x74 CMakeFiles/n7six.ApeX-k1.v7.6.5br2.dir/App/driver/vcp.c.obj
                0x0801058c                VCP_Init
 .text.usbd_cdc_acm_bulk_out
                0x08010600       0x74 CMakeFiles/n7six.ApeX-k1.v7.6.5br2.dir/App/usb/usbd_cdc_if.c.obj
                0x08010600                usbd_cdc_acm_bulk_out
 .text.usbd_cdc_acm_bulk_in
                0x08010674       0x28 CMakeFiles/n7six.ApeX-k1.v7.6.5br2.dir/App/usb/usbd_cdc_if.c.obj
                0x08010674                usbd_cdc_acm_bulk_in
 .text.usbd_configure_done_callback
                0x0801069c       0x14 CMakeFiles/n7six.ApeX-k1.v7.6.5br2.dir/App/usb/usbd_cdc_if.c.obj
                0x0801069c                usbd_configure_done_callback
 .text.cdc_acm_init
                0x080106b0       0x60 CMakeFiles/n7six.ApeX-k1.v7.6.5br2.dir/App/usb/usbd_cdc_if.c.obj
                0x080106b0                cdc_acm_init
 .text.usbd_cdc_acm_set_dtr
                0x08010710       0x14 CMakeFiles/n7six.ApeX-k1.v7.6.5br2.dir/App/usb/usbd_cdc_if.c.obj
                0x08010710                usbd_cdc_acm_set_dtr
 .text.cdc_acm_data_send_with_dtr_async
                0x08010724       0x12 CMakeFiles/n7six.ApeX-k1.v7.6.5br2.dir/App/usb/usbd_cdc_if.c.obj
                0x08010724                cdc_acm_data_send_with_dtr_async
 .text.BK1080_ReadRegister
                0x08010736       0x30 CMakeFiles/n7six.ApeX-k1.v7.6.5br2.dir/App/driver/bk1080.c.obj
                0x08010736                BK1080_ReadRegister
 .text.BK1080_WriteRegister
                0x08010766       0x30 CMakeFiles/n7six.ApeX-k1.v7.6.5br2.dir/App/driver/bk1080.c.obj
                0x08010766                BK1080_WriteRegister
 *fill*         0x08010796        0x2 
 .text.BK1080_Init0
                0x08010798       0x10 CMakeFiles/n7six.ApeX-k1.v7.6.5br2.dir/App/driver/bk1080.c.obj
                0x08010798                BK1080_Init0
 .text.BK1080_Mute
                0x080107a8       0x1c CMakeFiles/n7six.ApeX-k1.v7.6.5br2.dir/App/driver/bk1080.c.obj
                0x080107a8                BK1080_Mute
 .text.BK1080_SetFrequency
                0x080107c4       0x50 CMakeFiles/n7six.ApeX-k1.v7.6.5br2.dir/App/driver/bk1080.c.obj
                0x080107c4                BK1080_SetFrequency
 .text.BK1080_Init
                0x08010814       0x98 CMakeFiles/n7six.ApeX-k1.v7.6.5br2.dir/App/driver/bk1080.c.obj
                0x08010814                BK1080_Init
 .text.BK1080_GetFrequencyDeviation
                0x080108ac       0x1c CMakeFiles/n7six.ApeX-k1.v7.6.5br2.dir/App/driver/bk1080.c.obj
                0x080108ac                BK1080_GetFrequencyDeviation
 .text.BK1080_GetFreqLoLimit
                0x080108c8       0x10 CMakeFiles/n7six.ApeX-k1.v7.6.5br2.dir/App/driver/bk1080.c.obj
                0x080108c8                BK1080_GetFreqLoLimit
 .text.BK1080_GetFreqHiLimit
                0x080108d8       0x10 CMakeFiles/n7six.ApeX-k1.v7.6.5br2.dir/App/driver/bk1080.c.obj
                0x080108d8                BK1080_GetFreqHiLimit
 .text.FM_CheckValidChannel
                0x080108e8       0x3c CMakeFiles/n7six.ApeX-k1.v7.6.5br2.dir/App/app/fm.c.obj
                0x080108e8                FM_CheckValidChannel
 .text.FM_FindNextChannel
                0x08010924       0x34 CMakeFiles/n7six.ApeX-k1.v7.6.5br2.dir/App/app/fm.c.obj
                0x08010924                FM_FindNextChannel
 .text.FM_ConfigureChannelState
                0x08010958       0x3c CMakeFiles/n7six.ApeX-k1.v7.6.5br2.dir/App/app/fm.c.obj
                0x08010958                FM_ConfigureChannelState
 .text.Key_FUNC
                0x08010994       0xa8 CMakeFiles/n7six.ApeX-k1.v7.6.5br2.dir/App/app/fm.c.obj
 .text.FM_TurnOff
                0x08010a3c       0x58 CMakeFiles/n7six.ApeX-k1.v7.6.5br2.dir/App/app/fm.c.obj
                0x08010a3c                FM_TurnOff
 .text.FM_EraseChannels
                0x08010a94       0x1c CMakeFiles/n7six.ApeX-k1.v7.6.5br2.dir/App/app/fm.c.obj
                0x08010a94                FM_EraseChannels
 .text.FM_Tune  0x08010ab0       0xb4 CMakeFiles/n7six.ApeX-k1.v7.6.5br2.dir/App/app/fm.c.obj
                0x08010ab0                FM_Tune
 .text.Key_UP_DOWN
                0x08010b64      0x104 CMakeFiles/n7six.ApeX-k1.v7.6.5br2.dir/App/app/fm.c.obj
 .text.FM_PlayAndUpdate
                0x08010c68       0x68 CMakeFiles/n7six.ApeX-k1.v7.6.5br2.dir/App/app/fm.c.obj
                0x08010c68                FM_PlayAndUpdate
 .text.FM_CheckFrequencyLock
                0x08010cd0       0x94 CMakeFiles/n7six.ApeX-k1.v7.6.5br2.dir/App/app/fm.c.obj
                0x08010cd0                FM_CheckFrequencyLock
 .text.FM_ProcessKeys
                0x08010d64      0x2ac CMakeFiles/n7six.ApeX-k1.v7.6.5br2.dir/App/app/fm.c.obj
                0x08010d64                FM_ProcessKeys
 .text.FM_Play  0x08011010       0xb4 CMakeFiles/n7six.ApeX-k1.v7.6.5br2.dir/App/app/fm.c.obj
                0x08011010                FM_Play
 .text.FM_Start
                0x080110c4       0x68 CMakeFiles/n7six.ApeX-k1.v7.6.5br2.dir/App/app/fm.c.obj
                0x080110c4                FM_Start
 .text.UI_DisplayFM
                0x0801112c      0x1d0 CMakeFiles/n7six.ApeX-k1.v7.6.5br2.dir/App/ui/fmradio.c.obj
                0x0801112c                UI_DisplayFM
 .text.AIRCOPY_clear
                0x080112fc       0x18 CMakeFiles/n7six.ApeX-k1.v7.6.5br2.dir/App/app/aircopy.c.obj
 .text.AIRCOPY_SendMessage
                0x08011314       0xb4 CMakeFiles/n7six.ApeX-k1.v7.6.5br2.dir/App/app/aircopy.c.obj
                0x08011314                AIRCOPY_SendMessage
 .text.AIRCOPY_StorePacket
                0x080113c8       0xe0 CMakeFiles/n7six.ApeX-k1.v7.6.5br2.dir/App/app/aircopy.c.obj
                0x080113c8                AIRCOPY_StorePacket
 .text.AIRCOPY_ProcessKeys
                0x080114a8      0x158 CMakeFiles/n7six.ApeX-k1.v7.6.5br2.dir/App/app/aircopy.c.obj
                0x080114a8                AIRCOPY_ProcessKeys
 .text.UI_DisplayAircopy
                0x08011600      0x1f8 CMakeFiles/n7six.ApeX-k1.v7.6.5br2.dir/App/ui/aircopy.c.obj
                0x08011600                UI_DisplayAircopy
 .text.FlashlightTimeSlice
                0x080117f8       0xa4 CMakeFiles/n7six.ApeX-k1.v7.6.5br2.dir/App/app/flashlight.c.obj
                0x080117f8                FlashlightTimeSlice
 .text.ACTION_FlashLight
                0x0801189c       0x38 CMakeFiles/n7six.ApeX-k1.v7.6.5br2.dir/App/app/flashlight.c.obj
                0x0801189c                ACTION_FlashLight
 .text.FastRandom
                0x080118d4       0x20 CMakeFiles/n7six.ApeX-k1.v7.6.5br2.dir/App/app/spectrum.c.obj
 .text.Rssi2DBm
                0x080118f4       0x20 CMakeFiles/n7six.ApeX-k1.v7.6.5br2.dir/App/app/spectrum.c.obj
 .text.ResetScanStats
                0x08011914       0x14 CMakeFiles/n7six.ApeX-k1.v7.6.5br2.dir/App/app/spectrum.c.obj
 .text.MarkSpectrumSettingsDirty
                0x08011928       0x18 CMakeFiles/n7six.ApeX-k1.v7.6.5br2.dir/App/app/spectrum.c.obj
 .text.UpdatePeakInfo
                0x08011940       0x90 CMakeFiles/n7six.ApeX-k1.v7.6.5br2.dir/App/app/spectrum.c.obj
 .text.MapMeasurementToDisplay
                0x080119d0       0x20 CMakeFiles/n7six.ApeX-k1.v7.6.5br2.dir/App/app/spectrum.c.obj
 .text.SetRssiHistory
                0x080119f0       0x1c CMakeFiles/n7six.ApeX-k1.v7.6.5br2.dir/App/app/spectrum.c.obj
 .text.GetRegMenuValue
                0x08011a0c       0x20 CMakeFiles/n7six.ApeX-k1.v7.6.5br2.dir/App/app/spectrum.c.obj
 .text.RestoreRegisters
                0x08011a2c       0x2c CMakeFiles/n7six.ApeX-k1.v7.6.5br2.dir/App/app/spectrum.c.obj
 .text.SetF     0x08011a58       0x38 CMakeFiles/n7six.ApeX-k1.v7.6.5br2.dir/App/app/spectrum.c.obj
 .text.ResetBlacklist
                0x08011a90       0x3c CMakeFiles/n7six.ApeX-k1.v7.6.5br2.dir/App/app/spectrum.c.obj
 .text.ToggleListeningBW
                0x08011acc       0x4c CMakeFiles/n7six.ApeX-k1.v7.6.5br2.dir/App/app/spectrum.c.obj
 .text.ToggleBacklight
                0x08011b18       0x24 CMakeFiles/n7six.ApeX-k1.v7.6.5br2.dir/App/app/spectrum.c.obj
 .text.SaveSettings
                0x08011b3c       0x44 CMakeFiles/n7six.ApeX-k1.v7.6.5br2.dir/App/app/spectrum.c.obj
 .text.SPECTRUM_SaveSettings
                0x08011b80       0x94 CMakeFiles/n7six.ApeX-k1.v7.6.5br2.dir/App/app/spectrum.c.obj
 .text.DrawF    0x08011c14       0xfc CMakeFiles/n7six.ApeX-k1.v7.6.5br2.dir/App/app/spectrum.c.obj
 .text.RecomputeSmoothedTrace
                0x08011d10       0x64 CMakeFiles/n7six.ApeX-k1.v7.6.5br2.dir/App/app/spectrum.c.obj
 .text.SetBandLed.part.0.constprop.0
                0x08011d74       0x3c CMakeFiles/n7six.ApeX-k1.v7.6.5br2.dir/App/app/spectrum.c.obj
 .text.ToggleRX
                0x08011db0      0x118 CMakeFiles/n7six.ApeX-k1.v7.6.5br2.dir/App/app/spectrum.c.obj
 .text.UpdateDBMax
                0x08011ec8       0x78 CMakeFiles/n7six.ApeX-k1.v7.6.5br2.dir/App/app/spectrum.c.obj
 .text.SYSTEM_DelayUs
                0x08011f40       0x12 CMakeFiles/n7six.ApeX-k1.v7.6.5br2.dir/App/app/spectrum.c.obj
                0x08011f40                SYSTEM_DelayUs
 .text.DrawLine
                0x08011f52       0x8c CMakeFiles/n7six.ApeX-k1.v7.6.5br2.dir/App/app/spectrum.c.obj
                0x08011f52                DrawLine
 *fill*         0x08011fde        0x2 
 .text.LockAGC  0x08011fe0       0x24 CMakeFiles/n7six.ApeX-k1.v7.6.5br2.dir/App/app/spectrum.c.obj
                0x08011fe0                LockAGC
 .text.SetRegMenuValue
                0x08012004       0x78 CMakeFiles/n7six.ApeX-k1.v7.6.5br2.dir/App/app/spectrum.c.obj
 .text.IsPeakOverLevel
                0x0801207c       0x1c CMakeFiles/n7six.ApeX-k1.v7.6.5br2.dir/App/app/spectrum.c.obj
                0x0801207c                IsPeakOverLevel
 .text.GetScanStep
                0x08012098       0x14 CMakeFiles/n7six.ApeX-k1.v7.6.5br2.dir/App/app/spectrum.c.obj
                0x08012098                GetScanStep
 .text.GetStepsCount
                0x080120ac       0x38 CMakeFiles/n7six.ApeX-k1.v7.6.5br2.dir/App/app/spectrum.c.obj
                0x080120ac                GetStepsCount
 .text.GetDisplayWidth
                0x080120e4       0x38 CMakeFiles/n7six.ApeX-k1.v7.6.5br2.dir/App/app/spectrum.c.obj
 .text.UpdateWaterfall
                0x0801211c       0xf8 CMakeFiles/n7six.ApeX-k1.v7.6.5br2.dir/App/app/spectrum.c.obj
 .text.SpecIdxToX
                0x08012214       0x1e CMakeFiles/n7six.ApeX-k1.v7.6.5br2.dir/App/app/spectrum.c.obj
 .text.GetBW    0x08012232       0x10 CMakeFiles/n7six.ApeX-k1.v7.6.5br2.dir/App/app/spectrum.c.obj
                0x08012232                GetBW
 *fill*         0x08012242        0x2 
 .text.GetFStart
                0x08012244       0x38 CMakeFiles/n7six.ApeX-k1.v7.6.5br2.dir/App/app/spectrum.c.obj
                0x08012244                GetFStart
 .text.InitScan
                0x0801227c       0x24 CMakeFiles/n7six.ApeX-k1.v7.6.5br2.dir/App/app/spectrum.c.obj
 .text.GetCentroidFrequency
                0x080122a0       0x94 CMakeFiles/n7six.ApeX-k1.v7.6.5br2.dir/App/app/spectrum.c.obj
 .text.TuneToPeak
                0x08012334       0x28 CMakeFiles/n7six.ApeX-k1.v7.6.5br2.dir/App/app/spectrum.c.obj
 .text.GetFEnd  0x0801235c       0x3c CMakeFiles/n7six.ApeX-k1.v7.6.5br2.dir/App/app/spectrum.c.obj
                0x0801235c                GetFEnd
 .text.GetRssi  0x08012398       0x1e CMakeFiles/n7six.ApeX-k1.v7.6.5br2.dir/App/app/spectrum.c.obj
                0x08012398                GetRssi
 *fill*         0x080123b6        0x2 
 .text.Measure  0x080123b8       0x30 CMakeFiles/n7six.ApeX-k1.v7.6.5br2.dir/App/app/spectrum.c.obj
 .text.RelaunchScan
                0x080123e8       0x50 CMakeFiles/n7six.ApeX-k1.v7.6.5br2.dir/App/app/spectrum.c.obj
 .text.ToggleModulation
                0x08012438       0x30 CMakeFiles/n7six.ApeX-k1.v7.6.5br2.dir/App/app/spectrum.c.obj
 .text.UpdateFreqChangeStep
                0x08012468       0x88 CMakeFiles/n7six.ApeX-k1.v7.6.5br2.dir/App/app/spectrum.c.obj
 .text.UpdateCurrentFreq
                0x080124f0       0x6c CMakeFiles/n7six.ApeX-k1.v7.6.5br2.dir/App/app/spectrum.c.obj
 .text.SetState
                0x0801255c       0x3c CMakeFiles/n7six.ApeX-k1.v7.6.5br2.dir/App/app/spectrum.c.obj
                0x0801255c                SetState
 .text.FreqInput
                0x08012598       0x3c CMakeFiles/n7six.ApeX-k1.v7.6.5br2.dir/App/app/spectrum.c.obj
 .text.UpdateFreqInput
                0x080125d4      0x19c CMakeFiles/n7six.ApeX-k1.v7.6.5br2.dir/App/app/spectrum.c.obj
 .text.Rssi2PX  0x08012770       0x74 CMakeFiles/n7six.ApeX-k1.v7.6.5br2.dir/App/app/spectrum.c.obj
                0x08012770                Rssi2PX
 .text.Rssi2Y   0x080127e4       0x12 CMakeFiles/n7six.ApeX-k1.v7.6.5br2.dir/App/app/spectrum.c.obj
                0x080127e4                Rssi2Y
 *fill*         0x080127f6        0x2 
 .text.RenderSpectrum
                0x080127f8      0x5b8 CMakeFiles/n7six.ApeX-k1.v7.6.5br2.dir/App/app/spectrum.c.obj
 .text.UpdateRssiTriggerLevel
                0x08012db0       0x34 CMakeFiles/n7six.ApeX-k1.v7.6.5br2.dir/App/app/spectrum.c.obj
                0x08012db0                UpdateRssiTriggerLevel
 .text.OnKeyDownStill
                0x08012de4      0x114 CMakeFiles/n7six.ApeX-k1.v7.6.5br2.dir/App/app/spectrum.c.obj
                0x08012de4                OnKeyDownStill
 .text.APP_RunSpectrum
                0x08012ef8      0xe68 CMakeFiles/n7six.ApeX-k1.v7.6.5br2.dir/App/app/spectrum.c.obj
                0x08012ef8                APP_RunSpectrum
 .text.HandleUserInput.isra.0
                0x08013d60       0xec CMakeFiles/n7six.ApeX-k1.v7.6.5br2.dir/App/app/breakout.c.obj
 .text.rand_custom
                0x08013e4c       0x20 CMakeFiles/n7six.ApeX-k1.v7.6.5br2.dir/App/app/breakout.c.obj
                0x08013e4c                rand_custom
 .text.reset    0x08013e6c       0x20 CMakeFiles/n7six.ApeX-k1.v7.6.5br2.dir/App/app/breakout.c.obj
                0x08013e6c                reset
 .text.playBeep
                0x08013e8c       0x24 CMakeFiles/n7six.ApeX-k1.v7.6.5br2.dir/App/app/breakout.c.obj
                0x08013e8c                playBeep
 .text.drawScore
                0x08013eb0       0x8c CMakeFiles/n7six.ApeX-k1.v7.6.5br2.dir/App/app/breakout.c.obj
                0x08013eb0                drawScore
 .text.initBall
                0x08013f3c       0x54 CMakeFiles/n7six.ApeX-k1.v7.6.5br2.dir/App/app/breakout.c.obj
                0x08013f3c                initBall
 .text.initWall
                0x08013f90       0x68 CMakeFiles/n7six.ApeX-k1.v7.6.5br2.dir/App/app/breakout.c.obj
                0x08013f90                initWall
 .text.drawWall
                0x08013ff8      0x144 CMakeFiles/n7six.ApeX-k1.v7.6.5br2.dir/App/app/breakout.c.obj
                0x08013ff8                drawWall
 .text.initRacket
                0x0801413c       0x4c CMakeFiles/n7six.ApeX-k1.v7.6.5br2.dir/App/app/breakout.c.obj
                0x0801413c                initRacket
 .text.drawBall
                0x08014188      0x1bc CMakeFiles/n7six.ApeX-k1.v7.6.5br2.dir/App/app/breakout.c.obj
                0x08014188                drawBall
 .text.drawRacket
                0x08014344       0x94 CMakeFiles/n7six.ApeX-k1.v7.6.5br2.dir/App/app/breakout.c.obj
                0x08014344                drawRacket
 .text.APP_RunBreakout
                0x080143d8       0xf4 CMakeFiles/n7six.ApeX-k1.v7.6.5br2.dir/App/app/breakout.c.obj
                0x080143d8                APP_RunBreakout
 .text.getScreenShot
                0x080144cc      0x1a4 CMakeFiles/n7six.ApeX-k1.v7.6.5br2.dir/App/screenshot.c.obj
                0x080144cc                getScreenShot
 .text.usbd_class_event_notify_handler
                0x08014670       0x24 CMakeFiles/n7six.ApeX-k1.v7.6.5br2.dir/Middlewares/CherryUSB/core/usbd_core.c.obj
 .text.usbd_set_endpoint
                0x08014694       0x2c CMakeFiles/n7six.ApeX-k1.v7.6.5br2.dir/Middlewares/CherryUSB/core/usbd_core.c.obj
 .text.usbd_setup_request_handler.constprop.0
                0x080146c0      0x380 CMakeFiles/n7six.ApeX-k1.v7.6.5br2.dir/Middlewares/CherryUSB/core/usbd_core.c.obj
 .text.usbd_event_resume_handler
                0x08014a40        0xc CMakeFiles/n7six.ApeX-k1.v7.6.5br2.dir/Middlewares/CherryUSB/core/usbd_core.c.obj
                0x08014a40                usbd_event_resume_handler
 .text.usbd_event_suspend_handler
                0x08014a4c        0xc CMakeFiles/n7six.ApeX-k1.v7.6.5br2.dir/Middlewares/CherryUSB/core/usbd_core.c.obj
                0x08014a4c                usbd_event_suspend_handler
 .text.usbd_event_reset_handler
                0x08014a58       0x38 CMakeFiles/n7six.ApeX-k1.v7.6.5br2.dir/Middlewares/CherryUSB/core/usbd_core.c.obj
                0x08014a58                usbd_event_reset_handler
 .text.usbd_event_ep0_setup_complete_handler
                0x08014a90       0x94 CMakeFiles/n7six.ApeX-k1.v7.6.5br2.dir/Middlewares/CherryUSB/core/usbd_core.c.obj
                0x08014a90                usbd_event_ep0_setup_complete_handler
 .text.usbd_event_ep_in_complete_handler
                0x08014b24       0x58 CMakeFiles/n7six.ApeX-k1.v7.6.5br2.dir/Middlewares/CherryUSB/core/usbd_core.c.obj
                0x08014b24                usbd_event_ep_in_complete_handler
 .text.usbd_event_ep_out_complete_handler
                0x08014b7c       0x64 CMakeFiles/n7six.ApeX-k1.v7.6.5br2.dir/Middlewares/CherryUSB/core/usbd_core.c.obj
                0x08014b7c                usbd_event_ep_out_complete_handler
 .text.usbd_desc_register
                0x08014be0       0x14 CMakeFiles/n7six.ApeX-k1.v7.6.5br2.dir/Middlewares/CherryUSB/core/usbd_core.c.obj
                0x08014be0                usbd_desc_register
 .text.usbd_add_interface
                0x08014bf4       0x2c CMakeFiles/n7six.ApeX-k1.v7.6.5br2.dir/Middlewares/CherryUSB/core/usbd_core.c.obj
                0x08014bf4                usbd_add_interface
 .text.usbd_add_endpoint
                0x08014c20       0x2c CMakeFiles/n7six.ApeX-k1.v7.6.5br2.dir/Middlewares/CherryUSB/core/usbd_core.c.obj
                0x08014c20                usbd_add_endpoint
 .text.usbd_initialize
                0x08014c4c        0x8 CMakeFiles/n7six.ApeX-k1.v7.6.5br2.dir/Middlewares/CherryUSB/core/usbd_core.c.obj
                0x08014c4c                usbd_initialize
 .text.pyusb_write_packet
                0x08014c54       0x20 CMakeFiles/n7six.ApeX-k1.v7.6.5br2.dir/Middlewares/CherryUSB/port/usb_dc_py32.c.obj
 .text.usbd_ep0_set_zlp_flag
                0x08014c74        0xc CMakeFiles/n7six.ApeX-k1.v7.6.5br2.dir/Middlewares/CherryUSB/port/usb_dc_py32.c.obj
                0x08014c74                usbd_ep0_set_zlp_flag
 .text.usb_dc_low_level_init
                0x08014c80        0x2 CMakeFiles/n7six.ApeX-k1.v7.6.5br2.dir/Middlewares/CherryUSB/port/usb_dc_py32.c.obj
                0x08014c80                usb_dc_low_level_init
 *fill*         0x08014c82        0x2 
 .text.usb_dc_init
                0x08014c84       0x20 CMakeFiles/n7six.ApeX-k1.v7.6.5br2.dir/Middlewares/CherryUSB/port/usb_dc_py32.c.obj
                0x08014c84                usb_dc_init
 .text.usbd_set_address
                0x08014ca4       0x18 CMakeFiles/n7six.ApeX-k1.v7.6.5br2.dir/Middlewares/CherryUSB/port/usb_dc_py32.c.obj
                0x08014ca4                usbd_set_address
 .text.usbd_ep_open
                0x08014cbc      0x124 CMakeFiles/n7six.ApeX-k1.v7.6.5br2.dir/Middlewares/CherryUSB/port/usb_dc_py32.c.obj
                0x08014cbc                usbd_ep_open
 .text.usbd_ep_close
                0x08014de0        0x4 CMakeFiles/n7six.ApeX-k1.v7.6.5br2.dir/Middlewares/CherryUSB/port/usb_dc_py32.c.obj
                0x08014de0                usbd_ep_close
 .text.usbd_ep_set_stall
                0x08014de4       0x4c CMakeFiles/n7six.ApeX-k1.v7.6.5br2.dir/Middlewares/CherryUSB/port/usb_dc_py32.c.obj
                0x08014de4                usbd_ep_set_stall
 .text.usbd_ep_clear_stall
                0x08014e30       0x50 CMakeFiles/n7six.ApeX-k1.v7.6.5br2.dir/Middlewares/CherryUSB/port/usb_dc_py32.c.obj
                0x08014e30                usbd_ep_clear_stall
 .text.usbd_ep_is_stalled
                0x08014e80       0x34 CMakeFiles/n7six.ApeX-k1.v7.6.5br2.dir/Middlewares/CherryUSB/port/usb_dc_py32.c.obj
                0x08014e80                usbd_ep_is_stalled
 .text.usbd_ep_start_write
                0x08014eb4      0x10c CMakeFiles/n7six.ApeX-k1.v7.6.5br2.dir/Middlewares/CherryUSB/port/usb_dc_py32.c.obj
                0x08014eb4                usbd_ep_start_write
 .text.usbd_ep_start_read
                0x08014fc0       0x94 CMakeFiles/n7six.ApeX-k1.v7.6.5br2.dir/Middlewares/CherryUSB/port/usb_dc_py32.c.obj
                0x08014fc0                usbd_ep_start_read
 .text.USB_IRQHandler
                0x08015054      0x2a8 CMakeFiles/n7six.ApeX-k1.v7.6.5br2.dir/Middlewares/CherryUSB/port/usb_dc_py32.c.obj
                0x08015054                USB_IRQHandler
 .text.cdc_notify_handler
                0x080152fc        0x2 CMakeFiles/n7six.ApeX-k1.v7.6.5br2.dir/Middlewares/CherryUSB/class/cdc/usbd_cdc.c.obj
 *fill*         0x080152fe        0x2 
 .text.usbd_cdc_acm_init_intf
                0x08015300       0x18 CMakeFiles/n7six.ApeX-k1.v7.6.5br2.dir/Middlewares/CherryUSB/class/cdc/usbd_cdc.c.obj
                0x08015300                usbd_cdc_acm_init_intf
 .text.usbd_cdc_acm_set_line_coding
                0x08015318        0x2 CMakeFiles/n7six.ApeX-k1.v7.6.5br2.dir/Middlewares/CherryUSB/class/cdc/usbd_cdc.c.obj
                0x08015318                usbd_cdc_acm_set_line_coding
 .text.usbd_cdc_acm_get_line_coding
                0x0801531a       0x1c CMakeFiles/n7six.ApeX-k1.v7.6.5br2.dir/Middlewares/CherryUSB/class/cdc/usbd_cdc.c.obj
                0x0801531a                usbd_cdc_acm_get_line_coding
 .text.usbd_cdc_acm_set_rts
                0x08015336        0x2 CMakeFiles/n7six.ApeX-k1.v7.6.5br2.dir/Middlewares/CherryUSB/class/cdc/usbd_cdc.c.obj
                0x08015336                usbd_cdc_acm_set_rts
 .text.cdc_acm_class_interface_request_handler
                0x08015338       0x70 CMakeFiles/n7six.ApeX-k1.v7.6.5br2.dir/Middlewares/CherryUSB/class/cdc/usbd_cdc.c.obj
 .text.__muldi3
                0x080153a8       0x5c /opt/toolchain/bin/../lib/gcc/arm-none-eabi/13.3.1/thumb/v6-m/nofp/libgcc.a(_muldi3.o)
                0x080153a8                __aeabi_lmul
                0x080153a8                __muldi3
 .text.__libc_init_array
                0x08015404       0x48 /opt/toolchain/bin/../lib/gcc/arm-none-eabi/13.3.1/../../../../arm-none-eabi/lib/thumb/v6-m/nofp/libg_nano.a(libc_a-init.o)
                0x08015404                __libc_init_array
 .text.memmove  0x0801544c       0x24 /opt/toolchain/bin/../lib/gcc/arm-none-eabi/13.3.1/../../../../arm-none-eabi/lib/thumb/v6-m/nofp/libg_nano.a(libc_a-memmove.o)
                0x0801544c                memmove
 .text.memset   0x08015470       0x10 /opt/toolchain/bin/../lib/gcc/arm-none-eabi/13.3.1/../../../../arm-none-eabi/lib/thumb/v6-m/nofp/libg_nano.a(libc_a-memset.o)
                0x08015470                memset
 .text.memcpy   0x08015480       0x12 /opt/toolchain/bin/../lib/gcc/arm-none-eabi/13.3.1/../../../../arm-none-eabi/lib/thumb/v6-m/nofp/libg_nano.a(libc_a-memcpy-stub.o)
                0x08015480                memcpy
 .text.strncpy  0x08015492       0x28 /opt/toolchain/bin/../lib/gcc/arm-none-eabi/13.3.1/../../../../arm-none-eabi/lib/thumb/v6-m/nofp/libg_nano.a(libc_a-strncpy.o)
                0x08015492                strncpy
 .text.strnlen  0x080154ba       0x16 /opt/toolchain/bin/../lib/gcc/arm-none-eabi/13.3.1/../../../../arm-none-eabi/lib/thumb/v6-m/nofp/libg_nano.a(libc_a-strnlen.o)
                0x080154ba                strnlen
 .text.memcmp   0x080154d0       0x1c /opt/toolchain/bin/../lib/gcc/arm-none-eabi/13.3.1/../../../../arm-none-eabi/lib/thumb/v6-m/nofp/libg_nano.a(libc_a-memcmp.o)
                0x080154d0                memcmp
 *(.glue_7)
 .glue_7        0x080154ec        0x0 linker stubs
 *(.glue_7t)
 .glue_7t       0x080154ec        0x0 linker stubs
 *(.eh_frame)
 .eh_frame      0x080154ec        0x0 /opt/toolchain/bin/../lib/gcc/arm-none-eabi/13.3.1/thumb/v6-m/nofp/crtbegin.o
 *(.init)
 .init          0x080154ec        0x4 /opt/toolchain/bin/../lib/gcc/arm-none-eabi/13.3.1/thumb/v6-m/nofp/crti.o
                0x080154ec                _init
 .init          0x080154f0        0x8 /opt/toolchain/bin/../lib/gcc/arm-none-eabi/13.3.1/thumb/v6-m/nofp/crtn.o
 *(.fini)
 .fini          0x080154f8        0x4 /opt/toolchain/bin/../lib/gcc/arm-none-eabi/13.3.1/thumb/v6-m/nofp/crti.o
                0x080154f8                _fini
 .fini          0x080154fc        0x8 /opt/toolchain/bin/../lib/gcc/arm-none-eabi/13.3.1/thumb/v6-m/nofp/crtn.o
                0x08015504                        . = ALIGN (0x4)
                0x08015504                        _etext = .

.vfp11_veneer   0x08015504        0x0
 .vfp11_veneer  0x08015504        0x0 linker stubs

.v4_bx          0x08015504        0x0
 .v4_bx         0x08015504        0x0 linker stubs

.iplt           0x08015504        0x0
 .iplt          0x08015504        0x0 /opt/toolchain/bin/../lib/gcc/arm-none-eabi/13.3.1/thumb/v6-m/nofp/crtbegin.o

.rodata         0x08015504     0x1ff4
                0x08015504                        . = ALIGN (0x4)
 *(.rodata)
 .rodata        0x08015504       0x64 CMakeFiles/n7six.ApeX-k1.v7.6.5br2.dir/App/driver/bk4829.c.obj
 .rodata        0x08015568       0x14 CMakeFiles/n7six.ApeX-k1.v7.6.5br2.dir/App/app/menu.c.obj
 .rodata        0x0801557c       0x70 CMakeFiles/n7six.ApeX-k1.v7.6.5br2.dir/App/ui/main.c.obj
 .rodata        0x080155ec        0xc CMakeFiles/n7six.ApeX-k1.v7.6.5br2.dir/App/driver/vcp.c.obj
 *(.rodata*)
 .rodata.HSIFreqTable
                0x080155f8       0x20 CMakeFiles/n7six.ApeX-k1.v7.6.5br2.dir/Core/Src/system_py32f071.c.obj
                0x080155f8                HSIFreqTable
 .rodata.APBPrescTable
                0x08015618       0x20 CMakeFiles/n7six.ApeX-k1.v7.6.5br2.dir/Core/Src/system_py32f071.c.obj
                0x08015618                APBPrescTable
 .rodata.AHBPrescTable
                0x08015638       0x40 CMakeFiles/n7six.ApeX-k1.v7.6.5br2.dir/Core/Src/system_py32f071.c.obj
                0x08015638                AHBPrescTable
 .rodata.CHANNEL_OFFSET_TAB
                0x08015678        0x7 CMakeFiles/n7six.ApeX-k1.v7.6.5br2.dir/Drivers/PY32F071_HAL_Driver/Src/py32f071_ll_dma.c.obj
 .rodata.value  0x0801567f        0xb CMakeFiles/n7six.ApeX-k1.v7.6.5br2.dir/App/driver/backlight.c.obj
                0x0801567f                value
 .rodata.BK4819_Init.str1.1
                0x0801568a      0x673 CMakeFiles/n7six.ApeX-k1.v7.6.5br2.dir/App/driver/bk4829.c.obj
                                 0x11 (size before relaxing)
 *fill*         0x08015cfd        0x1 
 .rodata.CSWTCH.58
                0x08015cfe        0x8 CMakeFiles/n7six.ApeX-k1.v7.6.5br2.dir/App/driver/bk4829.c.obj
 .rodata.FSK_RogerTable
                0x08015d06        0xe CMakeFiles/n7six.ApeX-k1.v7.6.5br2.dir/App/driver/bk4829.c.obj
 .rodata.keyboard
                0x08015d14       0x14 CMakeFiles/n7six.ApeX-k1.v7.6.5br2.dir/App/driver/keyboard.c.obj
 .rodata.HandleFunction_fn_table
                0x08015d28       0x1c CMakeFiles/n7six.ApeX-k1.v7.6.5br2.dir/App/app/app.c.obj
 .rodata.CSWTCH.21
                0x08015d44        0x6 CMakeFiles/n7six.ApeX-k1.v7.6.5br2.dir/App/app/dtmf.c.obj
 .rodata.MENU_Key_UP_DOWN.str1.1
                0x08015d4a        0xf CMakeFiles/n7six.ApeX-k1.v7.6.5br2.dir/App/app/menu.c.obj
 .rodata.CSWTCH.17
                0x08015d4a       0x10 CMakeFiles/n7six.ApeX-k1.v7.6.5br2.dir/App/audio.c.obj
 .rodata.BITMAP_PowerUser
                0x08015d5a        0x3 CMakeFiles/n7six.ApeX-k1.v7.6.5br2.dir/App/bitmaps.c.obj
                0x08015d5a                BITMAP_PowerUser
 .rodata.BITMAP_compand
                0x08015d5d        0x6 CMakeFiles/n7six.ApeX-k1.v7.6.5br2.dir/App/bitmaps.c.obj
                0x08015d5d                BITMAP_compand
 .rodata.BITMAP_ScanListAll
                0x08015d63       0x13 CMakeFiles/n7six.ApeX-k1.v7.6.5br2.dir/App/bitmaps.c.obj
                0x08015d63                BITMAP_ScanListAll
 .rodata.BITMAP_ScanList123
                0x08015d76       0x13 CMakeFiles/n7six.ApeX-k1.v7.6.5br2.dir/App/bitmaps.c.obj
                0x08015d76                BITMAP_ScanList123
 .rodata.BITMAP_ScanListE
                0x08015d89        0x7 CMakeFiles/n7six.ApeX-k1.v7.6.5br2.dir/App/bitmaps.c.obj
                0x08015d89                BITMAP_ScanListE
 .rodata.BITMAP_ScanList3
                0x08015d90        0x7 CMakeFiles/n7six.ApeX-k1.v7.6.5br2.dir/App/bitmaps.c.obj
                0x08015d90                BITMAP_ScanList3
 .rodata.BITMAP_ScanList2
                0x08015d97        0x7 CMakeFiles/n7six.ApeX-k1.v7.6.5br2.dir/App/bitmaps.c.obj
                0x08015d97                BITMAP_ScanList2
 .rodata.BITMAP_ScanList1
                0x08015d9e        0x7 CMakeFiles/n7six.ApeX-k1.v7.6.5br2.dir/App/bitmaps.c.obj
                0x08015d9e                BITMAP_ScanList1
 .rodata.BITMAP_ScanList0
                0x08015da5        0x7 CMakeFiles/n7six.ApeX-k1.v7.6.5br2.dir/App/bitmaps.c.obj
                0x08015da5                BITMAP_ScanList0
 .rodata.BITMAP_VFO_NotDefault
                0x08015dac        0x7 CMakeFiles/n7six.ApeX-k1.v7.6.5br2.dir/App/bitmaps.c.obj
                0x08015dac                BITMAP_VFO_NotDefault
 .rodata.BITMAP_VFO_Default
                0x08015db3        0x7 CMakeFiles/n7six.ApeX-k1.v7.6.5br2.dir/App/bitmaps.c.obj
                0x08015db3                BITMAP_VFO_Default
 .rodata.BITMAP_VFO_Lock
                0x08015dba        0x7 CMakeFiles/n7six.ApeX-k1.v7.6.5br2.dir/App/bitmaps.c.obj
                0x08015dba                BITMAP_VFO_Lock
 .rodata.BITMAP_Antenna
                0x08015dc1        0x5 CMakeFiles/n7six.ApeX-k1.v7.6.5br2.dir/App/bitmaps.c.obj
                0x08015dc1                BITMAP_Antenna
 .rodata.gFontVox
                0x08015dc6        0xc CMakeFiles/n7six.ApeX-k1.v7.6.5br2.dir/App/bitmaps.c.obj
                0x08015dc6                gFontVox
 .rodata.BITMAP_BatteryLevel1
                0x08015dd2       0x11 CMakeFiles/n7six.ApeX-k1.v7.6.5br2.dir/App/bitmaps.c.obj
                0x08015dd2                BITMAP_BatteryLevel1
 .rodata.BITMAP_BatteryLevel
                0x08015de3        0x2 CMakeFiles/n7six.ApeX-k1.v7.6.5br2.dir/App/bitmaps.c.obj
                0x08015de3                BITMAP_BatteryLevel
 .rodata.gFontHold
                0x08015de5        0xa CMakeFiles/n7six.ApeX-k1.v7.6.5br2.dir/App/bitmaps.c.obj
                0x08015de5                gFontHold
 .rodata.gFontRO
                0x08015def        0xc CMakeFiles/n7six.ApeX-k1.v7.6.5br2.dir/App/bitmaps.c.obj
                0x08015def                gFontRO
 .rodata.gFontDWR
                0x08015dfb       0x12 CMakeFiles/n7six.ApeX-k1.v7.6.5br2.dir/App/bitmaps.c.obj
                0x08015dfb                gFontDWR
 .rodata.gFontMO
                0x08015e0d        0xc CMakeFiles/n7six.ApeX-k1.v7.6.5br2.dir/App/bitmaps.c.obj
                0x08015e0d                gFontMO
 .rodata.gFontXB
                0x08015e19        0xc CMakeFiles/n7six.ApeX-k1.v7.6.5br2.dir/App/bitmaps.c.obj
                0x08015e19                gFontXB
 .rodata.gFontMute
                0x08015e25        0xc CMakeFiles/n7six.ApeX-k1.v7.6.5br2.dir/App/bitmaps.c.obj
                0x08015e25                gFontMute
 .rodata.gFontLight
                0x08015e31        0x9 CMakeFiles/n7six.ApeX-k1.v7.6.5br2.dir/App/bitmaps.c.obj
                0x08015e31                gFontLight
 .rodata.gFontKeyLock
                0x08015e3a        0x9 CMakeFiles/n7six.ApeX-k1.v7.6.5br2.dir/App/bitmaps.c.obj
                0x08015e3a                gFontKeyLock
 .rodata.gFontS
                0x08015e43        0x6 CMakeFiles/n7six.ApeX-k1.v7.6.5br2.dir/App/bitmaps.c.obj
                0x08015e43                gFontS
 .rodata.gFontF
                0x08015e49        0x8 CMakeFiles/n7six.ApeX-k1.v7.6.5br2.dir/App/bitmaps.c.obj
                0x08015e49                gFontF
 .rodata.gFontPttClassic
                0x08015e51        0xc CMakeFiles/n7six.ApeX-k1.v7.6.5br2.dir/App/bitmaps.c.obj
                0x08015e51                gFontPttClassic
 .rodata.gFontPttOnePush
                0x08015e5d        0xc CMakeFiles/n7six.ApeX-k1.v7.6.5br2.dir/App/bitmaps.c.obj
                0x08015e5d                gFontPttOnePush
 .rodata.gFontPowerSave
                0x08015e69        0xc CMakeFiles/n7six.ApeX-k1.v7.6.5br2.dir/App/bitmaps.c.obj
                0x08015e69                gFontPowerSave
 *fill*         0x08015e75        0x1 
 .rodata.DCS_Options
                0x08015e76       0xd0 CMakeFiles/n7six.ApeX-k1.v7.6.5br2.dir/App/dcs.c.obj
                0x08015e76                DCS_Options
 .rodata.CTCSS_Options
                0x08015f46       0x64 CMakeFiles/n7six.ApeX-k1.v7.6.5br2.dir/App/dcs.c.obj
                0x08015f46                CTCSS_Options
 .rodata.gFont3x5
                0x08015faa      0x120 CMakeFiles/n7six.ApeX-k1.v7.6.5br2.dir/App/font.c.obj
                0x08015faa                gFont3x5
 .rodata.gFontSmallBold
                0x080160ca      0x234 CMakeFiles/n7six.ApeX-k1.v7.6.5br2.dir/App/font.c.obj
                0x080160ca                gFontSmallBold
 .rodata.gFontSmall
                0x080162fe      0x234 CMakeFiles/n7six.ApeX-k1.v7.6.5br2.dir/App/font.c.obj
                0x080162fe                gFontSmall
 .rodata.gFontBigDigits
                0x08016532       0xdc CMakeFiles/n7six.ApeX-k1.v7.6.5br2.dir/App/font.c.obj
                0x08016532                gFontBigDigits
 .rodata.gFontBig
                0x0801660e      0x524 CMakeFiles/n7six.ApeX-k1.v7.6.5br2.dir/App/font.c.obj
                0x0801660e                gFontBig
 .rodata.StepSortedIndexes
                0x08016b32       0x18 CMakeFiles/n7six.ApeX-k1.v7.6.5br2.dir/App/frequencies.c.obj
                0x08016b32                StepSortedIndexes
 .rodata.gStepFrequencyTable
                0x08016b4a       0x30 CMakeFiles/n7six.ApeX-k1.v7.6.5br2.dir/App/frequencies.c.obj
                0x08016b4a                gStepFrequencyTable
 *fill*         0x08016b7a        0x2 
 .rodata.frequencyBandTable
                0x08016b7c       0x38 CMakeFiles/n7six.ApeX-k1.v7.6.5br2.dir/App/frequencies.c.obj
                0x08016b7c                frequencyBandTable
 .rodata.BX4819_band2
                0x08016bb4        0x8 CMakeFiles/n7six.ApeX-k1.v7.6.5br2.dir/App/frequencies.c.obj
                0x08016bb4                BX4819_band2
 .rodata.BX4819_band1
                0x08016bbc        0x8 CMakeFiles/n7six.ApeX-k1.v7.6.5br2.dir/App/frequencies.c.obj
                0x08016bbc                BX4819_band1
 .rodata.BATTERY_GetReadings.str1.1
                0x08016bc4        0x6 CMakeFiles/n7six.ApeX-k1.v7.6.5br2.dir/App/helper/battery.c.obj
 .rodata.Voltage2PercentageTable
                0x08016bc4       0x8c CMakeFiles/n7six.ApeX-k1.v7.6.5br2.dir/App/helper/battery.c.obj
                0x08016bc4                Voltage2PercentageTable
 .rodata.gMicGain_dB2
                0x08016c50        0x5 CMakeFiles/n7six.ApeX-k1.v7.6.5br2.dir/App/misc.c.obj
                0x08016c50                gMicGain_dB2
 *fill*         0x08016c55        0x1 
 .rodata.vox_stop_count_down_10ms
                0x08016c56        0x2 CMakeFiles/n7six.ApeX-k1.v7.6.5br2.dir/App/misc.c.obj
                0x08016c56                vox_stop_count_down_10ms
 .rodata.power_save2_10ms
                0x08016c58        0x2 CMakeFiles/n7six.ApeX-k1.v7.6.5br2.dir/App/misc.c.obj
                0x08016c58                power_save2_10ms
 .rodata.power_save1_10ms
                0x08016c5a        0x2 CMakeFiles/n7six.ApeX-k1.v7.6.5br2.dir/App/misc.c.obj
                0x08016c5a                power_save1_10ms
 .rodata.battery_save_count_10ms
                0x08016c5c        0x2 CMakeFiles/n7six.ApeX-k1.v7.6.5br2.dir/App/misc.c.obj
                0x08016c5c                battery_save_count_10ms
 .rodata.scan_pause_delay_in_5_10ms
                0x08016c5e        0x2 CMakeFiles/n7six.ApeX-k1.v7.6.5br2.dir/App/misc.c.obj
                0x08016c5e                scan_pause_delay_in_5_10ms
 .rodata.scan_pause_delay_in_3_10ms
                0x08016c60        0x2 CMakeFiles/n7six.ApeX-k1.v7.6.5br2.dir/App/misc.c.obj
                0x08016c60                scan_pause_delay_in_3_10ms
 .rodata.scan_pause_delay_in_2_10ms
                0x08016c62        0x2 CMakeFiles/n7six.ApeX-k1.v7.6.5br2.dir/App/misc.c.obj
                0x08016c62                scan_pause_delay_in_2_10ms
 .rodata.scan_pause_delay_in_1_10ms
                0x08016c64        0x2 CMakeFiles/n7six.ApeX-k1.v7.6.5br2.dir/App/misc.c.obj
                0x08016c64                scan_pause_delay_in_1_10ms
 .rodata.dual_watch_count_toggle_10ms
                0x08016c66        0x2 CMakeFiles/n7six.ApeX-k1.v7.6.5br2.dir/App/misc.c.obj
                0x08016c66                dual_watch_count_toggle_10ms
 .rodata.dual_watch_count_after_vox_10ms
                0x08016c68        0x2 CMakeFiles/n7six.ApeX-k1.v7.6.5br2.dir/App/misc.c.obj
                0x08016c68                dual_watch_count_after_vox_10ms
 .rodata.dual_watch_count_after_2_10ms
                0x08016c6a        0x2 CMakeFiles/n7six.ApeX-k1.v7.6.5br2.dir/App/misc.c.obj
                0x08016c6a                dual_watch_count_after_2_10ms
 .rodata.dual_watch_count_after_rx_10ms
                0x08016c6c        0x2 CMakeFiles/n7six.ApeX-k1.v7.6.5br2.dir/App/misc.c.obj
                0x08016c6c                dual_watch_count_after_rx_10ms
 .rodata.dual_watch_count_after_tx_10ms
                0x08016c6e        0x2 CMakeFiles/n7six.ApeX-k1.v7.6.5br2.dir/App/misc.c.obj
                0x08016c6e                dual_watch_count_after_tx_10ms
 .rodata.scan_delay_10ms
                0x08016c70        0x1 CMakeFiles/n7six.ApeX-k1.v7.6.5br2.dir/App/misc.c.obj
                0x08016c70                scan_delay_10ms
 *fill*         0x08016c71        0x1 
 .rodata.key_debounce_10ms
                0x08016c72        0x2 CMakeFiles/n7six.ApeX-k1.v7.6.5br2.dir/App/misc.c.obj
                0x08016c72                key_debounce_10ms
 .rodata.key_repeat_10ms
                0x08016c74        0x2 CMakeFiles/n7six.ApeX-k1.v7.6.5br2.dir/App/misc.c.obj
                0x08016c74                key_repeat_10ms
 .rodata.key_repeat_delay_10ms
                0x08016c76        0x2 CMakeFiles/n7six.ApeX-k1.v7.6.5br2.dir/App/misc.c.obj
                0x08016c76                key_repeat_delay_10ms
 .rodata.key_input_timeout_500ms
                0x08016c78        0x1 CMakeFiles/n7six.ApeX-k1.v7.6.5br2.dir/App/misc.c.obj
                0x08016c78                key_input_timeout_500ms
 .rodata.DTMF_RX_live_timeout_500ms
                0x08016c79        0x1 CMakeFiles/n7six.ApeX-k1.v7.6.5br2.dir/App/misc.c.obj
                0x08016c79                DTMF_RX_live_timeout_500ms
 .rodata.menu_timeout_long_500ms
                0x08016c7a        0x2 CMakeFiles/n7six.ApeX-k1.v7.6.5br2.dir/App/misc.c.obj
                0x08016c7a                menu_timeout_long_500ms
 .rodata.menu_timeout_500ms
                0x08016c7c        0x1 CMakeFiles/n7six.ApeX-k1.v7.6.5br2.dir/App/misc.c.obj
                0x08016c7c                menu_timeout_500ms
 .rodata.vfo_state_resume_countdown_500ms
                0x08016c7d        0x1 CMakeFiles/n7six.ApeX-k1.v7.6.5br2.dir/App/misc.c.obj
                0x08016c7d                vfo_state_resume_countdown_500ms
 .rodata.fm_restore_countdown_10ms
                0x08016c7e        0x2 CMakeFiles/n7six.ApeX-k1.v7.6.5br2.dir/App/misc.c.obj
                0x08016c7e                fm_restore_countdown_10ms
 .rodata.fm_play_countdown_noscan_10ms
                0x08016c80        0x2 CMakeFiles/n7six.ApeX-k1.v7.6.5br2.dir/App/misc.c.obj
                0x08016c80                fm_play_countdown_noscan_10ms
 .rodata.fm_play_countdown_scan_10ms
                0x08016c82        0x2 CMakeFiles/n7six.ApeX-k1.v7.6.5br2.dir/App/misc.c.obj
                0x08016c82                fm_play_countdown_scan_10ms
 .rodata.fm_radio_countdown_500ms
                0x08016c84        0x1 CMakeFiles/n7six.ApeX-k1.v7.6.5br2.dir/App/misc.c.obj
                0x08016c84                fm_radio_countdown_500ms
 .rodata.dividers.1
                0x08016c85        0x6 CMakeFiles/n7six.ApeX-k1.v7.6.5br2.dir/App/radio.c.obj
 .rodata.gModulationStr
                0x08016c8b        0xc CMakeFiles/n7six.ApeX-k1.v7.6.5br2.dir/App/radio.c.obj
                0x08016c8b                gModulationStr
 .rodata.str1.1
                0x08016c97       0x18 CMakeFiles/n7six.ApeX-k1.v7.6.5br2.dir/App/radio.c.obj
 *fill*         0x08016c97        0x1 
 .rodata.afDacGainRegSpec
                0x08016c98        0xc CMakeFiles/n7six.ApeX-k1.v7.6.5br2.dir/App/radio.c.obj
 .rodata.afcDisableRegSpec
                0x08016ca4        0xc CMakeFiles/n7six.ApeX-k1.v7.6.5br2.dir/App/radio.c.obj
 .rodata.SETTINGS_InitEEPROM.str1.1
                0x08016cb0        0xc CMakeFiles/n7six.ApeX-k1.v7.6.5br2.dir/App/settings.c.obj
 .rodata.SETTINGS_UpdateChannel.str1.1
                0x08016cb0        0x1 CMakeFiles/n7six.ApeX-k1.v7.6.5br2.dir/App/settings.c.obj
 .rodata.UI_GenerateChannelString.str1.1
                0x08016cb0        0x8 CMakeFiles/n7six.ApeX-k1.v7.6.5br2.dir/App/ui/helper.c.obj
 .rodata.UI_GenerateChannelStringEx.str1.1
                0x08016cb0       0x12 CMakeFiles/n7six.ApeX-k1.v7.6.5br2.dir/App/ui/helper.c.obj
 .rodata.UI_DisplayPopup.str1.1
                0x08016cb0        0xb CMakeFiles/n7six.ApeX-k1.v7.6.5br2.dir/App/ui/helper.c.obj
 .rodata.gFont5x5
                0x08016cb0       0x50 CMakeFiles/n7six.ApeX-k1.v7.6.5br2.dir/App/ui/helper.c.obj
 .rodata.DisplayRSSIBar.str1.1
                0x08016d00       0x1d CMakeFiles/n7six.ApeX-k1.v7.6.5br2.dir/App/ui/main.c.obj
 .rodata.UI_DisplayMain.str1.1
                0x08016d00       0x9c CMakeFiles/n7six.ApeX-k1.v7.6.5br2.dir/App/ui/main.c.obj
 .rodata.str1.1
                0x08016d00       0x4b CMakeFiles/n7six.ApeX-k1.v7.6.5br2.dir/App/ui/main.c.obj
 .rodata.dBmCorrTable
                0x08016d00        0x7 CMakeFiles/n7six.ApeX-k1.v7.6.5br2.dir/App/ui/main.c.obj
                0x08016d00                dBmCorrTable
 .rodata.UI_DisplayMenu.str1.1
                0x08016d07      0x178 CMakeFiles/n7six.ApeX-k1.v7.6.5br2.dir/App/ui/menu.c.obj
 .rodata.gSubMenu_SIDEFUNCTIONS_size
                0x08016d07        0x1 CMakeFiles/n7six.ApeX-k1.v7.6.5br2.dir/App/ui/menu.c.obj
                0x08016d07                gSubMenu_SIDEFUNCTIONS_size
 .rodata.str1.1
                0x08016d08      0x1e7 CMakeFiles/n7six.ApeX-k1.v7.6.5br2.dir/App/ui/menu.c.obj
 .rodata.gSubMenu_SIDEFUNCTIONS
                0x08016d08       0x98 CMakeFiles/n7six.ApeX-k1.v7.6.5br2.dir/App/ui/menu.c.obj
                0x08016d08                gSubMenu_SIDEFUNCTIONS
 .rodata.gSubMenu_SET_KEY
                0x08016da0       0x2d CMakeFiles/n7six.ApeX-k1.v7.6.5br2.dir/App/ui/menu.c.obj
                0x08016da0                gSubMenu_SET_KEY
 .rodata.gSubMenu_SET_NFM
                0x08016dcd       0x12 CMakeFiles/n7six.ApeX-k1.v7.6.5br2.dir/App/ui/menu.c.obj
                0x08016dcd                gSubMenu_SET_NFM
 .rodata.gSubMenu_SET_MET
                0x08016ddf       0x10 CMakeFiles/n7six.ApeX-k1.v7.6.5br2.dir/App/ui/menu.c.obj
                0x08016ddf                gSubMenu_SET_MET
 .rodata.gSubMenu_SET_LCK
                0x08016def       0x12 CMakeFiles/n7six.ApeX-k1.v7.6.5br2.dir/App/ui/menu.c.obj
                0x08016def                gSubMenu_SET_LCK
 .rodata.gSubMenu_SET_TOT
                0x08016e01       0x1c CMakeFiles/n7six.ApeX-k1.v7.6.5br2.dir/App/ui/menu.c.obj
                0x08016e01                gSubMenu_SET_TOT
 .rodata.gSubMenu_SET_PTT
                0x08016e1d       0x10 CMakeFiles/n7six.ApeX-k1.v7.6.5br2.dir/App/ui/menu.c.obj
                0x08016e1d                gSubMenu_SET_PTT
 .rodata.gSubMenu_SET_PWR
                0x08016e2d       0x2a CMakeFiles/n7six.ApeX-k1.v7.6.5br2.dir/App/ui/menu.c.obj
                0x08016e2d                gSubMenu_SET_PWR
 .rodata.gSubMenu_BATTYP
                0x08016e57       0x3c CMakeFiles/n7six.ApeX-k1.v7.6.5br2.dir/App/ui/menu.c.obj
                0x08016e57                gSubMenu_BATTYP
 .rodata.gSubMenu_BAT_TXT
                0x08016e93       0x18 CMakeFiles/n7six.ApeX-k1.v7.6.5br2.dir/App/ui/menu.c.obj
                0x08016e93                gSubMenu_BAT_TXT
 .rodata.gSubMenu_RX_TX
                0x08016eab       0x18 CMakeFiles/n7six.ApeX-k1.v7.6.5br2.dir/App/ui/menu.c.obj
                0x08016eab                gSubMenu_RX_TX
 *fill*         0x08016ec3        0x1 
 .rodata.gSubMenu_F_LOCK
                0x08016ec4       0x2c CMakeFiles/n7six.ApeX-k1.v7.6.5br2.dir/App/ui/menu.c.obj
                0x08016ec4                gSubMenu_F_LOCK
 .rodata.gSubMenu_RESET
                0x08016ef0        0x8 CMakeFiles/n7six.ApeX-k1.v7.6.5br2.dir/App/ui/menu.c.obj
                0x08016ef0                gSubMenu_RESET
 .rodata.gSubMenu_ROGER
                0x08016ef8       0x12 CMakeFiles/n7six.ApeX-k1.v7.6.5br2.dir/App/ui/menu.c.obj
                0x08016ef8                gSubMenu_ROGER
 .rodata.gSubMenu_PONMSG
                0x08016f0a       0x28 CMakeFiles/n7six.ApeX-k1.v7.6.5br2.dir/App/ui/menu.c.obj
                0x08016f0a                gSubMenu_PONMSG
 *fill*         0x08016f32        0x2 
 .rodata.gSubMenu_PTT_ID
                0x08016f34       0x14 CMakeFiles/n7six.ApeX-k1.v7.6.5br2.dir/App/ui/menu.c.obj
                0x08016f34                gSubMenu_PTT_ID
 .rodata.gSubMenu_MDF
                0x08016f48       0x10 CMakeFiles/n7six.ApeX-k1.v7.6.5br2.dir/App/ui/menu.c.obj
                0x08016f48                gSubMenu_MDF
 .rodata.gSubMenu_RXMode
                0x08016f58       0x10 CMakeFiles/n7six.ApeX-k1.v7.6.5br2.dir/App/ui/menu.c.obj
                0x08016f58                gSubMenu_RXMode
 .rodata.gSubMenu_OFF_ON
                0x08016f68        0x8 CMakeFiles/n7six.ApeX-k1.v7.6.5br2.dir/App/ui/menu.c.obj
                0x08016f68                gSubMenu_OFF_ON
 .rodata.gSubMenu_W_N
                0x08016f70        0xe CMakeFiles/n7six.ApeX-k1.v7.6.5br2.dir/App/ui/menu.c.obj
                0x08016f70                gSubMenu_W_N
 .rodata.gSubMenu_SFT_D
                0x08016f7e        0xc CMakeFiles/n7six.ApeX-k1.v7.6.5br2.dir/App/ui/menu.c.obj
                0x08016f7e                gSubMenu_SFT_D
 .rodata.gSubMenu_TXP
                0x08016f8a       0x30 CMakeFiles/n7six.ApeX-k1.v7.6.5br2.dir/App/ui/menu.c.obj
                0x08016f8a                gSubMenu_TXP
 .rodata.FIRST_HIDDEN_MENU_ITEM
                0x08016fba        0x1 CMakeFiles/n7six.ApeX-k1.v7.6.5br2.dir/App/ui/menu.c.obj
                0x08016fba                FIRST_HIDDEN_MENU_ITEM
 .rodata.MenuList
                0x08016fbb      0x258 CMakeFiles/n7six.ApeX-k1.v7.6.5br2.dir/App/ui/menu.c.obj
                0x08016fbb                MenuList
 .rodata.UI_DisplayScanner.str1.1
                0x08017213       0x63 CMakeFiles/n7six.ApeX-k1.v7.6.5br2.dir/App/ui/scanner.c.obj
 .rodata.convertTime.constprop.0.str1.1
                0x08017213        0xa CMakeFiles/n7six.ApeX-k1.v7.6.5br2.dir/App/ui/status.c.obj
 .rodata.UI_DisplayStatus.str1.1
                0x08017213       0x10 CMakeFiles/n7six.ApeX-k1.v7.6.5br2.dir/App/ui/status.c.obj
 *fill*         0x08017213        0x1 
 .rodata.UI_DisplayStatus.cst2
                0x08017214        0x2 CMakeFiles/n7six.ApeX-k1.v7.6.5br2.dir/App/ui/status.c.obj
 .rodata.UI_DisplayReleaseKeys.str1.1
                0x08017216       0x11 CMakeFiles/n7six.ApeX-k1.v7.6.5br2.dir/App/ui/welcome.c.obj
 .rodata.UI_DisplayWelcome.str1.1
                0x08017216       0x35 CMakeFiles/n7six.ApeX-k1.v7.6.5br2.dir/App/ui/welcome.c.obj
 .rodata.UART_Version
                0x08017216       0x2a CMakeFiles/n7six.ApeX-k1.v7.6.5br2.dir/App/version.c.obj
                0x08017216                UART_Version
 .rodata.Edition
                0x08017240        0x5 CMakeFiles/n7six.ApeX-k1.v7.6.5br2.dir/App/version.c.obj
                0x08017240                Edition
 .rodata.Version
                0x08017245       0x10 CMakeFiles/n7six.ApeX-k1.v7.6.5br2.dir/App/version.c.obj
                0x08017245                Version
 *fill*         0x08017255        0x3 
 .rodata.ADDR_MAPPINGS
                0x08017258       0xb8 CMakeFiles/n7six.ApeX-k1.v7.6.5br2.dir/App/driver/eeprom_compat.c.obj
 .rodata.Obfuscation
                0x08017310       0x10 CMakeFiles/n7six.ApeX-k1.v7.6.5br2.dir/App/app/uart.c.obj
 .rodata.cdc_descriptor
                0x08017320       0x9e CMakeFiles/n7six.ApeX-k1.v7.6.5br2.dir/App/usb/usbd_cdc_if.c.obj
 .rodata.lim.0  0x080173be        0x8 CMakeFiles/n7six.ApeX-k1.v7.6.5br2.dir/App/driver/bk1080.c.obj
 .rodata.lim.1  0x080173c6        0x8 CMakeFiles/n7six.ApeX-k1.v7.6.5br2.dir/App/driver/bk1080.c.obj
 .rodata.BK1080_RegisterTable
                0x080173ce       0x44 CMakeFiles/n7six.ApeX-k1.v7.6.5br2.dir/App/driver/bk1080.c.obj
 .rodata.UI_DisplayFM.str1.1
                0x08017412       0x61 CMakeFiles/n7six.ApeX-k1.v7.6.5br2.dir/App/ui/fmradio.c.obj
 .rodata.Obfuscation
                0x08017412       0x10 CMakeFiles/n7six.ApeX-k1.v7.6.5br2.dir/App/app/aircopy.c.obj
 .rodata.UI_DisplayAircopy.str1.1
                0x08017422       0x5d CMakeFiles/n7six.ApeX-k1.v7.6.5br2.dir/App/ui/aircopy.c.obj
 .rodata.DrawF.str1.1
                0x08017422       0x11 CMakeFiles/n7six.ApeX-k1.v7.6.5br2.dir/App/app/spectrum.c.obj
 .rodata.RenderSpectrum.str1.1
                0x08017422       0x29 CMakeFiles/n7six.ApeX-k1.v7.6.5br2.dir/App/app/spectrum.c.obj
 .rodata.APP_RunSpectrum.str1.1
                0x08017422       0x27 CMakeFiles/n7six.ApeX-k1.v7.6.5br2.dir/App/app/spectrum.c.obj
 .rodata.bayerMatrix.0
                0x08017422       0x10 CMakeFiles/n7six.ApeX-k1.v7.6.5br2.dir/App/app/spectrum.c.obj
 .rodata.registers_to_save
                0x08017432        0x7 CMakeFiles/n7six.ApeX-k1.v7.6.5br2.dir/App/app/spectrum.c.obj
 .rodata.str1.1
                0x08017439       0x41 CMakeFiles/n7six.ApeX-k1.v7.6.5br2.dir/App/app/spectrum.c.obj
 .rodata.VGAOptions
                0x08017439        0x8 CMakeFiles/n7six.ApeX-k1.v7.6.5br2.dir/App/app/spectrum.c.obj
                0x08017439                VGAOptions
 .rodata.LNAOptions
                0x08017441        0x8 CMakeFiles/n7six.ApeX-k1.v7.6.5br2.dir/App/app/spectrum.c.obj
                0x08017441                LNAOptions
 .rodata.LNAsOptions
                0x08017449        0x4 CMakeFiles/n7six.ApeX-k1.v7.6.5br2.dir/App/app/spectrum.c.obj
                0x08017449                LNAsOptions
 .rodata.modulationTypeTuneSteps
                0x0801744d        0x3 CMakeFiles/n7six.ApeX-k1.v7.6.5br2.dir/App/app/spectrum.c.obj
                0x0801744d                modulationTypeTuneSteps
 .rodata.bwOptions
                0x08017450        0xc CMakeFiles/n7six.ApeX-k1.v7.6.5br2.dir/App/app/spectrum.c.obj
                0x08017450                bwOptions
 .rodata.calTable
                0x0801745c       0x30 CMakeFiles/n7six.ApeX-k1.v7.6.5br2.dir/App/app/spectrum.c.obj
 .rodata.listenBWRegValues
                0x0801748c        0x6 CMakeFiles/n7six.ApeX-k1.v7.6.5br2.dir/App/app/spectrum.c.obj
 .rodata.scanStepValues
                0x08017492       0x1e CMakeFiles/n7six.ApeX-k1.v7.6.5br2.dir/App/app/spectrum.c.obj
 .rodata.U8RssiMap
                0x080174b0        0xa CMakeFiles/n7six.ApeX-k1.v7.6.5br2.dir/App/app/spectrum.c.obj
 .rodata.HandleUserInput.isra.0.str1.1
                0x080174ba        0x6 CMakeFiles/n7six.ApeX-k1.v7.6.5br2.dir/App/app/breakout.c.obj
 .rodata.drawScore.str1.1
                0x080174ba       0x20 CMakeFiles/n7six.ApeX-k1.v7.6.5br2.dir/App/app/breakout.c.obj
 .rodata.drawWall.str1.1
                0x080174ba       0x10 CMakeFiles/n7six.ApeX-k1.v7.6.5br2.dir/App/app/breakout.c.obj
 .rodata.drawBall.str1.1
                0x080174ba        0xa CMakeFiles/n7six.ApeX-k1.v7.6.5br2.dir/App/app/breakout.c.obj
 .rodata.BITMAP_block
                0x080174ba       0x3c CMakeFiles/n7six.ApeX-k1.v7.6.5br2.dir/App/app/breakout.c.obj
                0x080174ba                BITMAP_block
                0x080174f8                        . = ALIGN (0x4)
 *fill*         0x080174f6        0x2 

.rel.dyn        0x080174f8        0x0
 .rel.iplt      0x080174f8        0x0 /opt/toolchain/bin/../lib/gcc/arm-none-eabi/13.3.1/thumb/v6-m/nofp/crtbegin.o

.ARM.extab
 *(.ARM.extab* .gnu.linkonce.armextab.*)

.ARM            0x080174f8        0x0
                0x080174f8                        __exidx_start = .
 *(.ARM.exidx*)
                0x080174f8                        __exidx_end = .

.preinit_array  0x080174f8        0x0
                0x080174f8                        PROVIDE (__preinit_array_start = .)
 *(.preinit_array*)
                0x080174f8                        PROVIDE (__preinit_array_end = .)

.init_array     0x080174f8        0x4
                0x080174f8                        PROVIDE (__init_array_start = .)
 *(SORT_BY_NAME(.init_array.*))
 *(.init_array*)
 .init_array    0x080174f8        0x4 /opt/toolchain/bin/../lib/gcc/arm-none-eabi/13.3.1/thumb/v6-m/nofp/crtbegin.o
                0x080174fc                        PROVIDE (__init_array_end = .)

.fini_array     0x080174fc        0x4
                [!provide]                        PROVIDE (__fini_array_start = .)
 *(SORT_BY_NAME(.fini_array.*))
 *(.fini_array*)
 .fini_array    0x080174fc        0x4 /opt/toolchain/bin/../lib/gcc/arm-none-eabi/13.3.1/thumb/v6-m/nofp/crtbegin.o
                [!provide]                        PROVIDE (__fini_array_end = .)
                0x08017500                        _sidata = LOADADDR (.data)

.data           0x20000000      0x168 load address 0x08017500
                0x20000000                        . = ALIGN (0x4)
                0x20000000                        _sdata = .
 *(.data)
 *(.data*)
 .data.SystemCoreClock
                0x20000000        0x4 CMakeFiles/n7six.ApeX-k1.v7.6.5br2.dir/Core/Src/system_py32f071.c.obj
                0x20000000                SystemCoreClock
 .data.SectorCacheAddr
                0x20000004        0x4 CMakeFiles/n7six.ApeX-k1.v7.6.5br2.dir/App/driver/py25q16.c.obj
 .data.gKeyReading1
                0x20000008        0x1 CMakeFiles/n7six.ApeX-k1.v7.6.5br2.dir/App/driver/keyboard.c.obj
                0x20000008                gKeyReading1
 .data.gKeyReading0
                0x20000009        0x1 CMakeFiles/n7six.ApeX-k1.v7.6.5br2.dir/App/driver/keyboard.c.obj
                0x20000009                gKeyReading0
 .data.cmds     0x2000000a        0xb CMakeFiles/n7six.ApeX-k1.v7.6.5br2.dir/App/driver/st7565.c.obj
                0x2000000a                cmds
 *fill*         0x20000015        0x3 
 .data.action_opt_table
                0x20000018       0x58 CMakeFiles/n7six.ApeX-k1.v7.6.5br2.dir/App/app/action.c.obj
                0x20000018                action_opt_table
 .data.ProcessKeysFunctions
                0x20000070       0x14 CMakeFiles/n7six.ApeX-k1.v7.6.5br2.dir/App/app/app.c.obj
                0x20000070                ProcessKeysFunctions
 .data.gK5startup
                0x20000084        0x1 CMakeFiles/n7six.ApeX-k1.v7.6.5br2.dir/App/misc.c.obj
                0x20000084                gK5startup
 .data.gIsLocked
                0x20000085        0x1 CMakeFiles/n7six.ApeX-k1.v7.6.5br2.dir/App/misc.c.obj
                0x20000085                gIsLocked
 .data.gScheduleScanListen
                0x20000086        0x1 CMakeFiles/n7six.ApeX-k1.v7.6.5br2.dir/App/misc.c.obj
                0x20000086                gScheduleScanListen
 *fill*         0x20000087        0x1 
 .data.gTxTimeoutToneAlert
                0x20000088        0x2 CMakeFiles/n7six.ApeX-k1.v7.6.5br2.dir/App/misc.c.obj
                0x20000088                gTxTimeoutToneAlert
 .data.gScheduleDualWatch
                0x2000008a        0x1 CMakeFiles/n7six.ApeX-k1.v7.6.5br2.dir/App/misc.c.obj
                0x2000008a                gScheduleDualWatch
 *fill*         0x2000008b        0x1 
 .data.gBatterySaveCountdown_10ms
                0x2000008c        0x2 CMakeFiles/n7six.ApeX-k1.v7.6.5br2.dir/App/misc.c.obj
                0x2000008c                gBatterySaveCountdown_10ms
 .data.gSetting_set_ctr
                0x2000008e        0x1 CMakeFiles/n7six.ApeX-k1.v7.6.5br2.dir/App/misc.c.obj
                0x2000008e                gSetting_set_ctr
 .data.gSetting_set_pwr
                0x2000008f        0x1 CMakeFiles/n7six.ApeX-k1.v7.6.5br2.dir/App/misc.c.obj
                0x2000008f                gSetting_set_pwr
 .data.gSetting_set_off
                0x20000090        0x1 CMakeFiles/n7six.ApeX-k1.v7.6.5br2.dir/App/misc.c.obj
                0x20000090                gSetting_set_off
 *fill*         0x20000091        0x3 
 .data.VfoStateStr
                0x20000094       0x1c CMakeFiles/n7six.ApeX-k1.v7.6.5br2.dir/App/ui/main.c.obj
                0x20000094                VfoStateStr
 .data.UI_DisplayFunctions
                0x200000b0       0x14 CMakeFiles/n7six.ApeX-k1.v7.6.5br2.dir/App/ui/ui.c.obj
                0x200000b0                UI_DisplayFunctions
 .data.gRequestDisplayScreen
                0x200000c4        0x1 CMakeFiles/n7six.ApeX-k1.v7.6.5br2.dir/App/ui/ui.c.obj
                0x200000c4                gRequestDisplayScreen
 *fill*         0x200000c5        0x3 
 .data.cdc_in_ep
                0x200000c8        0x8 CMakeFiles/n7six.ApeX-k1.v7.6.5br2.dir/App/usb/usbd_cdc_if.c.obj
                0x200000c8                cdc_in_ep
 .data.cdc_out_ep
                0x200000d0        0x8 CMakeFiles/n7six.ApeX-k1.v7.6.5br2.dir/App/usb/usbd_cdc_if.c.obj
                0x200000d0                cdc_out_ep
 .data.gAircopySendCountdown.0
                0x200000d8        0x1 CMakeFiles/n7six.ApeX-k1.v7.6.5br2.dir/App/app/aircopy.c.obj
 *fill*         0x200000d9        0x1 
 .data.lfsr.4   0x200000da        0x2 CMakeFiles/n7six.ApeX-k1.v7.6.5br2.dir/App/app/spectrum.c.obj
 .data.BPFOptions
                0x200000dc       0x1c CMakeFiles/n7six.ApeX-k1.v7.6.5br2.dir/App/app/spectrum.c.obj
                0x200000dc                BPFOptions
 .data.settings
                0x200000f8       0x1c CMakeFiles/n7six.ApeX-k1.v7.6.5br2.dir/App/app/spectrum.c.obj
                0x200000f8                settings
 .data.registerSpecs
                0x20000114       0x3c CMakeFiles/n7six.ApeX-k1.v7.6.5br2.dir/App/app/spectrum.c.obj
                0x20000114                registerSpecs
 .data.kbd      0x20000150        0x3 CMakeFiles/n7six.ApeX-k1.v7.6.5br2.dir/App/app/spectrum.c.obj
 .data.audioState
                0x20000153        0x1 CMakeFiles/n7six.ApeX-k1.v7.6.5br2.dir/App/app/spectrum.c.obj
                0x20000153                audioState
 .data.preventKeypress
                0x20000154        0x1 CMakeFiles/n7six.ApeX-k1.v7.6.5br2.dir/App/app/spectrum.c.obj
                0x20000154                preventKeypress
 .data.newScanStart
                0x20000155        0x1 CMakeFiles/n7six.ApeX-k1.v7.6.5br2.dir/App/app/spectrum.c.obj
                0x20000155                newScanStart
 .data.redrawStatus
                0x20000156        0x1 CMakeFiles/n7six.ApeX-k1.v7.6.5br2.dir/App/app/spectrum.c.obj
                0x20000156                redrawStatus
 .data.isListening
                0x20000157        0x1 CMakeFiles/n7six.ApeX-k1.v7.6.5br2.dir/App/app/spectrum.c.obj
                0x20000157                isListening
 .data.kbd      0x20000158        0x3 CMakeFiles/n7six.ApeX-k1.v7.6.5br2.dir/App/app/breakout.c.obj
 *fill*         0x2000015b        0x1 
 .data.ballCount
                0x2000015c        0x2 CMakeFiles/n7six.ApeX-k1.v7.6.5br2.dir/App/app/breakout.c.obj
                0x2000015c                ballCount
 .data.levelCountBreackout
                0x2000015e        0x1 CMakeFiles/n7six.ApeX-k1.v7.6.5br2.dir/App/app/breakout.c.obj
                0x2000015e                levelCountBreackout
 *fill*         0x2000015f        0x1 
 .data.randSeed
                0x20000160        0x4 CMakeFiles/n7six.ApeX-k1.v7.6.5br2.dir/App/app/breakout.c.obj
 .data.keepAlive
                0x20000164        0x1 CMakeFiles/n7six.ApeX-k1.v7.6.5br2.dir/App/screenshot.c.obj
                0x20000168                        . = ALIGN (0x4)
 *fill*         0x20000165        0x3 
                0x20000168                        _edata = .

.tm_clone_table
                0x20000168        0x0 load address 0x08017668
 .tm_clone_table
                0x20000168        0x0 /opt/toolchain/bin/../lib/gcc/arm-none-eabi/13.3.1/thumb/v6-m/nofp/crtbegin.o
 .tm_clone_table
                0x20000168        0x0 /opt/toolchain/bin/../lib/gcc/arm-none-eabi/13.3.1/thumb/v6-m/nofp/crtend.o

.igot.plt       0x20000168        0x0 load address 0x08017668
 .igot.plt      0x20000168        0x0 /opt/toolchain/bin/../lib/gcc/arm-none-eabi/13.3.1/thumb/v6-m/nofp/crtbegin.o

.noncacheable   0x20000168      0x160 load address 0x08017668
 .noncacheable  0x20000168      0x160 CMakeFiles/n7six.ApeX-k1.v7.6.5br2.dir/Middlewares/CherryUSB/core/usbd_core.c.obj
                0x20000168                usbd_core_cfg
                0x200002c8                        . = ALIGN (0x4)

.bss            0x200002e0     0x3000 load address 0x080177c8
                0x200002e0                        _sbss = .
                0x200002e0                        __bss_start__ = _sbss
 *(.bss)
 *(.bss*)
 .bss.completed.1
                0x200002e0        0x1 /opt/toolchain/bin/../lib/gcc/arm-none-eabi/13.3.1/thumb/v6-m/nofp/crtbegin.o
 *fill*         0x200002e1        0x3 
 .bss.object.0  0x200002e4       0x18 /opt/toolchain/bin/../lib/gcc/arm-none-eabi/13.3.1/thumb/v6-m/nofp/crtbegin.o
 .bss.currentBrightness
                0x200002fc        0x1 CMakeFiles/n7six.ApeX-k1.v7.6.5br2.dir/App/driver/backlight.c.obj
 *fill*         0x200002fd        0x1 
 .bss.gSleepModeCountdown_500ms
                0x200002fe        0x2 CMakeFiles/n7six.ApeX-k1.v7.6.5br2.dir/App/driver/backlight.c.obj
                0x200002fe                gSleepModeCountdown_500ms
 .bss.backlightOn
                0x20000300        0x1 CMakeFiles/n7six.ApeX-k1.v7.6.5br2.dir/App/driver/backlight.c.obj
                0x20000300                backlightOn
 *fill*         0x20000301        0x1 
 .bss.gBacklightCountdown_500ms
                0x20000302        0x2 CMakeFiles/n7six.ApeX-k1.v7.6.5br2.dir/App/driver/backlight.c.obj
                0x20000302                gBacklightCountdown_500ms
 .bss.dutyCycle
                0x20000304      0x100 CMakeFiles/n7six.ApeX-k1.v7.6.5br2.dir/App/driver/backlight.c.obj
 .bss.gRxIdleMode
                0x20000404        0x1 CMakeFiles/n7six.ApeX-k1.v7.6.5br2.dir/App/driver/bk4829.c.obj
                0x20000404                gRxIdleMode
 *fill*         0x20000405        0x1 
 .bss.gBK4819_GpioOutState
                0x20000406        0x2 CMakeFiles/n7six.ApeX-k1.v7.6.5br2.dir/App/driver/bk4829.c.obj
 .bss.TC_Flag   0x20000408        0x1 CMakeFiles/n7six.ApeX-k1.v7.6.5br2.dir/App/driver/py25q16.c.obj
 .bss.BlackHole
                0x20000409        0x1 CMakeFiles/n7six.ApeX-k1.v7.6.5br2.dir/App/driver/py25q16.c.obj
 .bss.SectorCache
                0x2000040a     0x1000 CMakeFiles/n7six.ApeX-k1.v7.6.5br2.dir/App/driver/py25q16.c.obj
 .bss.gWasFKeyPressed
                0x2000140a        0x1 CMakeFiles/n7six.ApeX-k1.v7.6.5br2.dir/App/driver/keyboard.c.obj
                0x2000140a                gWasFKeyPressed
 *fill*         0x2000140b        0x1 
 .bss.gDebounceCounter
                0x2000140c        0x2 CMakeFiles/n7six.ApeX-k1.v7.6.5br2.dir/App/driver/keyboard.c.obj
                0x2000140c                gDebounceCounter
 .bss.gFrameBuffer
                0x2000140e      0x380 CMakeFiles/n7six.ApeX-k1.v7.6.5br2.dir/App/driver/st7565.c.obj
                0x2000140e                gFrameBuffer
 .bss.gStatusLine
                0x2000178e       0x80 CMakeFiles/n7six.ApeX-k1.v7.6.5br2.dir/App/driver/st7565.c.obj
                0x2000178e                gStatusLine
 *fill*         0x2000180e        0x2 
 .bss.gTickMultiplier
                0x20001810        0x4 CMakeFiles/n7six.ApeX-k1.v7.6.5br2.dir/App/driver/systick.c.obj
 .bss.cb.0      0x20001814        0x1 CMakeFiles/n7six.ApeX-k1.v7.6.5br2.dir/App/app/action.c.obj
 .bss.dw.1      0x20001815        0x1 CMakeFiles/n7six.ApeX-k1.v7.6.5br2.dir/App/app/action.c.obj
 .bss.cycle.2   0x20001816        0x1 CMakeFiles/n7six.ApeX-k1.v7.6.5br2.dir/App/app/action.c.obj
 .bss.cycle.3   0x20001817        0x1 CMakeFiles/n7six.ApeX-k1.v7.6.5br2.dir/App/app/action.c.obj
 .bss.counter.0
                0x20001818        0x1 CMakeFiles/n7six.ApeX-k1.v7.6.5br2.dir/App/app/app.c.obj
 .bss.goToSleep.1
                0x20001819        0x1 CMakeFiles/n7six.ApeX-k1.v7.6.5br2.dir/App/app/app.c.obj
 .bss.flagSaveChannel
                0x2000181a        0x1 CMakeFiles/n7six.ApeX-k1.v7.6.5br2.dir/App/app/app.c.obj
 .bss.flagSaveSettings
                0x2000181b        0x1 CMakeFiles/n7six.ApeX-k1.v7.6.5br2.dir/App/app/app.c.obj
 .bss.flagSaveVfo
                0x2000181c        0x1 CMakeFiles/n7six.ApeX-k1.v7.6.5br2.dir/App/app/app.c.obj
 *fill*         0x2000181d        0x3 
 .bss.prev_mr_chan.0
                0x20001820        0x4 CMakeFiles/n7six.ApeX-k1.v7.6.5br2.dir/App/app/chFrScanner.c.obj
 .bss.lastFoundFrqOrChanOld
                0x20001824        0x4 CMakeFiles/n7six.ApeX-k1.v7.6.5br2.dir/App/app/chFrScanner.c.obj
                0x20001824                lastFoundFrqOrChanOld
 .bss.lastFoundFrqOrChan
                0x20001828        0x4 CMakeFiles/n7six.ApeX-k1.v7.6.5br2.dir/App/app/chFrScanner.c.obj
                0x20001828                lastFoundFrqOrChan
 .bss.initialCROSS_BAND_RX_TX
                0x2000182c        0x1 CMakeFiles/n7six.ApeX-k1.v7.6.5br2.dir/App/app/chFrScanner.c.obj
                0x2000182c                initialCROSS_BAND_RX_TX
 *fill*         0x2000182d        0x3 
 .bss.initialFrqOrChan
                0x20001830        0x4 CMakeFiles/n7six.ApeX-k1.v7.6.5br2.dir/App/app/chFrScanner.c.obj
                0x20001830                initialFrqOrChan
 .bss.currentScanList
                0x20001834        0x1 CMakeFiles/n7six.ApeX-k1.v7.6.5br2.dir/App/app/chFrScanner.c.obj
                0x20001834                currentScanList
 *fill*         0x20001835        0x3 
 .bss.gScanRangeStop
                0x20001838        0x4 CMakeFiles/n7six.ApeX-k1.v7.6.5br2.dir/App/app/chFrScanner.c.obj
                0x20001838                gScanRangeStop
 .bss.gScanRangeStart
                0x2000183c        0x4 CMakeFiles/n7six.ApeX-k1.v7.6.5br2.dir/App/app/chFrScanner.c.obj
                0x2000183c                gScanRangeStart
 .bss.gScanPauseMode
                0x20001840        0x1 CMakeFiles/n7six.ApeX-k1.v7.6.5br2.dir/App/app/chFrScanner.c.obj
                0x20001840                gScanPauseMode
 .bss.gScanKeepResult
                0x20001841        0x1 CMakeFiles/n7six.ApeX-k1.v7.6.5br2.dir/App/app/chFrScanner.c.obj
                0x20001841                gScanKeepResult
 .bss.gScanStateDir
                0x20001842        0x1 CMakeFiles/n7six.ApeX-k1.v7.6.5br2.dir/App/app/chFrScanner.c.obj
                0x20001842                gScanStateDir
 .bss.gDTMF_ReplyState
                0x20001843        0x1 CMakeFiles/n7six.ApeX-k1.v7.6.5br2.dir/App/app/dtmf.c.obj
                0x20001843                gDTMF_ReplyState
 .bss.gDTMF_RX_live_timeout
                0x20001844        0x1 CMakeFiles/n7six.ApeX-k1.v7.6.5br2.dir/App/app/dtmf.c.obj
                0x20001844                gDTMF_RX_live_timeout
 .bss.gDTMF_RX_live
                0x20001845       0x14 CMakeFiles/n7six.ApeX-k1.v7.6.5br2.dir/App/app/dtmf.c.obj
                0x20001845                gDTMF_RX_live
 .bss.gDTMF_PreviousIndex
                0x20001859        0x1 CMakeFiles/n7six.ApeX-k1.v7.6.5br2.dir/App/app/dtmf.c.obj
                0x20001859                gDTMF_PreviousIndex
 .bss.gDTMF_InputMode
                0x2000185a        0x1 CMakeFiles/n7six.ApeX-k1.v7.6.5br2.dir/App/app/dtmf.c.obj
                0x2000185a                gDTMF_InputMode
 .bss.gDTMF_InputBox_Index
                0x2000185b        0x1 CMakeFiles/n7six.ApeX-k1.v7.6.5br2.dir/App/app/dtmf.c.obj
                0x2000185b                gDTMF_InputBox_Index
 .bss.gDTMF_InputBox
                0x2000185c        0xf CMakeFiles/n7six.ApeX-k1.v7.6.5br2.dir/App/app/dtmf.c.obj
                0x2000185c                gDTMF_InputBox
 .bss.gDTMF_String
                0x2000186b        0xf CMakeFiles/n7six.ApeX-k1.v7.6.5br2.dir/App/app/dtmf.c.obj
                0x2000186b                gDTMF_String
 .bss.g_subscriber_count
                0x2000187a        0x7 CMakeFiles/n7six.ApeX-k1.v7.6.5br2.dir/App/app/events.c.obj
 *fill*         0x20001881        0x3 
 .bss.g_subscribers
                0x20001884       0x70 CMakeFiles/n7six.ApeX-k1.v7.6.5br2.dir/App/app/events.c.obj
 .bss.gUnlockAllTxConfCnt
                0x200018f4        0x1 CMakeFiles/n7six.ApeX-k1.v7.6.5br2.dir/App/app/menu.c.obj
                0x200018f4                gUnlockAllTxConfCnt
 .bss.scanHitCount
                0x200018f5        0x1 CMakeFiles/n7six.ApeX-k1.v7.6.5br2.dir/App/app/scanner.c.obj
                0x200018f5                scanHitCount
 .bss.stepSetting
                0x200018f6        0x1 CMakeFiles/n7six.ApeX-k1.v7.6.5br2.dir/App/app/scanner.c.obj
                0x200018f6                stepSetting
 .bss.gScanUseCssResult
                0x200018f7        0x1 CMakeFiles/n7six.ApeX-k1.v7.6.5br2.dir/App/app/scanner.c.obj
                0x200018f7                gScanUseCssResult
 .bss.gScanProgressIndicator
                0x200018f8        0x1 CMakeFiles/n7six.ApeX-k1.v7.6.5br2.dir/App/app/scanner.c.obj
                0x200018f8                gScanProgressIndicator
 .bss.gScanCssState
                0x200018f9        0x1 CMakeFiles/n7six.ApeX-k1.v7.6.5br2.dir/App/app/scanner.c.obj
                0x200018f9                gScanCssState
 *fill*         0x200018fa        0x2 
 .bss.gScanFrequency
                0x200018fc        0x4 CMakeFiles/n7six.ApeX-k1.v7.6.5br2.dir/App/app/scanner.c.obj
                0x200018fc                gScanFrequency
 .bss.gScanChannel
                0x20001900        0x1 CMakeFiles/n7six.ApeX-k1.v7.6.5br2.dir/App/app/scanner.c.obj
                0x20001900                gScanChannel
 .bss.gScannerSaveState
                0x20001901        0x1 CMakeFiles/n7six.ApeX-k1.v7.6.5br2.dir/App/app/scanner.c.obj
                0x20001901                gScannerSaveState
 .bss.gScanSingleFrequency
                0x20001902        0x1 CMakeFiles/n7six.ApeX-k1.v7.6.5br2.dir/App/app/scanner.c.obj
                0x20001902                gScanSingleFrequency
 .bss.gScanCssResultCode
                0x20001903        0x1 CMakeFiles/n7six.ApeX-k1.v7.6.5br2.dir/App/app/scanner.c.obj
                0x20001903                gScanCssResultCode
 .bss.gScanCssResultType
                0x20001904        0x1 CMakeFiles/n7six.ApeX-k1.v7.6.5br2.dir/App/app/scanner.c.obj
                0x20001904                gScanCssResultType
 .bss.gBeepToPlay
                0x20001905        0x1 CMakeFiles/n7six.ApeX-k1.v7.6.5br2.dir/App/audio.c.obj
                0x20001905                gBeepToPlay
 .bss.gCurrentFunction
                0x20001906        0x1 CMakeFiles/n7six.ApeX-k1.v7.6.5br2.dir/App/functions.c.obj
                0x20001906                gCurrentFunction
 *fill*         0x20001907        0x1 
 .bss.gPowerSave_10ms
                0x20001908        0x2 CMakeFiles/n7six.ApeX-k1.v7.6.5br2.dir/App/helper/battery.c.obj
                0x20001908                gPowerSave_10ms
 .bss.lowBatteryCountdown
                0x2000190a        0x2 CMakeFiles/n7six.ApeX-k1.v7.6.5br2.dir/App/helper/battery.c.obj
                0x2000190a                lowBatteryCountdown
 .bss.gBatteryCheckCounter
                0x2000190c        0x2 CMakeFiles/n7six.ApeX-k1.v7.6.5br2.dir/App/helper/battery.c.obj
                0x2000190c                gBatteryCheckCounter
 .bss.gLowBatteryConfirmed
                0x2000190e        0x1 CMakeFiles/n7six.ApeX-k1.v7.6.5br2.dir/App/helper/battery.c.obj
                0x2000190e                gLowBatteryConfirmed
 .bss.gLowBattery
                0x2000190f        0x1 CMakeFiles/n7six.ApeX-k1.v7.6.5br2.dir/App/helper/battery.c.obj
                0x2000190f                gLowBattery
 .bss.gLowBatteryBlink
                0x20001910        0x1 CMakeFiles/n7six.ApeX-k1.v7.6.5br2.dir/App/helper/battery.c.obj
                0x20001910                gLowBatteryBlink
 .bss.gChargingWithTypeC
                0x20001911        0x1 CMakeFiles/n7six.ApeX-k1.v7.6.5br2.dir/App/helper/battery.c.obj
                0x20001911                gChargingWithTypeC
 .bss.gBatteryDisplayLevel
                0x20001912        0x1 CMakeFiles/n7six.ApeX-k1.v7.6.5br2.dir/App/helper/battery.c.obj
                0x20001912                gBatteryDisplayLevel
 *fill*         0x20001913        0x1 
 .bss.gBatteryVoltageAverage
                0x20001914        0x2 CMakeFiles/n7six.ApeX-k1.v7.6.5br2.dir/App/helper/battery.c.obj
                0x20001914                gBatteryVoltageAverage
 .bss.gBatteryVoltages
                0x20001916        0x8 CMakeFiles/n7six.ApeX-k1.v7.6.5br2.dir/App/helper/battery.c.obj
                0x20001916                gBatteryVoltages
 .bss.gBatteryCurrent
                0x2000191e        0x2 CMakeFiles/n7six.ApeX-k1.v7.6.5br2.dir/App/helper/battery.c.obj
                0x2000191e                gBatteryCurrent
 .bss.gBatteryCurrentVoltage
                0x20001920        0x2 CMakeFiles/n7six.ApeX-k1.v7.6.5br2.dir/App/helper/battery.c.obj
                0x20001920                gBatteryCurrentVoltage
 .bss.gBatteryCalibration
                0x20001922        0xc CMakeFiles/n7six.ApeX-k1.v7.6.5br2.dir/App/helper/battery.c.obj
                0x20001922                gBatteryCalibration
 *fill*         0x2000192e        0x2 
 .bss.gBlinkCounter
                0x20001930        0x4 CMakeFiles/n7six.ApeX-k1.v7.6.5br2.dir/App/misc.c.obj
                0x20001930                gBlinkCounter
 .bss.gPttOnePushCounter
                0x20001934        0x1 CMakeFiles/n7six.ApeX-k1.v7.6.5br2.dir/App/misc.c.obj
                0x20001934                gPttOnePushCounter
 .bss.gBacklightBrightnessOld
                0x20001935        0x1 CMakeFiles/n7six.ApeX-k1.v7.6.5br2.dir/App/misc.c.obj
                0x20001935                gBacklightBrightnessOld
 .bss.gBacklightTimeOriginal
                0x20001936        0x1 CMakeFiles/n7six.ApeX-k1.v7.6.5br2.dir/App/misc.c.obj
                0x20001936                gBacklightTimeOriginal
 .bss.gMute     0x20001937        0x1 CMakeFiles/n7six.ApeX-k1.v7.6.5br2.dir/App/misc.c.obj
                0x20001937                gMute
 .bss.gBackLight
                0x20001938        0x1 CMakeFiles/n7six.ApeX-k1.v7.6.5br2.dir/App/misc.c.obj
                0x20001938                gBackLight
 .bss.gScheduleFM
                0x20001939        0x1 CMakeFiles/n7six.ApeX-k1.v7.6.5br2.dir/App/misc.c.obj
                0x20001939                gScheduleFM
 .bss.gFlagTailNoteEliminationComplete
                0x2000193a        0x1 CMakeFiles/n7six.ApeX-k1.v7.6.5br2.dir/App/misc.c.obj
                0x2000193a                gFlagTailNoteEliminationComplete
 .bss.gNextTimeslice40ms
                0x2000193b        0x1 CMakeFiles/n7six.ApeX-k1.v7.6.5br2.dir/App/misc.c.obj
                0x2000193b                gNextTimeslice40ms
 .bss.gVoxStopCountdown_10ms
                0x2000193c        0x2 CMakeFiles/n7six.ApeX-k1.v7.6.5br2.dir/App/misc.c.obj
                0x2000193c                gVoxStopCountdown_10ms
 .bss.gFoundCTCSSCountdown_10ms
                0x2000193e        0x1 CMakeFiles/n7six.ApeX-k1.v7.6.5br2.dir/App/misc.c.obj
                0x2000193e                gFoundCTCSSCountdown_10ms
 .bss.gFoundCDCSSCountdown_10ms
                0x2000193f        0x1 CMakeFiles/n7six.ApeX-k1.v7.6.5br2.dir/App/misc.c.obj
                0x2000193f                gFoundCDCSSCountdown_10ms
 .bss.gNextTimeslice
                0x20001940        0x1 CMakeFiles/n7six.ApeX-k1.v7.6.5br2.dir/App/misc.c.obj
                0x20001940                gNextTimeslice
 .bss.gShowChPrefix
                0x20001941        0x1 CMakeFiles/n7six.ApeX-k1.v7.6.5br2.dir/App/misc.c.obj
                0x20001941                gShowChPrefix
 .bss.gF_LOCK   0x20001942        0x1 CMakeFiles/n7six.ApeX-k1.v7.6.5br2.dir/App/misc.c.obj
                0x20001942                gF_LOCK
 .bss.gUpdateDisplay
                0x20001943        0x1 CMakeFiles/n7six.ApeX-k1.v7.6.5br2.dir/App/misc.c.obj
                0x20001943                gUpdateDisplay
 .bss.gFSKWriteIndex
                0x20001944        0x1 CMakeFiles/n7six.ApeX-k1.v7.6.5br2.dir/App/misc.c.obj
                0x20001944                gFSKWriteIndex
 .bss.gScanDelay_10ms
                0x20001945        0x1 CMakeFiles/n7six.ApeX-k1.v7.6.5br2.dir/App/misc.c.obj
                0x20001945                gScanDelay_10ms
 .bss.gBackup_CROSS_BAND_RX_TX
                0x20001946        0x1 CMakeFiles/n7six.ApeX-k1.v7.6.5br2.dir/App/misc.c.obj
                0x20001946                gBackup_CROSS_BAND_RX_TX
 .bss.gMenuListCount
                0x20001947        0x1 CMakeFiles/n7six.ApeX-k1.v7.6.5br2.dir/App/misc.c.obj
                0x20001947                gMenuListCount
 .bss.gPttDebounceCounter
                0x20001948        0x1 CMakeFiles/n7six.ApeX-k1.v7.6.5br2.dir/App/misc.c.obj
                0x20001948                gPttDebounceCounter
 .bss.gPttIsPressed
                0x20001949        0x1 CMakeFiles/n7six.ApeX-k1.v7.6.5br2.dir/App/misc.c.obj
                0x20001949                gPttIsPressed
 .bss.gKeyBeingHeld
                0x2000194a        0x1 CMakeFiles/n7six.ApeX-k1.v7.6.5br2.dir/App/misc.c.obj
                0x2000194a                gKeyBeingHeld
 .bss.gRxVfoIsActive
                0x2000194b        0x1 CMakeFiles/n7six.ApeX-k1.v7.6.5br2.dir/App/misc.c.obj
                0x2000194b                gRxVfoIsActive
 .bss.gRxReceptionMode
                0x2000194c        0x1 CMakeFiles/n7six.ApeX-k1.v7.6.5br2.dir/App/misc.c.obj
                0x2000194c                gRxReceptionMode
 .bss.gNextMrChannel
                0x2000194d        0x1 CMakeFiles/n7six.ApeX-k1.v7.6.5br2.dir/App/misc.c.obj
                0x2000194d                gNextMrChannel
 .bss.gFlagEndTransmission
                0x2000194e        0x1 CMakeFiles/n7six.ApeX-k1.v7.6.5br2.dir/App/misc.c.obj
                0x2000194e                gFlagEndTransmission
 *fill*         0x2000194f        0x1 
 .bss.gFlashLightBlinkCounter
                0x20001950        0x2 CMakeFiles/n7six.ApeX-k1.v7.6.5br2.dir/App/misc.c.obj
                0x20001950                gFlashLightBlinkCounter
 .bss.g_SquelchLost
                0x20001952        0x1 CMakeFiles/n7six.ApeX-k1.v7.6.5br2.dir/App/misc.c.obj
                0x20001952                g_SquelchLost
 *fill*         0x20001953        0x1 
 .bss.gVoxPauseCountdown
                0x20001954        0x2 CMakeFiles/n7six.ApeX-k1.v7.6.5br2.dir/App/misc.c.obj
                0x20001954                gVoxPauseCountdown
 .bss.gVoxResumeCountdown
                0x20001956        0x2 CMakeFiles/n7six.ApeX-k1.v7.6.5br2.dir/App/misc.c.obj
                0x20001956                gVoxResumeCountdown
 .bss.gVOX_NoiseDetected
                0x20001958        0x1 CMakeFiles/n7six.ApeX-k1.v7.6.5br2.dir/App/misc.c.obj
                0x20001958                gVOX_NoiseDetected
 .bss.g_VOX_Lost
                0x20001959        0x1 CMakeFiles/n7six.ApeX-k1.v7.6.5br2.dir/App/misc.c.obj
                0x20001959                g_VOX_Lost
 .bss.g_CxCSS_TAIL_Found
                0x2000195a        0x1 CMakeFiles/n7six.ApeX-k1.v7.6.5br2.dir/App/misc.c.obj
                0x2000195a                g_CxCSS_TAIL_Found
 .bss.g_CTCSS_Lost
                0x2000195b        0x1 CMakeFiles/n7six.ApeX-k1.v7.6.5br2.dir/App/misc.c.obj
                0x2000195b                g_CTCSS_Lost
 .bss.gCDCSSCodeType
                0x2000195c        0x1 CMakeFiles/n7six.ApeX-k1.v7.6.5br2.dir/App/misc.c.obj
                0x2000195c                gCDCSSCodeType
 .bss.g_CDCSS_Lost
                0x2000195d        0x1 CMakeFiles/n7six.ApeX-k1.v7.6.5br2.dir/App/misc.c.obj
                0x2000195d                g_CDCSS_Lost
 .bss.gFlagSaveFM
                0x2000195e        0x1 CMakeFiles/n7six.ApeX-k1.v7.6.5br2.dir/App/misc.c.obj
                0x2000195e                gFlagSaveFM
 .bss.gFlagRefreshSetting
                0x2000195f        0x1 CMakeFiles/n7six.ApeX-k1.v7.6.5br2.dir/App/misc.c.obj
                0x2000195f                gFlagRefreshSetting
 .bss.gFlagAcceptSetting
                0x20001960        0x1 CMakeFiles/n7six.ApeX-k1.v7.6.5br2.dir/App/misc.c.obj
                0x20001960                gFlagAcceptSetting
 .bss.gFlagPrepareTX
                0x20001961        0x1 CMakeFiles/n7six.ApeX-k1.v7.6.5br2.dir/App/misc.c.obj
                0x20001961                gFlagPrepareTX
 .bss.gRequestSaveFM
                0x20001962        0x1 CMakeFiles/n7six.ApeX-k1.v7.6.5br2.dir/App/misc.c.obj
                0x20001962                gRequestSaveFM
 .bss.gRequestSaveSettings
                0x20001963        0x1 CMakeFiles/n7six.ApeX-k1.v7.6.5br2.dir/App/misc.c.obj
                0x20001963                gRequestSaveSettings
 .bss.gRequestSaveChannel
                0x20001964        0x1 CMakeFiles/n7six.ApeX-k1.v7.6.5br2.dir/App/misc.c.obj
                0x20001964                gRequestSaveChannel
 .bss.gRequestSaveVFO
                0x20001965        0x1 CMakeFiles/n7six.ApeX-k1.v7.6.5br2.dir/App/misc.c.obj
                0x20001965                gRequestSaveVFO
 .bss.gFlagResetVfos
                0x20001966        0x1 CMakeFiles/n7six.ApeX-k1.v7.6.5br2.dir/App/misc.c.obj
                0x20001966                gFlagResetVfos
 .bss.gVfoConfigureMode
                0x20001967        0x1 CMakeFiles/n7six.ApeX-k1.v7.6.5br2.dir/App/misc.c.obj
                0x20001967                gVfoConfigureMode
 .bss.gFlagReconfigureVfos
                0x20001968        0x1 CMakeFiles/n7six.ApeX-k1.v7.6.5br2.dir/App/misc.c.obj
                0x20001968                gFlagReconfigureVfos
 .bss.gKeypadLocked
                0x20001969        0x1 CMakeFiles/n7six.ApeX-k1.v7.6.5br2.dir/App/misc.c.obj
                0x20001969                gKeypadLocked
 .bss.gPttWasPressed
                0x2000196a        0x1 CMakeFiles/n7six.ApeX-k1.v7.6.5br2.dir/App/misc.c.obj
                0x2000196a                gPttWasPressed
 .bss.gPttWasReleased
                0x2000196b        0x1 CMakeFiles/n7six.ApeX-k1.v7.6.5br2.dir/App/misc.c.obj
                0x2000196b                gPttWasReleased
 .bss.gMenuCountdown
                0x2000196c        0x2 CMakeFiles/n7six.ApeX-k1.v7.6.5br2.dir/App/misc.c.obj
                0x2000196c                gMenuCountdown
 .bss.gAlarmState
                0x2000196e        0x1 CMakeFiles/n7six.ApeX-k1.v7.6.5br2.dir/App/misc.c.obj
                0x2000196e                gAlarmState
 *fill*         0x2000196f        0x1 
 .bss.gScanPauseDelayIn_10ms
                0x20001970        0x2 CMakeFiles/n7six.ApeX-k1.v7.6.5br2.dir/App/misc.c.obj
                0x20001970                gScanPauseDelayIn_10ms
 .bss.gCssBackgroundScan
                0x20001972        0x1 CMakeFiles/n7six.ApeX-k1.v7.6.5br2.dir/App/misc.c.obj
                0x20001972                gCssBackgroundScan
 .bss.gBatteryVoltageIndex
                0x20001973        0x1 CMakeFiles/n7six.ApeX-k1.v7.6.5br2.dir/App/misc.c.obj
                0x20001973                gBatteryVoltageIndex
 .bss.gReducedService
                0x20001974        0x1 CMakeFiles/n7six.ApeX-k1.v7.6.5br2.dir/App/misc.c.obj
                0x20001974                gReducedService
 .bss.gVFO_RSSI_bar_level
                0x20001975        0x2 CMakeFiles/n7six.ApeX-k1.v7.6.5br2.dir/App/misc.c.obj
                0x20001975                gVFO_RSSI_bar_level
 .bss.gEndOfRxDetectedMaybe
                0x20001977        0x1 CMakeFiles/n7six.ApeX-k1.v7.6.5br2.dir/App/misc.c.obj
                0x20001977                gEndOfRxDetectedMaybe
 .bss.gFoundCDCSS
                0x20001978        0x1 CMakeFiles/n7six.ApeX-k1.v7.6.5br2.dir/App/misc.c.obj
                0x20001978                gFoundCDCSS
 .bss.gFoundCTCSS
                0x20001979        0x1 CMakeFiles/n7six.ApeX-k1.v7.6.5br2.dir/App/misc.c.obj
                0x20001979                gFoundCTCSS
 .bss.gUpdateStatus
                0x2000197a        0x1 CMakeFiles/n7six.ApeX-k1.v7.6.5br2.dir/App/misc.c.obj
                0x2000197a                gUpdateStatus
 .bss.bIsInLockScreen
                0x2000197b        0x1 CMakeFiles/n7six.ApeX-k1.v7.6.5br2.dir/App/misc.c.obj
                0x2000197b                bIsInLockScreen
 .bss.gRTTECountdown_10ms
                0x2000197c        0x1 CMakeFiles/n7six.ApeX-k1.v7.6.5br2.dir/App/misc.c.obj
                0x2000197c                gRTTECountdown_10ms
 .bss.gKeyLockCountdown
                0x2000197d        0x1 CMakeFiles/n7six.ApeX-k1.v7.6.5br2.dir/App/misc.c.obj
                0x2000197d                gKeyLockCountdown
 .bss.gKeyInputCountdown
                0x2000197e        0x1 CMakeFiles/n7six.ApeX-k1.v7.6.5br2.dir/App/misc.c.obj
                0x2000197e                gKeyInputCountdown
 .bss.gEnableSpeaker
                0x2000197f        0x1 CMakeFiles/n7six.ApeX-k1.v7.6.5br2.dir/App/misc.c.obj
                0x2000197f                gEnableSpeaker
 .bss.gVFOStateResumeCountdown_500ms
                0x20001980        0x1 CMakeFiles/n7six.ApeX-k1.v7.6.5br2.dir/App/misc.c.obj
                0x20001980                gVFOStateResumeCountdown_500ms
 *fill*         0x20001981        0x1 
 .bss.gTailNoteEliminationCountdown_10ms
                0x20001982        0x2 CMakeFiles/n7six.ApeX-k1.v7.6.5br2.dir/App/misc.c.obj
                0x20001982                gTailNoteEliminationCountdown_10ms
 .bss.gUART_LockScreenshot
                0x20001984        0x1 CMakeFiles/n7six.ApeX-k1.v7.6.5br2.dir/App/misc.c.obj
                0x20001984                gUART_LockScreenshot
 *fill*         0x20001985        0x1 
 .bss.gRxTimerCountdown_500ms
                0x20001986        0x2 CMakeFiles/n7six.ApeX-k1.v7.6.5br2.dir/App/misc.c.obj
                0x20001986                gRxTimerCountdown_500ms
 .bss.gTxTimeoutReachedAlert
                0x20001988        0x1 CMakeFiles/n7six.ApeX-k1.v7.6.5br2.dir/App/misc.c.obj
                0x20001988                gTxTimeoutReachedAlert
 *fill*         0x20001989        0x1 
 .bss.gTxTimerCountdownAlert_500ms
                0x2000198a        0x2 CMakeFiles/n7six.ApeX-k1.v7.6.5br2.dir/App/misc.c.obj
                0x2000198a                gTxTimerCountdownAlert_500ms
 .bss.gTxTimeoutReached
                0x2000198c        0x1 CMakeFiles/n7six.ApeX-k1.v7.6.5br2.dir/App/misc.c.obj
                0x2000198c                gTxTimeoutReached
 *fill*         0x2000198d        0x1 
 .bss.gTxTimerCountdown_500ms
                0x2000198e        0x2 CMakeFiles/n7six.ApeX-k1.v7.6.5br2.dir/App/misc.c.obj
                0x2000198e                gTxTimerCountdown_500ms
 .bss.gNextTimeslice_500ms
                0x20001990        0x1 CMakeFiles/n7six.ApeX-k1.v7.6.5br2.dir/App/misc.c.obj
                0x20001990                gNextTimeslice_500ms
 .bss.gSerialConfigCountDown_500ms
                0x20001991        0x1 CMakeFiles/n7six.ApeX-k1.v7.6.5br2.dir/App/misc.c.obj
                0x20001991                gSerialConfigCountDown_500ms
 .bss.gDualWatchActive
                0x20001992        0x1 CMakeFiles/n7six.ApeX-k1.v7.6.5br2.dir/App/misc.c.obj
                0x20001992                gDualWatchActive
 *fill*         0x20001993        0x1 
 .bss.gDualWatchCountdown_10ms
                0x20001994        0x2 CMakeFiles/n7six.ApeX-k1.v7.6.5br2.dir/App/misc.c.obj
                0x20001994                gDualWatchCountdown_10ms
 .bss.gSchedulePowerSave
                0x20001996        0x1 CMakeFiles/n7six.ApeX-k1.v7.6.5br2.dir/App/misc.c.obj
                0x20001996                gSchedulePowerSave
 .bss.gPowerSaveCountdownExpired
                0x20001997        0x1 CMakeFiles/n7six.ApeX-k1.v7.6.5br2.dir/App/misc.c.obj
                0x20001997                gPowerSaveCountdownExpired
 .bss.gMR_ChannelExclude
                0x20001998       0xcf CMakeFiles/n7six.ApeX-k1.v7.6.5br2.dir/App/misc.c.obj
                0x20001998                gMR_ChannelExclude
 .bss.gMR_ChannelAttributes
                0x20001a67       0xcf CMakeFiles/n7six.ApeX-k1.v7.6.5br2.dir/App/misc.c.obj
                0x20001a67                gMR_ChannelAttributes
 .bss.gEEPROM_1F8C
                0x20001b36        0x2 CMakeFiles/n7six.ApeX-k1.v7.6.5br2.dir/App/misc.c.obj
                0x20001b36                gEEPROM_1F8C
 .bss.gEEPROM_1F8A
                0x20001b38        0x2 CMakeFiles/n7six.ApeX-k1.v7.6.5br2.dir/App/misc.c.obj
                0x20001b38                gEEPROM_1F8A
 .bss.gEEPROM_RSSI_CALIB
                0x20001b3a       0x38 CMakeFiles/n7six.ApeX-k1.v7.6.5br2.dir/App/misc.c.obj
                0x20001b3a                gEEPROM_RSSI_CALIB
 *fill*         0x20001b72        0x2 
 .bss.gChallenge
                0x20001b74       0x10 CMakeFiles/n7six.ApeX-k1.v7.6.5br2.dir/App/misc.c.obj
                0x20001b74                gChallenge
 .bss.bHasCustomAesKey
                0x20001b84        0x1 CMakeFiles/n7six.ApeX-k1.v7.6.5br2.dir/App/misc.c.obj
                0x20001b84                bHasCustomAesKey
 *fill*         0x20001b85        0x3 
 .bss.gCustomAesKey
                0x20001b88       0x10 CMakeFiles/n7six.ApeX-k1.v7.6.5br2.dir/App/misc.c.obj
                0x20001b88                gCustomAesKey
 .bss.gMonitor  0x20001b98        0x1 CMakeFiles/n7six.ApeX-k1.v7.6.5br2.dir/App/misc.c.obj
                0x20001b98                gMonitor
 .bss.gSetting_battery_text
                0x20001b99        0x1 CMakeFiles/n7six.ApeX-k1.v7.6.5br2.dir/App/misc.c.obj
                0x20001b99                gSetting_battery_text
 .bss.gSetting_live_DTMF_decoder
                0x20001b9a        0x1 CMakeFiles/n7six.ApeX-k1.v7.6.5br2.dir/App/misc.c.obj
                0x20001b9a                gSetting_live_DTMF_decoder
 .bss.gSetting_mic_bar
                0x20001b9b        0x1 CMakeFiles/n7six.ApeX-k1.v7.6.5br2.dir/App/misc.c.obj
                0x20001b9b                gSetting_mic_bar
 .bss.gRemoveOffset
                0x20001b9c        0x1 CMakeFiles/n7six.ApeX-k1.v7.6.5br2.dir/App/misc.c.obj
                0x20001b9c                gRemoveOffset
 .bss.gPowerHigh
                0x20001b9d        0x1 CMakeFiles/n7six.ApeX-k1.v7.6.5br2.dir/App/misc.c.obj
                0x20001b9d                gPowerHigh
 .bss.gAircopyStep
                0x20001b9e        0x1 CMakeFiles/n7six.ApeX-k1.v7.6.5br2.dir/App/misc.c.obj
                0x20001b9e                gAircopyStep
 .bss.lErrorsDuringAirCopy
                0x20001b9f        0x1 CMakeFiles/n7six.ApeX-k1.v7.6.5br2.dir/App/misc.c.obj
                0x20001b9f                lErrorsDuringAirCopy
 .bss.crc       0x20001ba0        0xf CMakeFiles/n7six.ApeX-k1.v7.6.5br2.dir/App/misc.c.obj
                0x20001ba0                crc
 .bss.gSaveRxMode
                0x20001baf        0x1 CMakeFiles/n7six.ApeX-k1.v7.6.5br2.dir/App/misc.c.obj
                0x20001baf                gSaveRxMode
 .bss.gCB       0x20001bb0        0x1 CMakeFiles/n7six.ApeX-k1.v7.6.5br2.dir/App/misc.c.obj
                0x20001bb0                gCB
 .bss.gDW       0x20001bb1        0x1 CMakeFiles/n7six.ApeX-k1.v7.6.5br2.dir/App/misc.c.obj
                0x20001bb1                gDW
 .bss.gSetting_set_ptt_session
                0x20001bb2        0x1 CMakeFiles/n7six.ApeX-k1.v7.6.5br2.dir/App/misc.c.obj
                0x20001bb2                gSetting_set_ptt_session
 .bss.gSetting_set_tmr
                0x20001bb3        0x1 CMakeFiles/n7six.ApeX-k1.v7.6.5br2.dir/App/misc.c.obj
                0x20001bb3                gSetting_set_tmr
 .bss.gSetting_set_nfm
                0x20001bb4        0x1 CMakeFiles/n7six.ApeX-k1.v7.6.5br2.dir/App/misc.c.obj
                0x20001bb4                gSetting_set_nfm
 .bss.gSetting_set_gui
                0x20001bb5        0x1 CMakeFiles/n7six.ApeX-k1.v7.6.5br2.dir/App/misc.c.obj
                0x20001bb5                gSetting_set_gui
 .bss.gSetting_set_met
                0x20001bb6        0x1 CMakeFiles/n7six.ApeX-k1.v7.6.5br2.dir/App/misc.c.obj
                0x20001bb6                gSetting_set_met
 .bss.gSetting_set_lck
                0x20001bb7        0x1 CMakeFiles/n7six.ApeX-k1.v7.6.5br2.dir/App/misc.c.obj
                0x20001bb7                gSetting_set_lck
 .bss.gSetting_set_eot
                0x20001bb8        0x1 CMakeFiles/n7six.ApeX-k1.v7.6.5br2.dir/App/misc.c.obj
                0x20001bb8                gSetting_set_eot
 .bss.gSetting_set_inv
                0x20001bb9        0x1 CMakeFiles/n7six.ApeX-k1.v7.6.5br2.dir/App/misc.c.obj
                0x20001bb9                gSetting_set_inv
 .bss.gSetting_set_tot
                0x20001bba        0x1 CMakeFiles/n7six.ApeX-k1.v7.6.5br2.dir/App/misc.c.obj
                0x20001bba                gSetting_set_tot
 .bss.gSetting_set_ptt
                0x20001bbb        0x1 CMakeFiles/n7six.ApeX-k1.v7.6.5br2.dir/App/misc.c.obj
                0x20001bbb                gSetting_set_ptt
 .bss.gWakeUp   0x20001bbc        0x1 CMakeFiles/n7six.ApeX-k1.v7.6.5br2.dir/App/misc.c.obj
                0x20001bbc                gWakeUp
 .bss.gSetting_backlight_on_tx_rx
                0x20001bbd        0x1 CMakeFiles/n7six.ApeX-k1.v7.6.5br2.dir/App/misc.c.obj
                0x20001bbd                gSetting_backlight_on_tx_rx
 .bss.gSetting_ScrambleEnable
                0x20001bbe        0x1 CMakeFiles/n7six.ApeX-k1.v7.6.5br2.dir/App/misc.c.obj
                0x20001bbe                gSetting_ScrambleEnable
 .bss.gSetting_F_LOCK
                0x20001bbf        0x1 CMakeFiles/n7six.ApeX-k1.v7.6.5br2.dir/App/misc.c.obj
                0x20001bbf                gSetting_F_LOCK
 .bss.gSetting_350EN
                0x20001bc0        0x1 CMakeFiles/n7six.ApeX-k1.v7.6.5br2.dir/App/misc.c.obj
                0x20001bc0                gSetting_350EN
 *fill*         0x20001bc1        0x1 
 .bss.boot_counter_10ms
                0x20001bc2        0x2 CMakeFiles/n7six.ApeX-k1.v7.6.5br2.dir/App/misc.c.obj
                0x20001bc2                boot_counter_10ms
 .bss.lastSettings.0
                0x20001bc4        0x1 CMakeFiles/n7six.ApeX-k1.v7.6.5br2.dir/App/radio.c.obj
 .bss.VfoState  0x20001bc5        0x2 CMakeFiles/n7six.ApeX-k1.v7.6.5br2.dir/App/radio.c.obj
                0x20001bc5                VfoState
 .bss.gCurrentCodeType
                0x20001bc7        0x1 CMakeFiles/n7six.ApeX-k1.v7.6.5br2.dir/App/radio.c.obj
                0x20001bc7                gCurrentCodeType
 .bss.gCurrentVfo
                0x20001bc8        0x4 CMakeFiles/n7six.ApeX-k1.v7.6.5br2.dir/App/radio.c.obj
                0x20001bc8                gCurrentVfo
 .bss.gRxVfo    0x20001bcc        0x4 CMakeFiles/n7six.ApeX-k1.v7.6.5br2.dir/App/radio.c.obj
                0x20001bcc                gRxVfo
 .bss.gTxVfo    0x20001bd0        0x4 CMakeFiles/n7six.ApeX-k1.v7.6.5br2.dir/App/radio.c.obj
                0x20001bd0                gTxVfo
 .bss.gGlobalSysTickCounter
                0x20001bd4        0x4 CMakeFiles/n7six.ApeX-k1.v7.6.5br2.dir/App/scheduler.c.obj
 .bss.gEeprom   0x20001bd8      0x118 CMakeFiles/n7six.ApeX-k1.v7.6.5br2.dir/App/settings.c.obj
                0x20001bd8                gEeprom
 .bss.gInputBoxIndex
                0x20001cf0        0x1 CMakeFiles/n7six.ApeX-k1.v7.6.5br2.dir/App/ui/inputbox.c.obj
                0x20001cf0                gInputBoxIndex
 .bss.inputBoxAscii
                0x20001cf1        0x9 CMakeFiles/n7six.ApeX-k1.v7.6.5br2.dir/App/ui/inputbox.c.obj
                0x20001cf1                inputBoxAscii
 .bss.gInputBox
                0x20001cfa        0x8 CMakeFiles/n7six.ApeX-k1.v7.6.5br2.dir/App/ui/inputbox.c.obj
                0x20001cfa                gInputBox
 .bss.barsOld.0
                0x20001d02        0x1 CMakeFiles/n7six.ApeX-k1.v7.6.5br2.dir/App/ui/main.c.obj
 .bss.isMainOnlyInputDTMF
                0x20001d03        0x1 CMakeFiles/n7six.ApeX-k1.v7.6.5br2.dir/App/ui/main.c.obj
                0x20001d03                isMainOnlyInputDTMF
 .bss.RxOnVfofrequency
                0x20001d04        0x4 CMakeFiles/n7six.ApeX-k1.v7.6.5br2.dir/App/ui/main.c.obj
 .bss.RxLine    0x20001d08        0x1 CMakeFiles/n7six.ApeX-k1.v7.6.5br2.dir/App/ui/main.c.obj
 .bss.RxBlinkLedCounter
                0x20001d09        0x1 CMakeFiles/n7six.ApeX-k1.v7.6.5br2.dir/App/ui/main.c.obj
 .bss.RxBlinkLed
                0x20001d0a        0x1 CMakeFiles/n7six.ApeX-k1.v7.6.5br2.dir/App/ui/main.c.obj
 .bss.RxBlink   0x20001d0b        0x1 CMakeFiles/n7six.ApeX-k1.v7.6.5br2.dir/App/ui/main.c.obj
 .bss.center_line
                0x20001d0c        0x1 CMakeFiles/n7six.ApeX-k1.v7.6.5br2.dir/App/ui/main.c.obj
                0x20001d0c                center_line
 *fill*         0x20001d0d        0x3 
 .bss.edit_index
                0x20001d10        0x4 CMakeFiles/n7six.ApeX-k1.v7.6.5br2.dir/App/ui/menu.c.obj
                0x20001d10                edit_index
 .bss.edit      0x20001d14       0x11 CMakeFiles/n7six.ApeX-k1.v7.6.5br2.dir/App/ui/menu.c.obj
                0x20001d14                edit
 .bss.edit_original
                0x20001d25       0x11 CMakeFiles/n7six.ApeX-k1.v7.6.5br2.dir/App/ui/menu.c.obj
                0x20001d25                edit_original
 *fill*         0x20001d36        0x2 
 .bss.gSubMenuSelection
                0x20001d38        0x4 CMakeFiles/n7six.ApeX-k1.v7.6.5br2.dir/App/ui/menu.c.obj
                0x20001d38                gSubMenuSelection
 .bss.gMenuCursor
                0x20001d3c        0x1 CMakeFiles/n7six.ApeX-k1.v7.6.5br2.dir/App/ui/menu.c.obj
                0x20001d3c                gMenuCursor
 .bss.gIsInSubMenu
                0x20001d3d        0x1 CMakeFiles/n7six.ApeX-k1.v7.6.5br2.dir/App/ui/menu.c.obj
                0x20001d3d                gIsInSubMenu
 .bss.gAskToDelete
                0x20001d3e        0x1 CMakeFiles/n7six.ApeX-k1.v7.6.5br2.dir/App/ui/ui.c.obj
                0x20001d3e                gAskToDelete
 .bss.gAskToSave
                0x20001d3f        0x1 CMakeFiles/n7six.ApeX-k1.v7.6.5br2.dir/App/ui/ui.c.obj
                0x20001d3f                gAskToSave
 .bss.gAskForConfirmation
                0x20001d40        0x1 CMakeFiles/n7six.ApeX-k1.v7.6.5br2.dir/App/ui/ui.c.obj
                0x20001d40                gAskForConfirmation
 .bss.gScreenToDisplay
                0x20001d41        0x1 CMakeFiles/n7six.ApeX-k1.v7.6.5br2.dir/App/ui/ui.c.obj
                0x20001d41                gScreenToDisplay
 .bss.UART_DMA_Buffer
                0x20001d42      0x100 CMakeFiles/n7six.ApeX-k1.v7.6.5br2.dir/App/driver/uart.c.obj
                0x20001d42                UART_DMA_Buffer
 .bss.VCP_ReplyBuf.0
                0x20001e42       0x98 CMakeFiles/n7six.ApeX-k1.v7.6.5br2.dir/App/app/uart.c.obj
 .bss.VCP_ReadIndex
                0x20001eda        0x2 CMakeFiles/n7six.ApeX-k1.v7.6.5br2.dir/App/app/uart.c.obj
 .bss.VCP_Command
                0x20001edc      0x100 CMakeFiles/n7six.ApeX-k1.v7.6.5br2.dir/App/app/uart.c.obj
 .bss.VCP_Timestamp
                0x20001fdc        0x4 CMakeFiles/n7six.ApeX-k1.v7.6.5br2.dir/App/app/uart.c.obj
 .bss.gUART_WriteIndex
                0x20001fe0        0x2 CMakeFiles/n7six.ApeX-k1.v7.6.5br2.dir/App/app/uart.c.obj
 *fill*         0x20001fe2        0x2 
 .bss.UART_Command
                0x20001fe4      0x100 CMakeFiles/n7six.ApeX-k1.v7.6.5br2.dir/App/app/uart.c.obj
 .bss.UART_Timestamp
                0x200020e4        0x4 CMakeFiles/n7six.ApeX-k1.v7.6.5br2.dir/App/app/uart.c.obj
 .bss.VCP_RxBufPointer
                0x200020e8        0x4 CMakeFiles/n7six.ApeX-k1.v7.6.5br2.dir/App/driver/vcp.c.obj
                0x200020e8                VCP_RxBufPointer
 .bss.VCP_RxBuf
                0x200020ec      0x100 CMakeFiles/n7six.ApeX-k1.v7.6.5br2.dir/App/driver/vcp.c.obj
                0x200020ec                VCP_RxBuf
 .bss.dtr_enable
                0x200021ec        0x1 CMakeFiles/n7six.ApeX-k1.v7.6.5br2.dir/App/usb/usbd_cdc_if.c.obj
                0x200021ec                dtr_enable
 *fill*         0x200021ed        0x3 
 .bss.intf1     0x200021f0       0x24 CMakeFiles/n7six.ApeX-k1.v7.6.5br2.dir/App/usb/usbd_cdc_if.c.obj
                0x200021f0                intf1
 .bss.intf0     0x20002214       0x24 CMakeFiles/n7six.ApeX-k1.v7.6.5br2.dir/App/usb/usbd_cdc_if.c.obj
                0x20002214                intf0
 .bss.ep_tx_busy_flag
                0x20002238        0x1 CMakeFiles/n7six.ApeX-k1.v7.6.5br2.dir/App/usb/usbd_cdc_if.c.obj
                0x20002238                ep_tx_busy_flag
 *fill*         0x20002239        0x3 
 .bss.client_rx_buf
                0x2000223c        0xc CMakeFiles/n7six.ApeX-k1.v7.6.5br2.dir/App/usb/usbd_cdc_if.c.obj
 .bss.read_buffer
                0x20002248       0x80 CMakeFiles/n7six.ApeX-k1.v7.6.5br2.dir/App/usb/usbd_cdc_if.c.obj
                0x20002248                read_buffer
 .bss.BK1080_FrequencyDeviation
                0x200022c8        0x2 CMakeFiles/n7six.ApeX-k1.v7.6.5br2.dir/App/driver/bk1080.c.obj
                0x200022c8                BK1080_FrequencyDeviation
 .bss.BK1080_BaseFrequency
                0x200022ca        0x2 CMakeFiles/n7six.ApeX-k1.v7.6.5br2.dir/App/driver/bk1080.c.obj
                0x200022ca                BK1080_BaseFrequency
 .bss.gIsInitBK1080
                0x200022cc        0x1 CMakeFiles/n7six.ApeX-k1.v7.6.5br2.dir/App/driver/bk1080.c.obj
 *fill*         0x200022cd        0x1 
 .bss.gFM_RestoreCountdown_10ms
                0x200022ce        0x2 CMakeFiles/n7six.ApeX-k1.v7.6.5br2.dir/App/app/fm.c.obj
                0x200022ce                gFM_RestoreCountdown_10ms
 .bss.gFM_FoundFrequency
                0x200022d0        0x1 CMakeFiles/n7six.ApeX-k1.v7.6.5br2.dir/App/app/fm.c.obj
                0x200022d0                gFM_FoundFrequency
 .bss.gFM_ChannelPosition
                0x200022d1        0x1 CMakeFiles/n7six.ApeX-k1.v7.6.5br2.dir/App/app/fm.c.obj
                0x200022d1                gFM_ChannelPosition
 .bss.gFM_AutoScan
                0x200022d2        0x1 CMakeFiles/n7six.ApeX-k1.v7.6.5br2.dir/App/app/fm.c.obj
                0x200022d2                gFM_AutoScan
 .bss.gFM_ScanState
                0x200022d3        0x1 CMakeFiles/n7six.ApeX-k1.v7.6.5br2.dir/App/app/fm.c.obj
                0x200022d3                gFM_ScanState
 .bss.gFmPlayCountdown_10ms
                0x200022d4        0x2 CMakeFiles/n7six.ApeX-k1.v7.6.5br2.dir/App/app/fm.c.obj
                0x200022d4                gFmPlayCountdown_10ms
 .bss.gFmRadioCountdown_500ms
                0x200022d6        0x1 CMakeFiles/n7six.ApeX-k1.v7.6.5br2.dir/App/app/fm.c.obj
                0x200022d6                gFmRadioCountdown_500ms
 .bss.gFmRadioMode
                0x200022d7        0x1 CMakeFiles/n7six.ApeX-k1.v7.6.5br2.dir/App/app/fm.c.obj
                0x200022d7                gFmRadioMode
 .bss.gFM_Channels
                0x200022d8       0x28 CMakeFiles/n7six.ApeX-k1.v7.6.5br2.dir/App/app/fm.c.obj
                0x200022d8                gFM_Channels
 .bss.g_FSK_Buffer
                0x20002300       0x48 CMakeFiles/n7six.ApeX-k1.v7.6.5br2.dir/App/app/aircopy.c.obj
                0x20002300                g_FSK_Buffer
 .bss.gAirCopyIsSendMode
                0x20002348        0x1 CMakeFiles/n7six.ApeX-k1.v7.6.5br2.dir/App/app/aircopy.c.obj
                0x20002348                gAirCopyIsSendMode
 *fill*         0x20002349        0x1 
 .bss.gErrorsDuringAirCopy
                0x2000234a        0x2 CMakeFiles/n7six.ApeX-k1.v7.6.5br2.dir/App/app/aircopy.c.obj
                0x2000234a                gErrorsDuringAirCopy
 .bss.gAirCopyBlockNumber
                0x2000234c        0x2 CMakeFiles/n7six.ApeX-k1.v7.6.5br2.dir/App/app/aircopy.c.obj
                0x2000234c                gAirCopyBlockNumber
 .bss.gAircopyState
                0x2000234e        0x1 CMakeFiles/n7six.ApeX-k1.v7.6.5br2.dir/App/app/aircopy.c.obj
                0x2000234e                gAircopyState
 .bss.c.0       0x2000234f        0x1 CMakeFiles/n7six.ApeX-k1.v7.6.5br2.dir/App/app/flashlight.c.obj
 .bss.next.1    0x20002350        0x2 CMakeFiles/n7six.ApeX-k1.v7.6.5br2.dir/App/app/flashlight.c.obj
 .bss.gFlashLightState
                0x20002352        0x1 CMakeFiles/n7six.ApeX-k1.v7.6.5br2.dir/App/app/flashlight.c.obj
                0x20002352                gFlashLightState
 .bss.channelName.1
                0x20002353        0xc CMakeFiles/n7six.ApeX-k1.v7.6.5br2.dir/App/app/spectrum.c.obj
 *fill*         0x2000235f        0x1 
 .bss.channelF.2
                0x20002360        0x4 CMakeFiles/n7six.ApeX-k1.v7.6.5br2.dir/App/app/spectrum.c.obj
 .bss.String.3  0x20002364       0x20 CMakeFiles/n7six.ApeX-k1.v7.6.5br2.dir/App/app/spectrum.c.obj
 .bss.rxAudioSmooth.5
                0x20002384        0x1 CMakeFiles/n7six.ApeX-k1.v7.6.5br2.dir/App/app/spectrum.c.obj
 .bss.quietCounter.6
                0x20002385        0x1 CMakeFiles/n7six.ApeX-k1.v7.6.5br2.dir/App/app/spectrum.c.obj
 .bss.listenWatchdog.7
                0x20002386        0x1 CMakeFiles/n7six.ApeX-k1.v7.6.5br2.dir/App/app/spectrum.c.obj
 *fill*         0x20002387        0x1 
 .bss.noisePersistence
                0x20002388      0x100 CMakeFiles/n7six.ApeX-k1.v7.6.5br2.dir/App/app/spectrum.c.obj
 .bss.registers_stack
                0x20002488        0xe CMakeFiles/n7six.ApeX-k1.v7.6.5br2.dir/App/app/spectrum.c.obj
 .bss.blacklistFreqsIdx
                0x20002496        0x1 CMakeFiles/n7six.ApeX-k1.v7.6.5br2.dir/App/app/spectrum.c.obj
 *fill*         0x20002497        0x1 
 .bss.blacklistFreqs
                0x20002498       0x1e CMakeFiles/n7six.ApeX-k1.v7.6.5br2.dir/App/app/spectrum.c.obj
 .bss.statuslineUpdateTimer
                0x200024b6        0x2 CMakeFiles/n7six.ApeX-k1.v7.6.5br2.dir/App/app/spectrum.c.obj
                0x200024b6                statuslineUpdateTimer
 .bss.String    0x200024b8       0x20 CMakeFiles/n7six.ApeX-k1.v7.6.5br2.dir/App/app/spectrum.c.obj
 .bss.listenT   0x200024d8        0x2 CMakeFiles/n7six.ApeX-k1.v7.6.5br2.dir/App/app/spectrum.c.obj
                0x200024d8                listenT
 .bss.menuState
                0x200024da        0x1 CMakeFiles/n7six.ApeX-k1.v7.6.5br2.dir/App/app/spectrum.c.obj
                0x200024da                menuState
 .bss.freqInputString
                0x200024db        0xb CMakeFiles/n7six.ApeX-k1.v7.6.5br2.dir/App/app/spectrum.c.obj
                0x200024db                freqInputString
 .bss.freqInputArr
                0x200024e6        0xa CMakeFiles/n7six.ApeX-k1.v7.6.5br2.dir/App/app/spectrum.c.obj
                0x200024e6                freqInputArr
 .bss.freqInputDotIndex
                0x200024f0        0x1 CMakeFiles/n7six.ApeX-k1.v7.6.5br2.dir/App/app/spectrum.c.obj
                0x200024f0                freqInputDotIndex
 .bss.freqInputIndex
                0x200024f1        0x1 CMakeFiles/n7six.ApeX-k1.v7.6.5br2.dir/App/app/spectrum.c.obj
                0x200024f1                freqInputIndex
 .bss.spectrumSettingsAutosaveTicks
                0x200024f2        0x1 CMakeFiles/n7six.ApeX-k1.v7.6.5br2.dir/App/app/spectrum.c.obj
 .bss.spectrumSettingsDirty
                0x200024f3        0x1 CMakeFiles/n7six.ApeX-k1.v7.6.5br2.dir/App/app/spectrum.c.obj
 .bss.spectrumMeterBackgroundInit
                0x200024f4        0x1 CMakeFiles/n7six.ApeX-k1.v7.6.5br2.dir/App/app/spectrum.c.obj
 .bss.spectrumMeterBackground
                0x200024f5       0x79 CMakeFiles/n7six.ApeX-k1.v7.6.5br2.dir/App/app/spectrum.c.obj
 .bss.peakHoldEnabled
                0x2000256e        0x1 CMakeFiles/n7six.ApeX-k1.v7.6.5br2.dir/App/app/spectrum.c.obj
 *fill*         0x2000256f        0x1 
 .bss.peakHoldRssi
                0x20002570      0x100 CMakeFiles/n7six.ApeX-k1.v7.6.5br2.dir/App/app/spectrum.c.obj
 .bss.frequencyRetuned
                0x20002670        0x1 CMakeFiles/n7six.ApeX-k1.v7.6.5br2.dir/App/app/spectrum.c.obj
 *fill*         0x20002671        0x1 
 .bss.smoothedRssi
                0x20002672      0x100 CMakeFiles/n7six.ApeX-k1.v7.6.5br2.dir/App/app/spectrum.c.obj
 .bss.waterfallIndex
                0x20002772        0x1 CMakeFiles/n7six.ApeX-k1.v7.6.5br2.dir/App/app/spectrum.c.obj
                0x20002772                waterfallIndex
 .bss.waterfallHistory
                0x20002773      0x400 CMakeFiles/n7six.ApeX-k1.v7.6.5br2.dir/App/app/spectrum.c.obj
                0x20002773                waterfallHistory
 *fill*         0x20002b73        0x1 
 .bss.rssiHistory
                0x20002b74      0x100 CMakeFiles/n7six.ApeX-k1.v7.6.5br2.dir/App/app/spectrum.c.obj
                0x20002b74                rssiHistory
 .bss.vfo       0x20002c74        0x4 CMakeFiles/n7six.ApeX-k1.v7.6.5br2.dir/App/app/spectrum.c.obj
                0x20002c74                vfo
 .bss.tempFreq  0x20002c78        0x4 CMakeFiles/n7six.ApeX-k1.v7.6.5br2.dir/App/app/spectrum.c.obj
                0x20002c78                tempFreq
 .bss.currentFreq
                0x20002c7c        0x4 CMakeFiles/n7six.ApeX-k1.v7.6.5br2.dir/App/app/spectrum.c.obj
                0x20002c7c                currentFreq
 .bss.fMeasure  0x20002c80        0x4 CMakeFiles/n7six.ApeX-k1.v7.6.5br2.dir/App/app/spectrum.c.obj
                0x20002c80                fMeasure
 .bss.initialFreq
                0x20002c84        0x4 CMakeFiles/n7six.ApeX-k1.v7.6.5br2.dir/App/app/spectrum.c.obj
 .bss.displayRssi
                0x20002c88        0x2 CMakeFiles/n7six.ApeX-k1.v7.6.5br2.dir/App/app/spectrum.c.obj
 *fill*         0x20002c8a        0x2 
 .bss.scanInfo  0x20002c8c       0x18 CMakeFiles/n7six.ApeX-k1.v7.6.5br2.dir/App/app/spectrum.c.obj
                0x20002c8c                scanInfo
 .bss.peak      0x20002ca4        0xc CMakeFiles/n7six.ApeX-k1.v7.6.5br2.dir/App/app/spectrum.c.obj
                0x20002ca4                peak
 .bss.previousState
                0x20002cb0        0x1 CMakeFiles/n7six.ApeX-k1.v7.6.5br2.dir/App/app/spectrum.c.obj
                0x20002cb0                previousState
 .bss.currentState
                0x20002cb1        0x1 CMakeFiles/n7six.ApeX-k1.v7.6.5br2.dir/App/app/spectrum.c.obj
                0x20002cb1                currentState
 .bss.lockAGC   0x20002cb2        0x1 CMakeFiles/n7six.ApeX-k1.v7.6.5br2.dir/App/app/spectrum.c.obj
                0x20002cb2                lockAGC
 .bss.redrawScreen
                0x20002cb3        0x1 CMakeFiles/n7six.ApeX-k1.v7.6.5br2.dir/App/app/spectrum.c.obj
                0x20002cb3                redrawScreen
 .bss.monitorMode
                0x20002cb4        0x1 CMakeFiles/n7six.ApeX-k1.v7.6.5br2.dir/App/app/spectrum.c.obj
                0x20002cb4                monitorMode
 .bss.isInitialized
                0x20002cb5        0x1 CMakeFiles/n7six.ApeX-k1.v7.6.5br2.dir/App/app/spectrum.c.obj
 .bss.swap.0    0x20002cb6        0x1 CMakeFiles/n7six.ApeX-k1.v7.6.5br2.dir/App/app/breakout.c.obj
 *fill*         0x20002cb7        0x1 
 .bss.ball      0x20002cb8        0x8 CMakeFiles/n7six.ApeX-k1.v7.6.5br2.dir/App/app/breakout.c.obj
                0x20002cb8                ball
 .bss.racket    0x20002cc0        0x5 CMakeFiles/n7six.ApeX-k1.v7.6.5br2.dir/App/app/breakout.c.obj
                0x20002cc0                racket
 .bss.brick     0x20002cc5       0x6c CMakeFiles/n7six.ApeX-k1.v7.6.5br2.dir/App/app/breakout.c.obj
                0x20002cc5                brick
 .bss.str       0x20002d31        0xc CMakeFiles/n7six.ApeX-k1.v7.6.5br2.dir/App/app/breakout.c.obj
                0x20002d31                str
 *fill*         0x20002d3d        0x1 
 .bss.score     0x20002d3e        0x2 CMakeFiles/n7six.ApeX-k1.v7.6.5br2.dir/App/app/breakout.c.obj
                0x20002d3e                score
 .bss.tone      0x20002d40        0x2 CMakeFiles/n7six.ApeX-k1.v7.6.5br2.dir/App/app/breakout.c.obj
                0x20002d40                tone
 .bss.isBeep    0x20002d42        0x1 CMakeFiles/n7six.ApeX-k1.v7.6.5br2.dir/App/app/breakout.c.obj
                0x20002d42                isBeep
 .bss.isPaused  0x20002d43        0x1 CMakeFiles/n7six.ApeX-k1.v7.6.5br2.dir/App/app/breakout.c.obj
                0x20002d43                isPaused
 .bss.isInitialized
                0x20002d44        0x1 CMakeFiles/n7six.ApeX-k1.v7.6.5br2.dir/App/app/breakout.c.obj
 .bss.blockAnim
                0x20002d45        0x1 CMakeFiles/n7six.ApeX-k1.v7.6.5br2.dir/App/app/breakout.c.obj
 .bss.forcedBlock
                0x20002d46        0x1 CMakeFiles/n7six.ApeX-k1.v7.6.5br2.dir/App/screenshot.c.obj
 .bss.previousFrame
                0x20002d47      0x400 CMakeFiles/n7six.ApeX-k1.v7.6.5br2.dir/App/screenshot.c.obj
 *fill*         0x20003147        0x1 
 .bss.bos_desc  0x20003148        0x4 CMakeFiles/n7six.ApeX-k1.v7.6.5br2.dir/Middlewares/CherryUSB/core/usbd_core.c.obj
 .bss.msosv2_desc
                0x2000314c        0x4 CMakeFiles/n7six.ApeX-k1.v7.6.5br2.dir/Middlewares/CherryUSB/core/usbd_core.c.obj
 .bss.msosv1_desc
                0x20003150        0x4 CMakeFiles/n7six.ApeX-k1.v7.6.5br2.dir/Middlewares/CherryUSB/core/usbd_core.c.obj
 .bss.usbd_intf_head
                0x20003154        0x4 CMakeFiles/n7six.ApeX-k1.v7.6.5br2.dir/Middlewares/CherryUSB/core/usbd_core.c.obj
                0x20003154                usbd_intf_head
 .bss.zlp_flag  0x20003158        0x1 CMakeFiles/n7six.ApeX-k1.v7.6.5br2.dir/Middlewares/CherryUSB/port/usb_dc_py32.c.obj
                0x20003158                zlp_flag
 .bss.usb_ep0_state
                0x20003159        0x1 CMakeFiles/n7six.ApeX-k1.v7.6.5br2.dir/Middlewares/CherryUSB/port/usb_dc_py32.c.obj
 *fill*         0x2000315a        0x6 
 .bss.g_pyusb_udc
                0x20003160      0x180 CMakeFiles/n7six.ApeX-k1.v7.6.5br2.dir/Middlewares/CherryUSB/port/usb_dc_py32.c.obj
                0x20003160                g_pyusb_udc
 *(COMMON)
                0x200032e0                        . = ALIGN (0x4)
                0x200032e0                        _ebss = .
                0x200032e0                        __bss_end__ = _ebss

._user_heap_stack
                0x200032e0      0x600 load address 0x080177c8
                0x200032e0                        . = ALIGN (0x8)
                [!provide]                        PROVIDE (end = .)
                [!provide]                        PROVIDE (_end = .)
                0x200034e0                        . = (. + _Min_Heap_Size)
 *fill*         0x200032e0      0x200 
                0x200038e0                        . = (. + _Min_Stack_Size)
 *fill*         0x200034e0      0x400 
                0x200038e0                        . = ALIGN (0x8)

/DISCARD/
 libc.a(*)
 libm.a(*)
 libgcc.a(*)

.ARM.attributes
                0x00000000       0x28
 *(.ARM.attributes)
 .ARM.attributes
                0x00000000       0x1e /opt/toolchain/bin/../lib/gcc/arm-none-eabi/13.3.1/thumb/v6-m/nofp/crti.o
 .ARM.attributes
                0x0000001e       0x2c /opt/toolchain/bin/../lib/gcc/arm-none-eabi/13.3.1/thumb/v6-m/nofp/crtbegin.o
 .ARM.attributes
                0x0000004a       0x2c CMakeFiles/n7six.ApeX-k1.v7.6.5br2.dir/Core/Src/main.c.obj
 .ARM.attributes
                0x00000076       0x2c CMakeFiles/n7six.ApeX-k1.v7.6.5br2.dir/Core/Src/py32f071_it.c.obj
 .ARM.attributes
                0x000000a2       0x2c CMakeFiles/n7six.ApeX-k1.v7.6.5br2.dir/Core/Src/system_py32f071.c.obj
 .ARM.attributes
                0x000000ce       0x22 CMakeFiles/n7six.ApeX-k1.v7.6.5br2.dir/Core/startup_py32f071xx.s.obj
 .ARM.attributes
                0x000000f0       0x2c CMakeFiles/n7six.ApeX-k1.v7.6.5br2.dir/Drivers/PY32F071_HAL_Driver/Src/py32f071_ll_rcc.c.obj
 .ARM.attributes
                0x0000011c       0x2c CMakeFiles/n7six.ApeX-k1.v7.6.5br2.dir/Drivers/PY32F071_HAL_Driver/Src/py32f071_ll_dma.c.obj
 .ARM.attributes
                0x00000148       0x2c CMakeFiles/n7six.ApeX-k1.v7.6.5br2.dir/Drivers/PY32F071_HAL_Driver/Src/py32f071_ll_gpio.c.obj
 .ARM.attributes
                0x00000174       0x2c CMakeFiles/n7six.ApeX-k1.v7.6.5br2.dir/Drivers/PY32F071_HAL_Driver/Src/py32f071_ll_utils.c.obj
 .ARM.attributes
                0x000001a0       0x2c CMakeFiles/n7six.ApeX-k1.v7.6.5br2.dir/Drivers/PY32F071_HAL_Driver/Src/py32f071_ll_spi.c.obj
 .ARM.attributes
                0x000001cc       0x2c CMakeFiles/n7six.ApeX-k1.v7.6.5br2.dir/Drivers/PY32F071_HAL_Driver/Src/py32f071_ll_usart.c.obj
 .ARM.attributes
                0x000001f8       0x2c CMakeFiles/n7six.ApeX-k1.v7.6.5br2.dir/App/driver/backlight.c.obj
 .ARM.attributes
                0x00000224       0x2c CMakeFiles/n7six.ApeX-k1.v7.6.5br2.dir/App/driver/bk4829.c.obj
 .ARM.attributes
                0x00000250       0x2c CMakeFiles/n7six.ApeX-k1.v7.6.5br2.dir/App/driver/py25q16.c.obj
 .ARM.attributes
                0x0000027c       0x2c CMakeFiles/n7six.ApeX-k1.v7.6.5br2.dir/App/driver/i2c.c.obj
 .ARM.attributes
                0x000002a8       0x2c CMakeFiles/n7six.ApeX-k1.v7.6.5br2.dir/App/driver/keyboard.c.obj
 .ARM.attributes
                0x000002d4       0x2c CMakeFiles/n7six.ApeX-k1.v7.6.5br2.dir/App/driver/st7565.c.obj
 .ARM.attributes
                0x00000300       0x2c CMakeFiles/n7six.ApeX-k1.v7.6.5br2.dir/App/driver/system.c.obj
 .ARM.attributes
                0x0000032c       0x2c CMakeFiles/n7six.ApeX-k1.v7.6.5br2.dir/App/driver/systick.c.obj
 .ARM.attributes
                0x00000358       0x2c CMakeFiles/n7six.ApeX-k1.v7.6.5br2.dir/App/app/action.c.obj
 .ARM.attributes
                0x00000384       0x2c CMakeFiles/n7six.ApeX-k1.v7.6.5br2.dir/App/app/app.c.obj
 .ARM.attributes
                0x000003b0       0x2c CMakeFiles/n7six.ApeX-k1.v7.6.5br2.dir/App/app/chFrScanner.c.obj
 .ARM.attributes
                0x000003dc       0x2c CMakeFiles/n7six.ApeX-k1.v7.6.5br2.dir/App/app/common.c.obj
 .ARM.attributes
                0x00000408       0x2c CMakeFiles/n7six.ApeX-k1.v7.6.5br2.dir/App/app/dtmf.c.obj
 .ARM.attributes
                0x00000434       0x2c CMakeFiles/n7six.ApeX-k1.v7.6.5br2.dir/App/app/events.c.obj
 .ARM.attributes
                0x00000460       0x2c CMakeFiles/n7six.ApeX-k1.v7.6.5br2.dir/App/app/events_handlers.c.obj
 .ARM.attributes
                0x0000048c       0x2c CMakeFiles/n7six.ApeX-k1.v7.6.5br2.dir/App/app/generic.c.obj
 .ARM.attributes
                0x000004b8       0x2c CMakeFiles/n7six.ApeX-k1.v7.6.5br2.dir/App/app/main.c.obj
 .ARM.attributes
                0x000004e4       0x2c CMakeFiles/n7six.ApeX-k1.v7.6.5br2.dir/App/app/menu.c.obj
 .ARM.attributes
                0x00000510       0x2c CMakeFiles/n7six.ApeX-k1.v7.6.5br2.dir/App/app/scanner.c.obj
 .ARM.attributes
                0x0000053c       0x2c CMakeFiles/n7six.ApeX-k1.v7.6.5br2.dir/App/audio.c.obj
 .ARM.attributes
                0x00000568       0x2c CMakeFiles/n7six.ApeX-k1.v7.6.5br2.dir/App/bitmaps.c.obj
 .ARM.attributes
                0x00000594       0x2c CMakeFiles/n7six.ApeX-k1.v7.6.5br2.dir/App/board.c.obj
 .ARM.attributes
                0x000005c0       0x2c CMakeFiles/n7six.ApeX-k1.v7.6.5br2.dir/App/dcs.c.obj
 .ARM.attributes
                0x000005ec       0x2c CMakeFiles/n7six.ApeX-k1.v7.6.5br2.dir/App/font.c.obj
 .ARM.attributes
                0x00000618       0x2c CMakeFiles/n7six.ApeX-k1.v7.6.5br2.dir/App/frequencies.c.obj
 .ARM.attributes
                0x00000644       0x2c CMakeFiles/n7six.ApeX-k1.v7.6.5br2.dir/App/functions.c.obj
 .ARM.attributes
                0x00000670       0x2c CMakeFiles/n7six.ApeX-k1.v7.6.5br2.dir/App/helper/battery.c.obj
 .ARM.attributes
                0x0000069c       0x2c CMakeFiles/n7six.ApeX-k1.v7.6.5br2.dir/App/helper/boot.c.obj
 .ARM.attributes
                0x000006c8       0x2c CMakeFiles/n7six.ApeX-k1.v7.6.5br2.dir/App/misc.c.obj
 .ARM.attributes
                0x000006f4       0x2c CMakeFiles/n7six.ApeX-k1.v7.6.5br2.dir/App/radio.c.obj
 .ARM.attributes
                0x00000720       0x2c CMakeFiles/n7six.ApeX-k1.v7.6.5br2.dir/App/scheduler.c.obj
 .ARM.attributes
                0x0000074c       0x2c CMakeFiles/n7six.ApeX-k1.v7.6.5br2.dir/App/settings.c.obj
 .ARM.attributes
                0x00000778       0x2c CMakeFiles/n7six.ApeX-k1.v7.6.5br2.dir/App/ui/battery.c.obj
 .ARM.attributes
                0x000007a4       0x2c CMakeFiles/n7six.ApeX-k1.v7.6.5br2.dir/App/ui/helper.c.obj
 .ARM.attributes
                0x000007d0       0x2c CMakeFiles/n7six.ApeX-k1.v7.6.5br2.dir/App/ui/inputbox.c.obj
 .ARM.attributes
                0x000007fc       0x2c CMakeFiles/n7six.ApeX-k1.v7.6.5br2.dir/App/ui/main.c.obj
 .ARM.attributes
                0x00000828       0x2c CMakeFiles/n7six.ApeX-k1.v7.6.5br2.dir/App/ui/menu.c.obj
 .ARM.attributes
                0x00000854       0x2c CMakeFiles/n7six.ApeX-k1.v7.6.5br2.dir/App/ui/scanner.c.obj
 .ARM.attributes
                0x00000880       0x2c CMakeFiles/n7six.ApeX-k1.v7.6.5br2.dir/App/ui/status.c.obj
 .ARM.attributes
                0x000008ac       0x2c CMakeFiles/n7six.ApeX-k1.v7.6.5br2.dir/App/ui/ui.c.obj
 .ARM.attributes
                0x000008d8       0x2c CMakeFiles/n7six.ApeX-k1.v7.6.5br2.dir/App/ui/welcome.c.obj
 .ARM.attributes
                0x00000904       0x2c CMakeFiles/n7six.ApeX-k1.v7.6.5br2.dir/App/version.c.obj
 .ARM.attributes
                0x00000930       0x2c CMakeFiles/n7six.ApeX-k1.v7.6.5br2.dir/App/main.c.obj
 .ARM.attributes
                0x0000095c       0x2c CMakeFiles/n7six.ApeX-k1.v7.6.5br2.dir/App/external/printf/printf.c.obj
 .ARM.attributes
                0x00000988       0x2c CMakeFiles/n7six.ApeX-k1.v7.6.5br2.dir/App/driver/crc.c.obj
 .ARM.attributes
                0x000009b4       0x2c CMakeFiles/n7six.ApeX-k1.v7.6.5br2.dir/App/driver/eeprom_compat.c.obj
 .ARM.attributes
                0x000009e0       0x2c CMakeFiles/n7six.ApeX-k1.v7.6.5br2.dir/App/driver/uart.c.obj
 .ARM.attributes
                0x00000a0c       0x2c CMakeFiles/n7six.ApeX-k1.v7.6.5br2.dir/App/app/uart.c.obj
 .ARM.attributes
                0x00000a38       0x2c CMakeFiles/n7six.ApeX-k1.v7.6.5br2.dir/App/driver/vcp.c.obj
 .ARM.attributes
                0x00000a64       0x2c CMakeFiles/n7six.ApeX-k1.v7.6.5br2.dir/App/usb/usbd_cdc_if.c.obj
 .ARM.attributes
                0x00000a90       0x2c CMakeFiles/n7six.ApeX-k1.v7.6.5br2.dir/App/driver/bk1080.c.obj
 .ARM.attributes
                0x00000abc       0x2c CMakeFiles/n7six.ApeX-k1.v7.6.5br2.dir/App/app/fm.c.obj
 .ARM.attributes
                0x00000ae8       0x2c CMakeFiles/n7six.ApeX-k1.v7.6.5br2.dir/App/ui/fmradio.c.obj
 .ARM.attributes
                0x00000b14       0x2c CMakeFiles/n7six.ApeX-k1.v7.6.5br2.dir/App/app/aircopy.c.obj
 .ARM.attributes
                0x00000b40       0x2c CMakeFiles/n7six.ApeX-k1.v7.6.5br2.dir/App/ui/aircopy.c.obj
 .ARM.attributes
                0x00000b6c       0x2c CMakeFiles/n7six.ApeX-k1.v7.6.5br2.dir/App/app/flashlight.c.obj
 .ARM.attributes
                0x00000b98       0x2c CMakeFiles/n7six.ApeX-k1.v7.6.5br2.dir/App/app/spectrum.c.obj
 .ARM.attributes
                0x00000bc4       0x2c CMakeFiles/n7six.ApeX-k1.v7.6.5br2.dir/App/app/breakout.c.obj
 .ARM.attributes
                0x00000bf0       0x2c CMakeFiles/n7six.ApeX-k1.v7.6.5br2.dir/App/screenshot.c.obj
 .ARM.attributes
                0x00000c1c       0x2c CMakeFiles/n7six.ApeX-k1.v7.6.5br2.dir/Middlewares/CherryUSB/core/usbd_core.c.obj
 .ARM.attributes
                0x00000c48       0x2c CMakeFiles/n7six.ApeX-k1.v7.6.5br2.dir/Middlewares/CherryUSB/port/usb_dc_py32.c.obj
 .ARM.attributes
                0x00000c74       0x2c CMakeFiles/n7six.ApeX-k1.v7.6.5br2.dir/Middlewares/CherryUSB/class/cdc/usbd_cdc.c.obj
 .ARM.attributes
                0x00000ca0       0x1e /opt/toolchain/bin/../lib/gcc/arm-none-eabi/13.3.1/thumb/v6-m/nofp/libgcc.a(_thumb1_case_sqi.o)
 .ARM.attributes
                0x00000cbe       0x1e /opt/toolchain/bin/../lib/gcc/arm-none-eabi/13.3.1/thumb/v6-m/nofp/libgcc.a(_thumb1_case_uqi.o)
 .ARM.attributes
                0x00000cdc       0x1e /opt/toolchain/bin/../lib/gcc/arm-none-eabi/13.3.1/thumb/v6-m/nofp/libgcc.a(_thumb1_case_shi.o)
 .ARM.attributes
                0x00000cfa       0x1e /opt/toolchain/bin/../lib/gcc/arm-none-eabi/13.3.1/thumb/v6-m/nofp/libgcc.a(_thumb1_case_uhi.o)
 .ARM.attributes
                0x00000d18       0x1e /opt/toolchain/bin/../lib/gcc/arm-none-eabi/13.3.1/thumb/v6-m/nofp/libgcc.a(_udivsi3.o)
 .ARM.attributes
                0x00000d36       0x1e /opt/toolchain/bin/../lib/gcc/arm-none-eabi/13.3.1/thumb/v6-m/nofp/libgcc.a(_divsi3.o)
 .ARM.attributes
                0x00000d54       0x1e /opt/toolchain/bin/../lib/gcc/arm-none-eabi/13.3.1/thumb/v6-m/nofp/libgcc.a(_dvmd_tls.o)
 .ARM.attributes
                0x00000d72       0x1e /opt/toolchain/bin/../lib/gcc/arm-none-eabi/13.3.1/thumb/v6-m/nofp/libgcc.a(_clzsi2.o)
 .ARM.attributes
                0x00000d90       0x2c /opt/toolchain/bin/../lib/gcc/arm-none-eabi/13.3.1/thumb/v6-m/nofp/libgcc.a(_muldi3.o)
 .ARM.attributes
                0x00000dbc       0x2c /opt/toolchain/bin/../lib/gcc/arm-none-eabi/13.3.1/../../../../arm-none-eabi/lib/thumb/v6-m/nofp/libg_nano.a(libc_a-init.o)
 .ARM.attributes
                0x00000de8       0x2c /opt/toolchain/bin/../lib/gcc/arm-none-eabi/13.3.1/../../../../arm-none-eabi/lib/thumb/v6-m/nofp/libg_nano.a(libc_a-memmove.o)
 .ARM.attributes
                0x00000e14       0x2c /opt/toolchain/bin/../lib/gcc/arm-none-eabi/13.3.1/../../../../arm-none-eabi/lib/thumb/v6-m/nofp/libg_nano.a(libc_a-memset.o)
 .ARM.attributes
                0x00000e40       0x2c /opt/toolchain/bin/../lib/gcc/arm-none-eabi/13.3.1/../../../../arm-none-eabi/lib/thumb/v6-m/nofp/libg_nano.a(libc_a-memcpy-stub.o)
 .ARM.attributes
                0x00000e6c       0x1c /opt/toolchain/bin/../lib/gcc/arm-none-eabi/13.3.1/../../../../arm-none-eabi/lib/thumb/v6-m/nofp/libg_nano.a(libc_a-strlen.o)
 .ARM.attributes
                0x00000e88       0x2c /opt/toolchain/bin/../lib/gcc/arm-none-eabi/13.3.1/../../../../arm-none-eabi/lib/thumb/v6-m/nofp/libg_nano.a(libc_a-strncpy.o)
 .ARM.attributes
                0x00000eb4       0x2c /opt/toolchain/bin/../lib/gcc/arm-none-eabi/13.3.1/../../../../arm-none-eabi/lib/thumb/v6-m/nofp/libg_nano.a(libc_a-strnlen.o)
 .ARM.attributes
                0x00000ee0       0x2c /opt/toolchain/bin/../lib/gcc/arm-none-eabi/13.3.1/../../../../arm-none-eabi/lib/thumb/v6-m/nofp/libg_nano.a(libc_a-memcmp.o)
 .ARM.attributes
                0x00000f0c       0x2c /opt/toolchain/bin/../lib/gcc/arm-none-eabi/13.3.1/thumb/v6-m/nofp/crtend.o
 .ARM.attributes
                0x00000f38       0x1e /opt/toolchain/bin/../lib/gcc/arm-none-eabi/13.3.1/thumb/v6-m/nofp/crtn.o
OUTPUT(n7six.ApeX-k1.v7.6.5br2.elf elf32-littlearm)
LOAD linker stubs
LOAD /opt/toolchain/bin/../lib/gcc/arm-none-eabi/13.3.1/../../../../arm-none-eabi/lib/thumb/v6-m/nofp/libc.a
LOAD /opt/toolchain/bin/../lib/gcc/arm-none-eabi/13.3.1/../../../../arm-none-eabi/lib/thumb/v6-m/nofp/libm.a
LOAD /opt/toolchain/bin/../lib/gcc/arm-none-eabi/13.3.1/thumb/v6-m/nofp/libgcc.a

.comment        0x00000000       0x45
 .comment       0x00000000       0x45 CMakeFiles/n7six.ApeX-k1.v7.6.5br2.dir/Core/Src/main.c.obj
                                 0x46 (size before relaxing)
 .comment       0x00000045       0x46 CMakeFiles/n7six.ApeX-k1.v7.6.5br2.dir/Core/Src/py32f071_it.c.obj
 .comment       0x00000045       0x46 CMakeFiles/n7six.ApeX-k1.v7.6.5br2.dir/Core/Src/system_py32f071.c.obj
 .comment       0x00000045       0x46 CMakeFiles/n7six.ApeX-k1.v7.6.5br2.dir/Drivers/PY32F071_HAL_Driver/Src/py32f071_ll_rcc.c.obj
 .comment       0x00000045       0x46 CMakeFiles/n7six.ApeX-k1.v7.6.5br2.dir/Drivers/PY32F071_HAL_Driver/Src/py32f071_ll_dma.c.obj
 .comment       0x00000045       0x46 CMakeFiles/n7six.ApeX-k1.v7.6.5br2.dir/Drivers/PY32F071_HAL_Driver/Src/py32f071_ll_gpio.c.obj
 .comment       0x00000045       0x46 CMakeFiles/n7six.ApeX-k1.v7.6.5br2.dir/Drivers/PY32F071_HAL_Driver/Src/py32f071_ll_utils.c.obj
 .comment       0x00000045       0x46 CMakeFiles/n7six.ApeX-k1.v7.6.5br2.dir/Drivers/PY32F071_HAL_Driver/Src/py32f071_ll_spi.c.obj
 .comment       0x00000045       0x46 CMakeFiles/n7six.ApeX-k1.v7.6.5br2.dir/Drivers/PY32F071_HAL_Driver/Src/py32f071_ll_usart.c.obj
 .comment       0x00000045       0x46 CMakeFiles/n7six.ApeX-k1.v7.6.5br2.dir/App/driver/backlight.c.obj
 .comment       0x00000045       0x46 CMakeFiles/n7six.ApeX-k1.v7.6.5br2.dir/App/driver/bk4829.c.obj
 .comment       0x00000045       0x46 CMakeFiles/n7six.ApeX-k1.v7.6.5br2.dir/App/driver/py25q16.c.obj
 .comment       0x00000045       0x46 CMakeFiles/n7six.ApeX-k1.v7.6.5br2.dir/App/driver/i2c.c.obj
 .comment       0x00000045       0x46 CMakeFiles/n7six.ApeX-k1.v7.6.5br2.dir/App/driver/keyboard.c.obj
 .comment       0x00000045       0x46 CMakeFiles/n7six.ApeX-k1.v7.6.5br2.dir/App/driver/st7565.c.obj
 .comment       0x00000045       0x46 CMakeFiles/n7six.ApeX-k1.v7.6.5br2.dir/App/driver/system.c.obj
 .comment       0x00000045       0x46 CMakeFiles/n7six.ApeX-k1.v7.6.5br2.dir/App/driver/systick.c.obj
 .comment       0x00000045       0x46 CMakeFiles/n7six.ApeX-k1.v7.6.5br2.dir/App/app/action.c.obj
 .comment       0x00000045       0x46 CMakeFiles/n7six.ApeX-k1.v7.6.5br2.dir/App/app/app.c.obj
 .comment       0x00000045       0x46 CMakeFiles/n7six.ApeX-k1.v7.6.5br2.dir/App/app/chFrScanner.c.obj
 .comment       0x00000045       0x46 CMakeFiles/n7six.ApeX-k1.v7.6.5br2.dir/App/app/common.c.obj
 .comment       0x00000045       0x46 CMakeFiles/n7six.ApeX-k1.v7.6.5br2.dir/App/app/dtmf.c.obj
 .comment       0x00000045       0x46 CMakeFiles/n7six.ApeX-k1.v7.6.5br2.dir/App/app/events.c.obj
 .comment       0x00000045       0x46 CMakeFiles/n7six.ApeX-k1.v7.6.5br2.dir/App/app/events_handlers.c.obj
 .comment       0x00000045       0x46 CMakeFiles/n7six.ApeX-k1.v7.6.5br2.dir/App/app/generic.c.obj
 .comment       0x00000045       0x46 CMakeFiles/n7six.ApeX-k1.v7.6.5br2.dir/App/app/main.c.obj
 .comment       0x00000045       0x46 CMakeFiles/n7six.ApeX-k1.v7.6.5br2.dir/App/app/menu.c.obj
 .comment       0x00000045       0x46 CMakeFiles/n7six.ApeX-k1.v7.6.5br2.dir/App/app/scanner.c.obj
 .comment       0x00000045       0x46 CMakeFiles/n7six.ApeX-k1.v7.6.5br2.dir/App/audio.c.obj
 .comment       0x00000045       0x46 CMakeFiles/n7six.ApeX-k1.v7.6.5br2.dir/App/bitmaps.c.obj
 .comment       0x00000045       0x46 CMakeFiles/n7six.ApeX-k1.v7.6.5br2.dir/App/board.c.obj
 .comment       0x00000045       0x46 CMakeFiles/n7six.ApeX-k1.v7.6.5br2.dir/App/dcs.c.obj
 .comment       0x00000045       0x46 CMakeFiles/n7six.ApeX-k1.v7.6.5br2.dir/App/font.c.obj
 .comment       0x00000045       0x46 CMakeFiles/n7six.ApeX-k1.v7.6.5br2.dir/App/frequencies.c.obj
 .comment       0x00000045       0x46 CMakeFiles/n7six.ApeX-k1.v7.6.5br2.dir/App/functions.c.obj
 .comment       0x00000045       0x46 CMakeFiles/n7six.ApeX-k1.v7.6.5br2.dir/App/helper/battery.c.obj
 .comment       0x00000045       0x46 CMakeFiles/n7six.ApeX-k1.v7.6.5br2.dir/App/helper/boot.c.obj
 .comment       0x00000045       0x46 CMakeFiles/n7six.ApeX-k1.v7.6.5br2.dir/App/misc.c.obj
 .comment       0x00000045       0x46 CMakeFiles/n7six.ApeX-k1.v7.6.5br2.dir/App/radio.c.obj
 .comment       0x00000045       0x46 CMakeFiles/n7six.ApeX-k1.v7.6.5br2.dir/App/scheduler.c.obj
 .comment       0x00000045       0x46 CMakeFiles/n7six.ApeX-k1.v7.6.5br2.dir/App/settings.c.obj
 .comment       0x00000045       0x46 CMakeFiles/n7six.ApeX-k1.v7.6.5br2.dir/App/ui/battery.c.obj
 .comment       0x00000045       0x46 CMakeFiles/n7six.ApeX-k1.v7.6.5br2.dir/App/ui/helper.c.obj
 .comment       0x00000045       0x46 CMakeFiles/n7six.ApeX-k1.v7.6.5br2.dir/App/ui/inputbox.c.obj
 .comment       0x00000045       0x46 CMakeFiles/n7six.ApeX-k1.v7.6.5br2.dir/App/ui/main.c.obj
 .comment       0x00000045       0x46 CMakeFiles/n7six.ApeX-k1.v7.6.5br2.dir/App/ui/menu.c.obj
 .comment       0x00000045       0x46 CMakeFiles/n7six.ApeX-k1.v7.6.5br2.dir/App/ui/scanner.c.obj
 .comment       0x00000045       0x46 CMakeFiles/n7six.ApeX-k1.v7.6.5br2.dir/App/ui/status.c.obj
 .comment       0x00000045       0x46 CMakeFiles/n7six.ApeX-k1.v7.6.5br2.dir/App/ui/ui.c.obj
 .comment       0x00000045       0x46 CMakeFiles/n7six.ApeX-k1.v7.6.5br2.dir/App/ui/welcome.c.obj
 .comment       0x00000045       0x46 CMakeFiles/n7six.ApeX-k1.v7.6.5br2.dir/App/version.c.obj
 .comment       0x00000045       0x46 CMakeFiles/n7six.ApeX-k1.v7.6.5br2.dir/App/main.c.obj
 .comment       0x00000045       0x46 CMakeFiles/n7six.ApeX-k1.v7.6.5br2.dir/App/external/printf/printf.c.obj
 .comment       0x00000045       0x46 CMakeFiles/n7six.ApeX-k1.v7.6.5br2.dir/App/driver/crc.c.obj
 .comment       0x00000045       0x46 CMakeFiles/n7six.ApeX-k1.v7.6.5br2.dir/App/driver/eeprom_compat.c.obj
 .comment       0x00000045       0x46 CMakeFiles/n7six.ApeX-k1.v7.6.5br2.dir/App/driver/uart.c.obj
 .comment       0x00000045       0x46 CMakeFiles/n7six.ApeX-k1.v7.6.5br2.dir/App/app/uart.c.obj
 .comment       0x00000045       0x46 CMakeFiles/n7six.ApeX-k1.v7.6.5br2.dir/App/driver/vcp.c.obj
 .comment       0x00000045       0x46 CMakeFiles/n7six.ApeX-k1.v7.6.5br2.dir/App/usb/usbd_cdc_if.c.obj
 .comment       0x00000045       0x46 CMakeFiles/n7six.ApeX-k1.v7.6.5br2.dir/App/driver/bk1080.c.obj
 .comment       0x00000045       0x46 CMakeFiles/n7six.ApeX-k1.v7.6.5br2.dir/App/app/fm.c.obj
 .comment       0x00000045       0x46 CMakeFiles/n7six.ApeX-k1.v7.6.5br2.dir/App/ui/fmradio.c.obj
 .comment       0x00000045       0x46 CMakeFiles/n7six.ApeX-k1.v7.6.5br2.dir/App/app/aircopy.c.obj
 .comment       0x00000045       0x46 CMakeFiles/n7six.ApeX-k1.v7.6.5br2.dir/App/ui/aircopy.c.obj
 .comment       0x00000045       0x46 CMakeFiles/n7six.ApeX-k1.v7.6.5br2.dir/App/app/flashlight.c.obj
 .comment       0x00000045       0x46 CMakeFiles/n7six.ApeX-k1.v7.6.5br2.dir/App/app/spectrum.c.obj
 .comment       0x00000045       0x46 CMakeFiles/n7six.ApeX-k1.v7.6.5br2.dir/App/app/breakout.c.obj
 .comment       0x00000045       0x46 CMakeFiles/n7six.ApeX-k1.v7.6.5br2.dir/App/screenshot.c.obj
 .comment       0x00000045       0x46 CMakeFiles/n7six.ApeX-k1.v7.6.5br2.dir/Middlewares/CherryUSB/core/usbd_core.c.obj
 .comment       0x00000045       0x46 CMakeFiles/n7six.ApeX-k1.v7.6.5br2.dir/Middlewares/CherryUSB/port/usb_dc_py32.c.obj
 .comment       0x00000045       0x46 CMakeFiles/n7six.ApeX-k1.v7.6.5br2.dir/Middlewares/CherryUSB/class/cdc/usbd_cdc.c.obj

.debug_line_str
                0x00000000      0x1a2
 .debug_line_str
                0x00000000      0x1a2 /opt/toolchain/bin/../lib/gcc/arm-none-eabi/13.3.1/thumb/v6-m/nofp/libgcc.a(_thumb1_case_sqi.o)
                                 0xc2 (size before relaxing)
 .debug_line_str
                0x000001a2       0xc2 /opt/toolchain/bin/../lib/gcc/arm-none-eabi/13.3.1/thumb/v6-m/nofp/libgcc.a(_thumb1_case_uqi.o)
 .debug_line_str
                0x000001a2       0xc2 /opt/toolchain/bin/../lib/gcc/arm-none-eabi/13.3.1/thumb/v6-m/nofp/libgcc.a(_thumb1_case_shi.o)
 .debug_line_str
                0x000001a2       0xc2 /opt/toolchain/bin/../lib/gcc/arm-none-eabi/13.3.1/thumb/v6-m/nofp/libgcc.a(_thumb1_case_uhi.o)
 .debug_line_str
                0x000001a2       0xc2 /opt/toolchain/bin/../lib/gcc/arm-none-eabi/13.3.1/thumb/v6-m/nofp/libgcc.a(_udivsi3.o)
 .debug_line_str
                0x000001a2       0xc2 /opt/toolchain/bin/../lib/gcc/arm-none-eabi/13.3.1/thumb/v6-m/nofp/libgcc.a(_divsi3.o)
 .debug_line_str
                0x000001a2       0xc2 /opt/toolchain/bin/../lib/gcc/arm-none-eabi/13.3.1/thumb/v6-m/nofp/libgcc.a(_dvmd_tls.o)
 .debug_line_str
                0x000001a2       0xc2 /opt/toolchain/bin/../lib/gcc/arm-none-eabi/13.3.1/thumb/v6-m/nofp/libgcc.a(_clzsi2.o)
 .debug_line_str
                0x000001a2       0xe0 /opt/toolchain/bin/../lib/gcc/arm-none-eabi/13.3.1/../../../../arm-none-eabi/lib/thumb/v6-m/nofp/libg_nano.a(libc_a-strlen.o)

.debug_frame    0x00000000      0x188
 .debug_frame   0x00000000       0x20 /opt/toolchain/bin/../lib/gcc/arm-none-eabi/13.3.1/thumb/v6-m/nofp/libgcc.a(_udivsi3.o)
 .debug_frame   0x00000020       0x20 /opt/toolchain/bin/../lib/gcc/arm-none-eabi/13.3.1/thumb/v6-m/nofp/libgcc.a(_divsi3.o)
 .debug_frame   0x00000040       0x34 /opt/toolchain/bin/../lib/gcc/arm-none-eabi/13.3.1/thumb/v6-m/nofp/libgcc.a(_muldi3.o)
 .debug_frame   0x00000074       0x2c /opt/toolchain/bin/../lib/gcc/arm-none-eabi/13.3.1/../../../../arm-none-eabi/lib/thumb/v6-m/nofp/libg_nano.a(libc_a-init.o)
 .debug_frame   0x000000a0       0x28 /opt/toolchain/bin/../lib/gcc/arm-none-eabi/13.3.1/../../../../arm-none-eabi/lib/thumb/v6-m/nofp/libg_nano.a(libc_a-memmove.o)
 .debug_frame   0x000000c8       0x20 /opt/toolchain/bin/../lib/gcc/arm-none-eabi/13.3.1/../../../../arm-none-eabi/lib/thumb/v6-m/nofp/libg_nano.a(libc_a-memset.o)
 .debug_frame   0x000000e8       0x28 /opt/toolchain/bin/../lib/gcc/arm-none-eabi/13.3.1/../../../../arm-none-eabi/lib/thumb/v6-m/nofp/libg_nano.a(libc_a-memcpy-stub.o)
 .debug_frame   0x00000110       0x2c /opt/toolchain/bin/../lib/gcc/arm-none-eabi/13.3.1/../../../../arm-none-eabi/lib/thumb/v6-m/nofp/libg_nano.a(libc_a-strncpy.o)
 .debug_frame   0x0000013c       0x20 /opt/toolchain/bin/../lib/gcc/arm-none-eabi/13.3.1/../../../../arm-none-eabi/lib/thumb/v6-m/nofp/libg_nano.a(libc_a-strnlen.o)
 .debug_frame   0x0000015c       0x2c /opt/toolchain/bin/../lib/gcc/arm-none-eabi/13.3.1/../../../../arm-none-eabi/lib/thumb/v6-m/nofp/libg_nano.a(libc_a-memcmp.o)
