Archive member included to satisfy reference by file (symbol)

/opt/toolchain/bin/../lib/gcc/arm-none-eabi/13.3.1/thumb/v6-m/nofp/libgcc.a(_thumb1_case_sqi.o)
                              CMakeFiles/n7six.ApeX-k1.v7.6.5br1.dir/App/app/menu.c.obj (__gnu_thumb1_case_sqi)
/opt/toolchain/bin/../lib/gcc/arm-none-eabi/13.3.1/thumb/v6-m/nofp/libgcc.a(_thumb1_case_uqi.o)
                              CMakeFiles/n7six.ApeX-k1.v7.6.5br1.dir/Drivers/PY32F071_HAL_Driver/Src/py32f071_ll_dma.c.obj (__gnu_thumb1_case_uqi)
/opt/toolchain/bin/../lib/gcc/arm-none-eabi/13.3.1/thumb/v6-m/nofp/libgcc.a(_thumb1_case_shi.o)
                              CMakeFiles/n7six.ApeX-k1.v7.6.5br1.dir/App/app/main.c.obj (__gnu_thumb1_case_shi)
/opt/toolchain/bin/../lib/gcc/arm-none-eabi/13.3.1/thumb/v6-m/nofp/libgcc.a(_thumb1_case_uhi.o)
                              CMakeFiles/n7six.ApeX-k1.v7.6.5br1.dir/App/app/main.c.obj (__gnu_thumb1_case_uhi)
/opt/toolchain/bin/../lib/gcc/arm-none-eabi/13.3.1/thumb/v6-m/nofp/libgcc.a(_udivsi3.o)
                              CMakeFiles/n7six.ApeX-k1.v7.6.5br1.dir/Drivers/PY32F071_HAL_Driver/Src/py32f071_ll_rcc.c.obj (__aeabi_uidiv)
/opt/toolchain/bin/../lib/gcc/arm-none-eabi/13.3.1/thumb/v6-m/nofp/libgcc.a(_divsi3.o)
                              CMakeFiles/n7six.ApeX-k1.v7.6.5br1.dir/Drivers/PY32F071_HAL_Driver/Src/py32f071_ll_i2c.c.obj (__aeabi_idiv)
/opt/toolchain/bin/../lib/gcc/arm-none-eabi/13.3.1/thumb/v6-m/nofp/libgcc.a(_dvmd_tls.o)
                              /opt/toolchain/bin/../lib/gcc/arm-none-eabi/13.3.1/thumb/v6-m/nofp/libgcc.a(_udivsi3.o) (__aeabi_idiv0)
/opt/toolchain/bin/../lib/gcc/arm-none-eabi/13.3.1/thumb/v6-m/nofp/libgcc.a(_clzsi2.o)
                              CMakeFiles/n7six.ApeX-k1.v7.6.5br1.dir/App/board.c.obj (__clzsi2)
/opt/toolchain/bin/../lib/gcc/arm-none-eabi/13.3.1/thumb/v6-m/nofp/libgcc.a(_muldi3.o)
                              CMakeFiles/n7six.ApeX-k1.v7.6.5br1.dir/App/app/spectrum.c.obj (__aeabi_lmul)
/opt/toolchain/bin/../lib/gcc/arm-none-eabi/13.3.1/thumb/v6-m/nofp/libgcc.a(_fixunssfsi.o)
                              CMakeFiles/n7six.ApeX-k1.v7.6.5br1.dir/App/app/spectrum.c.obj (__aeabi_f2uiz)
/opt/toolchain/bin/../lib/gcc/arm-none-eabi/13.3.1/thumb/v6-m/nofp/libgcc.a(addsf3.o)
                              CMakeFiles/n7six.ApeX-k1.v7.6.5br1.dir/App/app/spectrum.c.obj (__aeabi_fadd)
/opt/toolchain/bin/../lib/gcc/arm-none-eabi/13.3.1/thumb/v6-m/nofp/libgcc.a(mulsf3.o)
                              CMakeFiles/n7six.ApeX-k1.v7.6.5br1.dir/App/app/spectrum.c.obj (__aeabi_fmul)
/opt/toolchain/bin/../lib/gcc/arm-none-eabi/13.3.1/thumb/v6-m/nofp/libgcc.a(subsf3.o)
                              /opt/toolchain/bin/../lib/gcc/arm-none-eabi/13.3.1/thumb/v6-m/nofp/libgcc.a(_fixunssfsi.o) (__aeabi_fsub)
/opt/toolchain/bin/../lib/gcc/arm-none-eabi/13.3.1/thumb/v6-m/nofp/libgcc.a(fixsfsi.o)
                              /opt/toolchain/bin/../lib/gcc/arm-none-eabi/13.3.1/thumb/v6-m/nofp/libgcc.a(_fixunssfsi.o) (__aeabi_f2iz)
/opt/toolchain/bin/../lib/gcc/arm-none-eabi/13.3.1/thumb/v6-m/nofp/libgcc.a(floatsisf.o)
                              CMakeFiles/n7six.ApeX-k1.v7.6.5br1.dir/App/app/spectrum.c.obj (__aeabi_i2f)
/opt/toolchain/bin/../lib/gcc/arm-none-eabi/13.3.1/thumb/v6-m/nofp/libgcc.a(_arm_cmpsf2.o)
                              /opt/toolchain/bin/../lib/gcc/arm-none-eabi/13.3.1/thumb/v6-m/nofp/libgcc.a(_fixunssfsi.o) (__aeabi_fcmpge)
/opt/toolchain/bin/../lib/gcc/arm-none-eabi/13.3.1/thumb/v6-m/nofp/libgcc.a(eqsf2.o)
                              /opt/toolchain/bin/../lib/gcc/arm-none-eabi/13.3.1/thumb/v6-m/nofp/libgcc.a(_arm_cmpsf2.o) (__eqsf2)
/opt/toolchain/bin/../lib/gcc/arm-none-eabi/13.3.1/thumb/v6-m/nofp/libgcc.a(gesf2.o)
                              /opt/toolchain/bin/../lib/gcc/arm-none-eabi/13.3.1/thumb/v6-m/nofp/libgcc.a(_arm_cmpsf2.o) (__gesf2)
/opt/toolchain/bin/../lib/gcc/arm-none-eabi/13.3.1/thumb/v6-m/nofp/libgcc.a(lesf2.o)
                              /opt/toolchain/bin/../lib/gcc/arm-none-eabi/13.3.1/thumb/v6-m/nofp/libgcc.a(_arm_cmpsf2.o) (__lesf2)
/opt/toolchain/bin/../lib/gcc/arm-none-eabi/13.3.1/../../../../arm-none-eabi/lib/thumb/v6-m/nofp/libg_nano.a(libc_a-exit.o)
                              /opt/toolchain/bin/../lib/gcc/arm-none-eabi/13.3.1/../../../../arm-none-eabi/lib/thumb/v6-m/nofp/crt0.o (exit)
/opt/toolchain/bin/../lib/gcc/arm-none-eabi/13.3.1/../../../../arm-none-eabi/lib/thumb/v6-m/nofp/libg_nano.a(libc_a-init.o)
                              /opt/toolchain/bin/../lib/gcc/arm-none-eabi/13.3.1/../../../../arm-none-eabi/lib/thumb/v6-m/nofp/crt0.o (__libc_init_array)
/opt/toolchain/bin/../lib/gcc/arm-none-eabi/13.3.1/../../../../arm-none-eabi/lib/thumb/v6-m/nofp/libg_nano.a(libc_a-memmove.o)
                              CMakeFiles/n7six.ApeX-k1.v7.6.5br1.dir/App/app/dtmf.c.obj (memmove)
/opt/toolchain/bin/../lib/gcc/arm-none-eabi/13.3.1/../../../../arm-none-eabi/lib/thumb/v6-m/nofp/libg_nano.a(libc_a-memset.o)
                              /opt/toolchain/bin/../lib/gcc/arm-none-eabi/13.3.1/../../../../arm-none-eabi/lib/thumb/v6-m/nofp/crt0.o (memset)
/opt/toolchain/bin/../lib/gcc/arm-none-eabi/13.3.1/../../../../arm-none-eabi/lib/thumb/v6-m/nofp/libg_nano.a(libc_a-memcpy-stub.o)
                              CMakeFiles/n7six.ApeX-k1.v7.6.5br1.dir/App/driver/bk4829.c.obj (memcpy)
/opt/toolchain/bin/../lib/gcc/arm-none-eabi/13.3.1/../../../../arm-none-eabi/lib/thumb/v6-m/nofp/libg_nano.a(libc_a-strlen.o)
                              CMakeFiles/n7six.ApeX-k1.v7.6.5br1.dir/App/app/app.c.obj (strlen)
/opt/toolchain/bin/../lib/gcc/arm-none-eabi/13.3.1/../../../../arm-none-eabi/lib/thumb/v6-m/nofp/libg_nano.a(libc_a-findfp.o)
                              /opt/toolchain/bin/../lib/gcc/arm-none-eabi/13.3.1/../../../../arm-none-eabi/lib/thumb/v6-m/nofp/libg_nano.a(libc_a-exit.o) (__stdio_exit_handler)
/opt/toolchain/bin/../lib/gcc/arm-none-eabi/13.3.1/../../../../arm-none-eabi/lib/thumb/v6-m/nofp/libg_nano.a(libc_a-strncpy.o)
                              CMakeFiles/n7six.ApeX-k1.v7.6.5br1.dir/App/app/generic.c.obj (strncpy)
/opt/toolchain/bin/../lib/gcc/arm-none-eabi/13.3.1/../../../../arm-none-eabi/lib/thumb/v6-m/nofp/libg_nano.a(libc_a-strnlen.o)
                              CMakeFiles/n7six.ApeX-k1.v7.6.5br1.dir/App/app/uart.c.obj (strnlen)
/opt/toolchain/bin/../lib/gcc/arm-none-eabi/13.3.1/../../../../arm-none-eabi/lib/thumb/v6-m/nofp/libg_nano.a(libc_a-stdio.o)
                              /opt/toolchain/bin/../lib/gcc/arm-none-eabi/13.3.1/../../../../arm-none-eabi/lib/thumb/v6-m/nofp/libg_nano.a(libc_a-findfp.o) (__sread)
/opt/toolchain/bin/../lib/gcc/arm-none-eabi/13.3.1/../../../../arm-none-eabi/lib/thumb/v6-m/nofp/libg_nano.a(libc_a-lseekr.o)
                              /opt/toolchain/bin/../lib/gcc/arm-none-eabi/13.3.1/../../../../arm-none-eabi/lib/thumb/v6-m/nofp/libg_nano.a(libc_a-stdio.o) (_lseek_r)
/opt/toolchain/bin/../lib/gcc/arm-none-eabi/13.3.1/../../../../arm-none-eabi/lib/thumb/v6-m/nofp/libg_nano.a(libc_a-readr.o)
                              /opt/toolchain/bin/../lib/gcc/arm-none-eabi/13.3.1/../../../../arm-none-eabi/lib/thumb/v6-m/nofp/libg_nano.a(libc_a-stdio.o) (_read_r)
/opt/toolchain/bin/../lib/gcc/arm-none-eabi/13.3.1/../../../../arm-none-eabi/lib/thumb/v6-m/nofp/libg_nano.a(libc_a-fwalk.o)
                              /opt/toolchain/bin/../lib/gcc/arm-none-eabi/13.3.1/../../../../arm-none-eabi/lib/thumb/v6-m/nofp/libg_nano.a(libc_a-findfp.o) (_fwalk_sglue)
/opt/toolchain/bin/../lib/gcc/arm-none-eabi/13.3.1/../../../../arm-none-eabi/lib/thumb/v6-m/nofp/libg_nano.a(libc_a-memcmp.o)
                              CMakeFiles/n7six.ApeX-k1.v7.6.5br1.dir/App/driver/py25q16.c.obj (memcmp)
/opt/toolchain/bin/../lib/gcc/arm-none-eabi/13.3.1/../../../../arm-none-eabi/lib/thumb/v6-m/nofp/libg_nano.a(libc_a-writer.o)
                              /opt/toolchain/bin/../lib/gcc/arm-none-eabi/13.3.1/../../../../arm-none-eabi/lib/thumb/v6-m/nofp/libg_nano.a(libc_a-stdio.o) (_write_r)
/opt/toolchain/bin/../lib/gcc/arm-none-eabi/13.3.1/../../../../arm-none-eabi/lib/thumb/v6-m/nofp/libg_nano.a(libc_a-lock.o)
                              /opt/toolchain/bin/../lib/gcc/arm-none-eabi/13.3.1/../../../../arm-none-eabi/lib/thumb/v6-m/nofp/libg_nano.a(libc_a-findfp.o) (__retarget_lock_init_recursive)
/opt/toolchain/bin/../lib/gcc/arm-none-eabi/13.3.1/../../../../arm-none-eabi/lib/thumb/v6-m/nofp/libg_nano.a(libc_a-fflush.o)
                              /opt/toolchain/bin/../lib/gcc/arm-none-eabi/13.3.1/../../../../arm-none-eabi/lib/thumb/v6-m/nofp/libg_nano.a(libc_a-findfp.o) (_fflush_r)
/opt/toolchain/bin/../lib/gcc/arm-none-eabi/13.3.1/../../../../arm-none-eabi/lib/thumb/v6-m/nofp/libg_nano.a(libc_a-mallocr.o)
                              /opt/toolchain/bin/../lib/gcc/arm-none-eabi/13.3.1/../../../../arm-none-eabi/lib/thumb/v6-m/nofp/libg_nano.a(libc_a-findfp.o) (_malloc_r)
/opt/toolchain/bin/../lib/gcc/arm-none-eabi/13.3.1/../../../../arm-none-eabi/lib/thumb/v6-m/nofp/libg_nano.a(libc_a-closer.o)
                              /opt/toolchain/bin/../lib/gcc/arm-none-eabi/13.3.1/../../../../arm-none-eabi/lib/thumb/v6-m/nofp/libg_nano.a(libc_a-stdio.o) (_close_r)
/opt/toolchain/bin/../lib/gcc/arm-none-eabi/13.3.1/../../../../arm-none-eabi/lib/thumb/v6-m/nofp/libg_nano.a(libc_a-reent.o)
                              /opt/toolchain/bin/../lib/gcc/arm-none-eabi/13.3.1/../../../../arm-none-eabi/lib/thumb/v6-m/nofp/libg_nano.a(libc_a-lseekr.o) (errno)
/opt/toolchain/bin/../lib/gcc/arm-none-eabi/13.3.1/../../../../arm-none-eabi/lib/thumb/v6-m/nofp/libg_nano.a(libc_a-impure.o)
                              /opt/toolchain/bin/../lib/gcc/arm-none-eabi/13.3.1/../../../../arm-none-eabi/lib/thumb/v6-m/nofp/libg_nano.a(libc_a-fflush.o) (_impure_ptr)
/opt/toolchain/bin/../lib/gcc/arm-none-eabi/13.3.1/../../../../arm-none-eabi/lib/thumb/v6-m/nofp/libg_nano.a(libc_a-mlock.o)
                              /opt/toolchain/bin/../lib/gcc/arm-none-eabi/13.3.1/../../../../arm-none-eabi/lib/thumb/v6-m/nofp/libg_nano.a(libc_a-mallocr.o) (__malloc_lock)
/opt/toolchain/bin/../lib/gcc/arm-none-eabi/13.3.1/../../../../arm-none-eabi/lib/thumb/v6-m/nofp/libg_nano.a(libc_a-sbrkr.o)
                              /opt/toolchain/bin/../lib/gcc/arm-none-eabi/13.3.1/../../../../arm-none-eabi/lib/thumb/v6-m/nofp/libg_nano.a(libc_a-mallocr.o) (_sbrk_r)
/opt/toolchain/bin/../lib/gcc/arm-none-eabi/13.3.1/../../../../arm-none-eabi/lib/thumb/v6-m/nofp/libg_nano.a(libc_a-freer.o)
                              /opt/toolchain/bin/../lib/gcc/arm-none-eabi/13.3.1/../../../../arm-none-eabi/lib/thumb/v6-m/nofp/libg_nano.a(libc_a-fflush.o) (_free_r)

Discarded input sections

 .text          0x00000000        0x0 /opt/toolchain/bin/../lib/gcc/arm-none-eabi/13.3.1/thumb/v6-m/nofp/crti.o
 .data          0x00000000        0x0 /opt/toolchain/bin/../lib/gcc/arm-none-eabi/13.3.1/thumb/v6-m/nofp/crti.o
 .bss           0x00000000        0x0 /opt/toolchain/bin/../lib/gcc/arm-none-eabi/13.3.1/thumb/v6-m/nofp/crti.o
 .text          0x00000000        0x0 /opt/toolchain/bin/../lib/gcc/arm-none-eabi/13.3.1/thumb/v6-m/nofp/crtbegin.o
 .data          0x00000000        0x0 /opt/toolchain/bin/../lib/gcc/arm-none-eabi/13.3.1/thumb/v6-m/nofp/crtbegin.o
 .bss           0x00000000        0x0 /opt/toolchain/bin/../lib/gcc/arm-none-eabi/13.3.1/thumb/v6-m/nofp/crtbegin.o
 .rodata.all_implied_fbits
                0x00000000       0x24 /opt/toolchain/bin/../lib/gcc/arm-none-eabi/13.3.1/thumb/v6-m/nofp/crtbegin.o
 .data.__dso_handle
                0x00000000        0x4 /opt/toolchain/bin/../lib/gcc/arm-none-eabi/13.3.1/thumb/v6-m/nofp/crtbegin.o
 .text          0x00000000       0x80 /opt/toolchain/bin/../lib/gcc/arm-none-eabi/13.3.1/../../../../arm-none-eabi/lib/thumb/v6-m/nofp/crt0.o
 .data          0x00000000        0x0 /opt/toolchain/bin/../lib/gcc/arm-none-eabi/13.3.1/../../../../arm-none-eabi/lib/thumb/v6-m/nofp/crt0.o
 .bss           0x00000000        0x0 /opt/toolchain/bin/../lib/gcc/arm-none-eabi/13.3.1/../../../../arm-none-eabi/lib/thumb/v6-m/nofp/crt0.o
 .ARM.extab     0x00000000        0x0 /opt/toolchain/bin/../lib/gcc/arm-none-eabi/13.3.1/../../../../arm-none-eabi/lib/thumb/v6-m/nofp/crt0.o
 .ARM.exidx     0x00000000       0x10 /opt/toolchain/bin/../lib/gcc/arm-none-eabi/13.3.1/../../../../arm-none-eabi/lib/thumb/v6-m/nofp/crt0.o
 .debug_line_str
                0x00000000       0xcb /opt/toolchain/bin/../lib/gcc/arm-none-eabi/13.3.1/../../../../arm-none-eabi/lib/thumb/v6-m/nofp/crt0.o
 .ARM.attributes
                0x00000000       0x1b /opt/toolchain/bin/../lib/gcc/arm-none-eabi/13.3.1/../../../../arm-none-eabi/lib/thumb/v6-m/nofp/crt0.o
 .text          0x00000000        0x0 CMakeFiles/n7six.ApeX-k1.v7.6.5br1.dir/Core/Src/main.c.obj
 .data          0x00000000        0x0 CMakeFiles/n7six.ApeX-k1.v7.6.5br1.dir/Core/Src/main.c.obj
 .bss           0x00000000        0x0 CMakeFiles/n7six.ApeX-k1.v7.6.5br1.dir/Core/Src/main.c.obj
 .text.APP_ErrorHandler
                0x00000000        0x2 CMakeFiles/n7six.ApeX-k1.v7.6.5br1.dir/Core/Src/main.c.obj
 .text          0x00000000        0x0 CMakeFiles/n7six.ApeX-k1.v7.6.5br1.dir/Core/Src/py32f071_it.c.obj
 .data          0x00000000        0x0 CMakeFiles/n7six.ApeX-k1.v7.6.5br1.dir/Core/Src/py32f071_it.c.obj
 .bss           0x00000000        0x0 CMakeFiles/n7six.ApeX-k1.v7.6.5br1.dir/Core/Src/py32f071_it.c.obj
 .text          0x00000000        0x0 CMakeFiles/n7six.ApeX-k1.v7.6.5br1.dir/Core/Src/system_py32f071.c.obj
 .data          0x00000000        0x0 CMakeFiles/n7six.ApeX-k1.v7.6.5br1.dir/Core/Src/system_py32f071.c.obj
 .bss           0x00000000        0x0 CMakeFiles/n7six.ApeX-k1.v7.6.5br1.dir/Core/Src/system_py32f071.c.obj
 .text.SystemCoreClockUpdate
                0x00000000       0x94 CMakeFiles/n7six.ApeX-k1.v7.6.5br1.dir/Core/Src/system_py32f071.c.obj
 .text          0x00000000       0x14 CMakeFiles/n7six.ApeX-k1.v7.6.5br1.dir/Core/startup_py32f071xx.s.obj
 .data          0x00000000        0x0 CMakeFiles/n7six.ApeX-k1.v7.6.5br1.dir/Core/startup_py32f071xx.s.obj
 .bss           0x00000000        0x0 CMakeFiles/n7six.ApeX-k1.v7.6.5br1.dir/Core/startup_py32f071xx.s.obj
 .text          0x00000000        0x0 CMakeFiles/n7six.ApeX-k1.v7.6.5br1.dir/Drivers/PY32F071_HAL_Driver/Src/py32f071_ll_rcc.c.obj
 .data          0x00000000        0x0 CMakeFiles/n7six.ApeX-k1.v7.6.5br1.dir/Drivers/PY32F071_HAL_Driver/Src/py32f071_ll_rcc.c.obj
 .bss           0x00000000        0x0 CMakeFiles/n7six.ApeX-k1.v7.6.5br1.dir/Drivers/PY32F071_HAL_Driver/Src/py32f071_ll_rcc.c.obj
 .text.LL_RCC_LSE_IsReady
                0x00000000       0x10 CMakeFiles/n7six.ApeX-k1.v7.6.5br1.dir/Drivers/PY32F071_HAL_Driver/Src/py32f071_ll_rcc.c.obj
 .text.LL_RCC_LSI_IsReady
                0x00000000       0x10 CMakeFiles/n7six.ApeX-k1.v7.6.5br1.dir/Drivers/PY32F071_HAL_Driver/Src/py32f071_ll_rcc.c.obj
 .text.LL_RCC_DeInit
                0x00000000       0x70 CMakeFiles/n7six.ApeX-k1.v7.6.5br1.dir/Drivers/PY32F071_HAL_Driver/Src/py32f071_ll_rcc.c.obj
 .text.LL_RCC_GetLSCClockFreq
                0x00000000       0x24 CMakeFiles/n7six.ApeX-k1.v7.6.5br1.dir/Drivers/PY32F071_HAL_Driver/Src/py32f071_ll_rcc.c.obj
 .text.LL_RCC_GetRTCClockFreq
                0x00000000       0x54 CMakeFiles/n7six.ApeX-k1.v7.6.5br1.dir/Drivers/PY32F071_HAL_Driver/Src/py32f071_ll_rcc.c.obj
 .text.LL_RCC_GetPVDClockFreq
                0x00000000       0x24 CMakeFiles/n7six.ApeX-k1.v7.6.5br1.dir/Drivers/PY32F071_HAL_Driver/Src/py32f071_ll_rcc.c.obj
 .text.LL_RCC_GetCOMPClockFreq
                0x00000000       0x58 CMakeFiles/n7six.ApeX-k1.v7.6.5br1.dir/Drivers/PY32F071_HAL_Driver/Src/py32f071_ll_rcc.c.obj
 .text.LL_RCC_GetLPTIMClockFreq
                0x00000000       0x64 CMakeFiles/n7six.ApeX-k1.v7.6.5br1.dir/Drivers/PY32F071_HAL_Driver/Src/py32f071_ll_rcc.c.obj
 .text.LL_RCC_GetADCClockFreq
                0x00000000       0x68 CMakeFiles/n7six.ApeX-k1.v7.6.5br1.dir/Drivers/PY32F071_HAL_Driver/Src/py32f071_ll_rcc.c.obj
 .text.LL_RCC_GetMCOClockFreq
                0x00000000       0xd4 CMakeFiles/n7six.ApeX-k1.v7.6.5br1.dir/Drivers/PY32F071_HAL_Driver/Src/py32f071_ll_rcc.c.obj
 .text          0x00000000        0x0 CMakeFiles/n7six.ApeX-k1.v7.6.5br1.dir/Drivers/PY32F071_HAL_Driver/Src/py32f071_ll_pwr.c.obj
 .data          0x00000000        0x0 CMakeFiles/n7six.ApeX-k1.v7.6.5br1.dir/Drivers/PY32F071_HAL_Driver/Src/py32f071_ll_pwr.c.obj
 .bss           0x00000000        0x0 CMakeFiles/n7six.ApeX-k1.v7.6.5br1.dir/Drivers/PY32F071_HAL_Driver/Src/py32f071_ll_pwr.c.obj
 .text.LL_PWR_DeInit
                0x00000000       0x20 CMakeFiles/n7six.ApeX-k1.v7.6.5br1.dir/Drivers/PY32F071_HAL_Driver/Src/py32f071_ll_pwr.c.obj
 .comment       0x00000000       0x46 CMakeFiles/n7six.ApeX-k1.v7.6.5br1.dir/Drivers/PY32F071_HAL_Driver/Src/py32f071_ll_pwr.c.obj
 .ARM.attributes
                0x00000000       0x2c CMakeFiles/n7six.ApeX-k1.v7.6.5br1.dir/Drivers/PY32F071_HAL_Driver/Src/py32f071_ll_pwr.c.obj
 .text          0x00000000        0x0 CMakeFiles/n7six.ApeX-k1.v7.6.5br1.dir/Drivers/PY32F071_HAL_Driver/Src/py32f071_ll_dma.c.obj
 .data          0x00000000        0x0 CMakeFiles/n7six.ApeX-k1.v7.6.5br1.dir/Drivers/PY32F071_HAL_Driver/Src/py32f071_ll_dma.c.obj
 .bss           0x00000000        0x0 CMakeFiles/n7six.ApeX-k1.v7.6.5br1.dir/Drivers/PY32F071_HAL_Driver/Src/py32f071_ll_dma.c.obj
 .text.LL_DMA_DeInit
                0x00000000       0x94 CMakeFiles/n7six.ApeX-k1.v7.6.5br1.dir/Drivers/PY32F071_HAL_Driver/Src/py32f071_ll_dma.c.obj
 .text          0x00000000        0x0 CMakeFiles/n7six.ApeX-k1.v7.6.5br1.dir/Drivers/PY32F071_HAL_Driver/Src/py32f071_ll_gpio.c.obj
 .data          0x00000000        0x0 CMakeFiles/n7six.ApeX-k1.v7.6.5br1.dir/Drivers/PY32F071_HAL_Driver/Src/py32f071_ll_gpio.c.obj
 .bss           0x00000000        0x0 CMakeFiles/n7six.ApeX-k1.v7.6.5br1.dir/Drivers/PY32F071_HAL_Driver/Src/py32f071_ll_gpio.c.obj
 .text.LL_GPIO_DeInit
                0x00000000       0x5c CMakeFiles/n7six.ApeX-k1.v7.6.5br1.dir/Drivers/PY32F071_HAL_Driver/Src/py32f071_ll_gpio.c.obj
 .text          0x00000000        0x0 CMakeFiles/n7six.ApeX-k1.v7.6.5br1.dir/Drivers/PY32F071_HAL_Driver/Src/py32f071_ll_utils.c.obj
 .data          0x00000000        0x0 CMakeFiles/n7six.ApeX-k1.v7.6.5br1.dir/Drivers/PY32F071_HAL_Driver/Src/py32f071_ll_utils.c.obj
 .bss           0x00000000        0x0 CMakeFiles/n7six.ApeX-k1.v7.6.5br1.dir/Drivers/PY32F071_HAL_Driver/Src/py32f071_ll_utils.c.obj
 .text.LL_RCC_HSI_GetFreq
                0x00000000       0x18 CMakeFiles/n7six.ApeX-k1.v7.6.5br1.dir/Drivers/PY32F071_HAL_Driver/Src/py32f071_ll_utils.c.obj
 .text.LL_Init1msTick
                0x00000000       0x20 CMakeFiles/n7six.ApeX-k1.v7.6.5br1.dir/Drivers/PY32F071_HAL_Driver/Src/py32f071_ll_utils.c.obj
 .text.LL_mDelay
                0x00000000       0x2c CMakeFiles/n7six.ApeX-k1.v7.6.5br1.dir/Drivers/PY32F071_HAL_Driver/Src/py32f071_ll_utils.c.obj
 .text.LL_SetFlashLatency
                0x00000000       0x54 CMakeFiles/n7six.ApeX-k1.v7.6.5br1.dir/Drivers/PY32F071_HAL_Driver/Src/py32f071_ll_utils.c.obj
 .text.UTILS_EnablePLLAndSwitchSystem
                0x00000000       0x98 CMakeFiles/n7six.ApeX-k1.v7.6.5br1.dir/Drivers/PY32F071_HAL_Driver/Src/py32f071_ll_utils.c.obj
 .text.LL_PLL_ConfigSystemClock_HSI
                0x00000000       0x94 CMakeFiles/n7six.ApeX-k1.v7.6.5br1.dir/Drivers/PY32F071_HAL_Driver/Src/py32f071_ll_utils.c.obj
 .text.LL_PLL_ConfigSystemClock_HSE
                0x00000000       0xd0 CMakeFiles/n7six.ApeX-k1.v7.6.5br1.dir/Drivers/PY32F071_HAL_Driver/Src/py32f071_ll_utils.c.obj
 .text          0x00000000        0x0 CMakeFiles/n7six.ApeX-k1.v7.6.5br1.dir/Drivers/PY32F071_HAL_Driver/Src/py32f071_ll_adc.c.obj
 .data          0x00000000        0x0 CMakeFiles/n7six.ApeX-k1.v7.6.5br1.dir/Drivers/PY32F071_HAL_Driver/Src/py32f071_ll_adc.c.obj
 .bss           0x00000000        0x0 CMakeFiles/n7six.ApeX-k1.v7.6.5br1.dir/Drivers/PY32F071_HAL_Driver/Src/py32f071_ll_adc.c.obj
 .text.LL_ADC_DeInit
                0x00000000       0xd4 CMakeFiles/n7six.ApeX-k1.v7.6.5br1.dir/Drivers/PY32F071_HAL_Driver/Src/py32f071_ll_adc.c.obj
 .text.LL_ADC_Init
                0x00000000       0x34 CMakeFiles/n7six.ApeX-k1.v7.6.5br1.dir/Drivers/PY32F071_HAL_Driver/Src/py32f071_ll_adc.c.obj
 .text.LL_ADC_StructInit
                0x00000000        0xc CMakeFiles/n7six.ApeX-k1.v7.6.5br1.dir/Drivers/PY32F071_HAL_Driver/Src/py32f071_ll_adc.c.obj
 .text.LL_ADC_REG_Init
                0x00000000       0x50 CMakeFiles/n7six.ApeX-k1.v7.6.5br1.dir/Drivers/PY32F071_HAL_Driver/Src/py32f071_ll_adc.c.obj
 .text.LL_ADC_REG_StructInit
                0x00000000       0x12 CMakeFiles/n7six.ApeX-k1.v7.6.5br1.dir/Drivers/PY32F071_HAL_Driver/Src/py32f071_ll_adc.c.obj
 .text.LL_ADC_INJ_Init
                0x00000000       0x48 CMakeFiles/n7six.ApeX-k1.v7.6.5br1.dir/Drivers/PY32F071_HAL_Driver/Src/py32f071_ll_adc.c.obj
 .text.LL_ADC_INJ_StructInit
                0x00000000       0x10 CMakeFiles/n7six.ApeX-k1.v7.6.5br1.dir/Drivers/PY32F071_HAL_Driver/Src/py32f071_ll_adc.c.obj
 .comment       0x00000000       0x46 CMakeFiles/n7six.ApeX-k1.v7.6.5br1.dir/Drivers/PY32F071_HAL_Driver/Src/py32f071_ll_adc.c.obj
 .ARM.attributes
                0x00000000       0x2c CMakeFiles/n7six.ApeX-k1.v7.6.5br1.dir/Drivers/PY32F071_HAL_Driver/Src/py32f071_ll_adc.c.obj
 .text          0x00000000        0x0 CMakeFiles/n7six.ApeX-k1.v7.6.5br1.dir/Drivers/PY32F071_HAL_Driver/Src/py32f071_ll_comp.c.obj
 .data          0x00000000        0x0 CMakeFiles/n7six.ApeX-k1.v7.6.5br1.dir/Drivers/PY32F071_HAL_Driver/Src/py32f071_ll_comp.c.obj
 .bss           0x00000000        0x0 CMakeFiles/n7six.ApeX-k1.v7.6.5br1.dir/Drivers/PY32F071_HAL_Driver/Src/py32f071_ll_comp.c.obj
 .text.LL_COMP_DeInit
                0x00000000        0xa CMakeFiles/n7six.ApeX-k1.v7.6.5br1.dir/Drivers/PY32F071_HAL_Driver/Src/py32f071_ll_comp.c.obj
 .text.LL_COMP_Init
                0x00000000       0x70 CMakeFiles/n7six.ApeX-k1.v7.6.5br1.dir/Drivers/PY32F071_HAL_Driver/Src/py32f071_ll_comp.c.obj
 .text.LL_COMP_StructInit
                0x00000000       0x14 CMakeFiles/n7six.ApeX-k1.v7.6.5br1.dir/Drivers/PY32F071_HAL_Driver/Src/py32f071_ll_comp.c.obj
 .comment       0x00000000       0x46 CMakeFiles/n7six.ApeX-k1.v7.6.5br1.dir/Drivers/PY32F071_HAL_Driver/Src/py32f071_ll_comp.c.obj
 .ARM.attributes
                0x00000000       0x2c CMakeFiles/n7six.ApeX-k1.v7.6.5br1.dir/Drivers/PY32F071_HAL_Driver/Src/py32f071_ll_comp.c.obj
 .text          0x00000000        0x0 CMakeFiles/n7six.ApeX-k1.v7.6.5br1.dir/Drivers/PY32F071_HAL_Driver/Src/py32f071_ll_crc.c.obj
 .data          0x00000000        0x0 CMakeFiles/n7six.ApeX-k1.v7.6.5br1.dir/Drivers/PY32F071_HAL_Driver/Src/py32f071_ll_crc.c.obj
 .bss           0x00000000        0x0 CMakeFiles/n7six.ApeX-k1.v7.6.5br1.dir/Drivers/PY32F071_HAL_Driver/Src/py32f071_ll_crc.c.obj
 .text.LL_CRC_DeInit
                0x00000000       0x1c CMakeFiles/n7six.ApeX-k1.v7.6.5br1.dir/Drivers/PY32F071_HAL_Driver/Src/py32f071_ll_crc.c.obj
 .comment       0x00000000       0x46 CMakeFiles/n7six.ApeX-k1.v7.6.5br1.dir/Drivers/PY32F071_HAL_Driver/Src/py32f071_ll_crc.c.obj
 .ARM.attributes
                0x00000000       0x2c CMakeFiles/n7six.ApeX-k1.v7.6.5br1.dir/Drivers/PY32F071_HAL_Driver/Src/py32f071_ll_crc.c.obj
 .text          0x00000000        0x0 CMakeFiles/n7six.ApeX-k1.v7.6.5br1.dir/Drivers/PY32F071_HAL_Driver/Src/py32f071_ll_dac.c.obj
 .data          0x00000000        0x0 CMakeFiles/n7six.ApeX-k1.v7.6.5br1.dir/Drivers/PY32F071_HAL_Driver/Src/py32f071_ll_dac.c.obj
 .bss           0x00000000        0x0 CMakeFiles/n7six.ApeX-k1.v7.6.5br1.dir/Drivers/PY32F071_HAL_Driver/Src/py32f071_ll_dac.c.obj
 .text.LL_DAC_DeInit
                0x00000000       0x20 CMakeFiles/n7six.ApeX-k1.v7.6.5br1.dir/Drivers/PY32F071_HAL_Driver/Src/py32f071_ll_dac.c.obj
 .text.LL_DAC_Init
                0x00000000       0x50 CMakeFiles/n7six.ApeX-k1.v7.6.5br1.dir/Drivers/PY32F071_HAL_Driver/Src/py32f071_ll_dac.c.obj
 .text.LL_DAC_StructInit
                0x00000000        0xe CMakeFiles/n7six.ApeX-k1.v7.6.5br1.dir/Drivers/PY32F071_HAL_Driver/Src/py32f071_ll_dac.c.obj
 .comment       0x00000000       0x46 CMakeFiles/n7six.ApeX-k1.v7.6.5br1.dir/Drivers/PY32F071_HAL_Driver/Src/py32f071_ll_dac.c.obj
 .ARM.attributes
                0x00000000       0x2c CMakeFiles/n7six.ApeX-k1.v7.6.5br1.dir/Drivers/PY32F071_HAL_Driver/Src/py32f071_ll_dac.c.obj
 .text          0x00000000        0x0 CMakeFiles/n7six.ApeX-k1.v7.6.5br1.dir/Drivers/PY32F071_HAL_Driver/Src/py32f071_ll_exti.c.obj
 .data          0x00000000        0x0 CMakeFiles/n7six.ApeX-k1.v7.6.5br1.dir/Drivers/PY32F071_HAL_Driver/Src/py32f071_ll_exti.c.obj
 .bss           0x00000000        0x0 CMakeFiles/n7six.ApeX-k1.v7.6.5br1.dir/Drivers/PY32F071_HAL_Driver/Src/py32f071_ll_exti.c.obj
 .text.LL_EXTI_DeInit
                0x00000000       0x28 CMakeFiles/n7six.ApeX-k1.v7.6.5br1.dir/Drivers/PY32F071_HAL_Driver/Src/py32f071_ll_exti.c.obj
 .text.LL_EXTI_Init
                0x00000000       0xa8 CMakeFiles/n7six.ApeX-k1.v7.6.5br1.dir/Drivers/PY32F071_HAL_Driver/Src/py32f071_ll_exti.c.obj
 .text.LL_EXTI_StructInit
                0x00000000        0xc CMakeFiles/n7six.ApeX-k1.v7.6.5br1.dir/Drivers/PY32F071_HAL_Driver/Src/py32f071_ll_exti.c.obj
 .comment       0x00000000       0x46 CMakeFiles/n7six.ApeX-k1.v7.6.5br1.dir/Drivers/PY32F071_HAL_Driver/Src/py32f071_ll_exti.c.obj
 .ARM.attributes
                0x00000000       0x2c CMakeFiles/n7six.ApeX-k1.v7.6.5br1.dir/Drivers/PY32F071_HAL_Driver/Src/py32f071_ll_exti.c.obj
 .text          0x00000000        0x0 CMakeFiles/n7six.ApeX-k1.v7.6.5br1.dir/Drivers/PY32F071_HAL_Driver/Src/py32f071_ll_i2c.c.obj
 .data          0x00000000        0x0 CMakeFiles/n7six.ApeX-k1.v7.6.5br1.dir/Drivers/PY32F071_HAL_Driver/Src/py32f071_ll_i2c.c.obj
 .bss           0x00000000        0x0 CMakeFiles/n7six.ApeX-k1.v7.6.5br1.dir/Drivers/PY32F071_HAL_Driver/Src/py32f071_ll_i2c.c.obj
 .text.LL_I2C_DeInit
                0x00000000       0x50 CMakeFiles/n7six.ApeX-k1.v7.6.5br1.dir/Drivers/PY32F071_HAL_Driver/Src/py32f071_ll_i2c.c.obj
 .text.LL_I2C_Init
                0x00000000       0xf0 CMakeFiles/n7six.ApeX-k1.v7.6.5br1.dir/Drivers/PY32F071_HAL_Driver/Src/py32f071_ll_i2c.c.obj
 .text.LL_I2C_StructInit
                0x00000000       0x1c CMakeFiles/n7six.ApeX-k1.v7.6.5br1.dir/Drivers/PY32F071_HAL_Driver/Src/py32f071_ll_i2c.c.obj
 .comment       0x00000000       0x46 CMakeFiles/n7six.ApeX-k1.v7.6.5br1.dir/Drivers/PY32F071_HAL_Driver/Src/py32f071_ll_i2c.c.obj
 .ARM.attributes
                0x00000000       0x2c CMakeFiles/n7six.ApeX-k1.v7.6.5br1.dir/Drivers/PY32F071_HAL_Driver/Src/py32f071_ll_i2c.c.obj
 .text          0x00000000        0x0 CMakeFiles/n7six.ApeX-k1.v7.6.5br1.dir/Drivers/PY32F071_HAL_Driver/Src/py32f071_ll_rtc.c.obj
 .data          0x00000000        0x0 CMakeFiles/n7six.ApeX-k1.v7.6.5br1.dir/Drivers/PY32F071_HAL_Driver/Src/py32f071_ll_rtc.c.obj
 .bss           0x00000000        0x0 CMakeFiles/n7six.ApeX-k1.v7.6.5br1.dir/Drivers/PY32F071_HAL_Driver/Src/py32f071_ll_rtc.c.obj
 .text.LL_RTC_StructInit
                0x00000000        0xc CMakeFiles/n7six.ApeX-k1.v7.6.5br1.dir/Drivers/PY32F071_HAL_Driver/Src/py32f071_ll_rtc.c.obj
 .text.LL_RTC_TIME_StructInit
                0x00000000        0xa CMakeFiles/n7six.ApeX-k1.v7.6.5br1.dir/Drivers/PY32F071_HAL_Driver/Src/py32f071_ll_rtc.c.obj
 .text.LL_RTC_ALARM_StructInit
                0x00000000        0xa CMakeFiles/n7six.ApeX-k1.v7.6.5br1.dir/Drivers/PY32F071_HAL_Driver/Src/py32f071_ll_rtc.c.obj
 .text.LL_RTC_EnterInitMode
                0x00000000       0x50 CMakeFiles/n7six.ApeX-k1.v7.6.5br1.dir/Drivers/PY32F071_HAL_Driver/Src/py32f071_ll_rtc.c.obj
 .text.LL_RTC_ExitInitMode
                0x00000000       0x50 CMakeFiles/n7six.ApeX-k1.v7.6.5br1.dir/Drivers/PY32F071_HAL_Driver/Src/py32f071_ll_rtc.c.obj
 .text.LL_RTC_TIME_Init
                0x00000000       0x6c CMakeFiles/n7six.ApeX-k1.v7.6.5br1.dir/Drivers/PY32F071_HAL_Driver/Src/py32f071_ll_rtc.c.obj
 .text.LL_RTC_ALARM_Init
                0x00000000       0x6c CMakeFiles/n7six.ApeX-k1.v7.6.5br1.dir/Drivers/PY32F071_HAL_Driver/Src/py32f071_ll_rtc.c.obj
 .text.LL_RTC_TIME_SetCounter
                0x00000000       0x24 CMakeFiles/n7six.ApeX-k1.v7.6.5br1.dir/Drivers/PY32F071_HAL_Driver/Src/py32f071_ll_rtc.c.obj
 .text.LL_RTC_ALARM_SetCounter
                0x00000000       0x24 CMakeFiles/n7six.ApeX-k1.v7.6.5br1.dir/Drivers/PY32F071_HAL_Driver/Src/py32f071_ll_rtc.c.obj
 .text.LL_RTC_WaitForSynchro
                0x00000000       0x50 CMakeFiles/n7six.ApeX-k1.v7.6.5br1.dir/Drivers/PY32F071_HAL_Driver/Src/py32f071_ll_rtc.c.obj
 .text.LL_RTC_DeInit
                0x00000000       0x56 CMakeFiles/n7six.ApeX-k1.v7.6.5br1.dir/Drivers/PY32F071_HAL_Driver/Src/py32f071_ll_rtc.c.obj
 .text.LL_RTC_Init
                0x00000000       0x68 CMakeFiles/n7six.ApeX-k1.v7.6.5br1.dir/Drivers/PY32F071_HAL_Driver/Src/py32f071_ll_rtc.c.obj
 .comment       0x00000000       0x46 CMakeFiles/n7six.ApeX-k1.v7.6.5br1.dir/Drivers/PY32F071_HAL_Driver/Src/py32f071_ll_rtc.c.obj
 .ARM.attributes
                0x00000000       0x2c CMakeFiles/n7six.ApeX-k1.v7.6.5br1.dir/Drivers/PY32F071_HAL_Driver/Src/py32f071_ll_rtc.c.obj
 .text          0x00000000        0x0 CMakeFiles/n7six.ApeX-k1.v7.6.5br1.dir/Drivers/PY32F071_HAL_Driver/Src/py32f071_ll_spi.c.obj
 .data          0x00000000        0x0 CMakeFiles/n7six.ApeX-k1.v7.6.5br1.dir/Drivers/PY32F071_HAL_Driver/Src/py32f071_ll_spi.c.obj
 .bss           0x00000000        0x0 CMakeFiles/n7six.ApeX-k1.v7.6.5br1.dir/Drivers/PY32F071_HAL_Driver/Src/py32f071_ll_spi.c.obj
 .text.LL_SPI_DeInit
                0x00000000       0x54 CMakeFiles/n7six.ApeX-k1.v7.6.5br1.dir/Drivers/PY32F071_HAL_Driver/Src/py32f071_ll_spi.c.obj
 .text.LL_I2S_DeInit
                0x00000000        0x8 CMakeFiles/n7six.ApeX-k1.v7.6.5br1.dir/Drivers/PY32F071_HAL_Driver/Src/py32f071_ll_spi.c.obj
 .text.LL_I2S_Init
                0x00000000       0x9c CMakeFiles/n7six.ApeX-k1.v7.6.5br1.dir/Drivers/PY32F071_HAL_Driver/Src/py32f071_ll_spi.c.obj
 .text.LL_I2S_StructInit
                0x00000000       0x12 CMakeFiles/n7six.ApeX-k1.v7.6.5br1.dir/Drivers/PY32F071_HAL_Driver/Src/py32f071_ll_spi.c.obj
 .text.LL_I2S_ConfigPrescaler
                0x00000000       0x10 CMakeFiles/n7six.ApeX-k1.v7.6.5br1.dir/Drivers/PY32F071_HAL_Driver/Src/py32f071_ll_spi.c.obj
 .text          0x00000000        0x0 CMakeFiles/n7six.ApeX-k1.v7.6.5br1.dir/Drivers/PY32F071_HAL_Driver/Src/py32f071_ll_tim.c.obj
 .data          0x00000000        0x0 CMakeFiles/n7six.ApeX-k1.v7.6.5br1.dir/Drivers/PY32F071_HAL_Driver/Src/py32f071_ll_tim.c.obj
 .bss           0x00000000        0x0 CMakeFiles/n7six.ApeX-k1.v7.6.5br1.dir/Drivers/PY32F071_HAL_Driver/Src/py32f071_ll_tim.c.obj
 .text.LL_TIM_DeInit
                0x00000000      0x100 CMakeFiles/n7six.ApeX-k1.v7.6.5br1.dir/Drivers/PY32F071_HAL_Driver/Src/py32f071_ll_tim.c.obj
 .text.LL_TIM_StructInit
                0x00000000       0x12 CMakeFiles/n7six.ApeX-k1.v7.6.5br1.dir/Drivers/PY32F071_HAL_Driver/Src/py32f071_ll_tim.c.obj
 .text.LL_TIM_Init
                0x00000000       0x7c CMakeFiles/n7six.ApeX-k1.v7.6.5br1.dir/Drivers/PY32F071_HAL_Driver/Src/py32f071_ll_tim.c.obj
 .text.LL_TIM_OC_StructInit
                0x00000000       0x14 CMakeFiles/n7six.ApeX-k1.v7.6.5br1.dir/Drivers/PY32F071_HAL_Driver/Src/py32f071_ll_tim.c.obj
 .text.LL_TIM_OC_Init
                0x00000000      0x200 CMakeFiles/n7six.ApeX-k1.v7.6.5br1.dir/Drivers/PY32F071_HAL_Driver/Src/py32f071_ll_tim.c.obj
 .text.LL_TIM_IC_StructInit
                0x00000000       0x10 CMakeFiles/n7six.ApeX-k1.v7.6.5br1.dir/Drivers/PY32F071_HAL_Driver/Src/py32f071_ll_tim.c.obj
 .text.LL_TIM_IC_Init
                0x00000000       0xe8 CMakeFiles/n7six.ApeX-k1.v7.6.5br1.dir/Drivers/PY32F071_HAL_Driver/Src/py32f071_ll_tim.c.obj
 .text.LL_TIM_ENCODER_StructInit
                0x00000000       0x1c CMakeFiles/n7six.ApeX-k1.v7.6.5br1.dir/Drivers/PY32F071_HAL_Driver/Src/py32f071_ll_tim.c.obj
 .text.LL_TIM_ENCODER_Init
                0x00000000       0x5c CMakeFiles/n7six.ApeX-k1.v7.6.5br1.dir/Drivers/PY32F071_HAL_Driver/Src/py32f071_ll_tim.c.obj
 .text.LL_TIM_HALLSENSOR_StructInit
                0x00000000        0xc CMakeFiles/n7six.ApeX-k1.v7.6.5br1.dir/Drivers/PY32F071_HAL_Driver/Src/py32f071_ll_tim.c.obj
 .text.LL_TIM_HALLSENSOR_Init
                0x00000000       0x5c CMakeFiles/n7six.ApeX-k1.v7.6.5br1.dir/Drivers/PY32F071_HAL_Driver/Src/py32f071_ll_tim.c.obj
 .text.LL_TIM_BDTR_StructInit
                0x00000000       0x12 CMakeFiles/n7six.ApeX-k1.v7.6.5br1.dir/Drivers/PY32F071_HAL_Driver/Src/py32f071_ll_tim.c.obj
 .text.LL_TIM_BDTR_Init
                0x00000000       0x48 CMakeFiles/n7six.ApeX-k1.v7.6.5br1.dir/Drivers/PY32F071_HAL_Driver/Src/py32f071_ll_tim.c.obj
 .comment       0x00000000       0x46 CMakeFiles/n7six.ApeX-k1.v7.6.5br1.dir/Drivers/PY32F071_HAL_Driver/Src/py32f071_ll_tim.c.obj
 .ARM.attributes
                0x00000000       0x2c CMakeFiles/n7six.ApeX-k1.v7.6.5br1.dir/Drivers/PY32F071_HAL_Driver/Src/py32f071_ll_tim.c.obj
 .text          0x00000000        0x0 CMakeFiles/n7six.ApeX-k1.v7.6.5br1.dir/Drivers/PY32F071_HAL_Driver/Src/py32f071_ll_lptim.c.obj
 .data          0x00000000        0x0 CMakeFiles/n7six.ApeX-k1.v7.6.5br1.dir/Drivers/PY32F071_HAL_Driver/Src/py32f071_ll_lptim.c.obj
 .bss           0x00000000        0x0 CMakeFiles/n7six.ApeX-k1.v7.6.5br1.dir/Drivers/PY32F071_HAL_Driver/Src/py32f071_ll_lptim.c.obj
 .text.LL_LPTIM_DeInit
                0x00000000       0x2c CMakeFiles/n7six.ApeX-k1.v7.6.5br1.dir/Drivers/PY32F071_HAL_Driver/Src/py32f071_ll_lptim.c.obj
 .text.LL_LPTIM_StructInit
                0x00000000        0x8 CMakeFiles/n7six.ApeX-k1.v7.6.5br1.dir/Drivers/PY32F071_HAL_Driver/Src/py32f071_ll_lptim.c.obj
 .text.LL_LPTIM_Init
                0x00000000       0x28 CMakeFiles/n7six.ApeX-k1.v7.6.5br1.dir/Drivers/PY32F071_HAL_Driver/Src/py32f071_ll_lptim.c.obj
 .comment       0x00000000       0x46 CMakeFiles/n7six.ApeX-k1.v7.6.5br1.dir/Drivers/PY32F071_HAL_Driver/Src/py32f071_ll_lptim.c.obj
 .ARM.attributes
                0x00000000       0x2c CMakeFiles/n7six.ApeX-k1.v7.6.5br1.dir/Drivers/PY32F071_HAL_Driver/Src/py32f071_ll_lptim.c.obj
 .text          0x00000000        0x0 CMakeFiles/n7six.ApeX-k1.v7.6.5br1.dir/Drivers/PY32F071_HAL_Driver/Src/py32f071_ll_usart.c.obj
 .data          0x00000000        0x0 CMakeFiles/n7six.ApeX-k1.v7.6.5br1.dir/Drivers/PY32F071_HAL_Driver/Src/py32f071_ll_usart.c.obj
 .bss           0x00000000        0x0 CMakeFiles/n7six.ApeX-k1.v7.6.5br1.dir/Drivers/PY32F071_HAL_Driver/Src/py32f071_ll_usart.c.obj
 .text.LL_USART_DeInit
                0x00000000       0x94 CMakeFiles/n7six.ApeX-k1.v7.6.5br1.dir/Drivers/PY32F071_HAL_Driver/Src/py32f071_ll_usart.c.obj
 .text.LL_USART_ClockInit
                0x00000000       0x40 CMakeFiles/n7six.ApeX-k1.v7.6.5br1.dir/Drivers/PY32F071_HAL_Driver/Src/py32f071_ll_usart.c.obj
 .text.LL_USART_ClockStructInit
                0x00000000        0xc CMakeFiles/n7six.ApeX-k1.v7.6.5br1.dir/Drivers/PY32F071_HAL_Driver/Src/py32f071_ll_usart.c.obj
 .text          0x00000000        0x0 CMakeFiles/n7six.ApeX-k1.v7.6.5br1.dir/App/driver/backlight.c.obj
 .data          0x00000000        0x0 CMakeFiles/n7six.ApeX-k1.v7.6.5br1.dir/App/driver/backlight.c.obj
 .bss           0x00000000        0x0 CMakeFiles/n7six.ApeX-k1.v7.6.5br1.dir/App/driver/backlight.c.obj
 .text.BACKLIGHT_GetBrightness
                0x00000000        0xc CMakeFiles/n7six.ApeX-k1.v7.6.5br1.dir/App/driver/backlight.c.obj
 .text          0x00000000        0x0 CMakeFiles/n7six.ApeX-k1.v7.6.5br1.dir/App/driver/bk4829.c.obj
 .data          0x00000000        0x0 CMakeFiles/n7six.ApeX-k1.v7.6.5br1.dir/App/driver/bk4829.c.obj
 .bss           0x00000000        0x0 CMakeFiles/n7six.ApeX-k1.v7.6.5br1.dir/App/driver/bk4829.c.obj
 .rodata.BK4819_GetRxGain_dB.str1.1
                0x00000000       0x10 CMakeFiles/n7six.ApeX-k1.v7.6.5br1.dir/App/driver/bk4829.c.obj
 .text.BK4819_GetRxGain_dB
                0x00000000       0x78 CMakeFiles/n7six.ApeX-k1.v7.6.5br1.dir/App/driver/bk4829.c.obj
 .text.BK4819_EnableScramble
                0x00000000       0x40 CMakeFiles/n7six.ApeX-k1.v7.6.5br1.dir/App/driver/bk4829.c.obj
 .text.BK4819_CompanderEnabled
                0x00000000        0xe CMakeFiles/n7six.ApeX-k1.v7.6.5br1.dir/App/driver/bk4829.c.obj
 .text.BK4819_GetGlitchIndicator
                0x00000000        0xc CMakeFiles/n7six.ApeX-k1.v7.6.5br1.dir/App/driver/bk4829.c.obj
 .text.BK4819_GetExNoiceIndicator
                0x00000000        0xe CMakeFiles/n7six.ApeX-k1.v7.6.5br1.dir/App/driver/bk4829.c.obj
 .text.BK4819_GetCTCShift
                0x00000000        0xe CMakeFiles/n7six.ApeX-k1.v7.6.5br1.dir/App/driver/bk4829.c.obj
 .text.BK4819_Enable_AfDac_DiscMode_TxDsp
                0x00000000       0x18 CMakeFiles/n7six.ApeX-k1.v7.6.5br1.dir/App/driver/bk4829.c.obj
 .text.BK4819_GetVoxAmp
                0x00000000       0x12 CMakeFiles/n7six.ApeX-k1.v7.6.5br1.dir/App/driver/bk4829.c.obj
 .text.BK4819_SetScrambleFrequencyControlWord
                0x00000000       0x1c CMakeFiles/n7six.ApeX-k1.v7.6.5br1.dir/App/driver/bk4829.c.obj
 .text          0x00000000        0x0 CMakeFiles/n7six.ApeX-k1.v7.6.5br1.dir/App/driver/py25q16.c.obj
 .data          0x00000000        0x0 CMakeFiles/n7six.ApeX-k1.v7.6.5br1.dir/App/driver/py25q16.c.obj
 .bss           0x00000000        0x0 CMakeFiles/n7six.ApeX-k1.v7.6.5br1.dir/App/driver/py25q16.c.obj
 .text          0x00000000        0x0 CMakeFiles/n7six.ApeX-k1.v7.6.5br1.dir/App/driver/gpio.c.obj
 .data          0x00000000        0x0 CMakeFiles/n7six.ApeX-k1.v7.6.5br1.dir/App/driver/gpio.c.obj
 .bss           0x00000000        0x0 CMakeFiles/n7six.ApeX-k1.v7.6.5br1.dir/App/driver/gpio.c.obj
 .comment       0x00000000       0x46 CMakeFiles/n7six.ApeX-k1.v7.6.5br1.dir/App/driver/gpio.c.obj
 .ARM.attributes
                0x00000000       0x2c CMakeFiles/n7six.ApeX-k1.v7.6.5br1.dir/App/driver/gpio.c.obj
 .text          0x00000000        0x0 CMakeFiles/n7six.ApeX-k1.v7.6.5br1.dir/App/driver/i2c.c.obj
 .data          0x00000000        0x0 CMakeFiles/n7six.ApeX-k1.v7.6.5br1.dir/App/driver/i2c.c.obj
 .bss           0x00000000        0x0 CMakeFiles/n7six.ApeX-k1.v7.6.5br1.dir/App/driver/i2c.c.obj
 .text          0x00000000        0x0 CMakeFiles/n7six.ApeX-k1.v7.6.5br1.dir/App/driver/keyboard.c.obj
 .data          0x00000000        0x0 CMakeFiles/n7six.ApeX-k1.v7.6.5br1.dir/App/driver/keyboard.c.obj
 .bss           0x00000000        0x0 CMakeFiles/n7six.ApeX-k1.v7.6.5br1.dir/App/driver/keyboard.c.obj
 .text          0x00000000        0x0 CMakeFiles/n7six.ApeX-k1.v7.6.5br1.dir/App/driver/st7565.c.obj
 .data          0x00000000        0x0 CMakeFiles/n7six.ApeX-k1.v7.6.5br1.dir/App/driver/st7565.c.obj
 .bss           0x00000000        0x0 CMakeFiles/n7six.ApeX-k1.v7.6.5br1.dir/App/driver/st7565.c.obj
 .text          0x00000000        0x0 CMakeFiles/n7six.ApeX-k1.v7.6.5br1.dir/App/driver/system.c.obj
 .data          0x00000000        0x0 CMakeFiles/n7six.ApeX-k1.v7.6.5br1.dir/App/driver/system.c.obj
 .bss           0x00000000        0x0 CMakeFiles/n7six.ApeX-k1.v7.6.5br1.dir/App/driver/system.c.obj
 .text.SYSTEM_ConfigureClocks
                0x00000000        0x2 CMakeFiles/n7six.ApeX-k1.v7.6.5br1.dir/App/driver/system.c.obj
 .text          0x00000000        0x0 CMakeFiles/n7six.ApeX-k1.v7.6.5br1.dir/App/driver/systick.c.obj
 .data          0x00000000        0x0 CMakeFiles/n7six.ApeX-k1.v7.6.5br1.dir/App/driver/systick.c.obj
 .bss           0x00000000        0x0 CMakeFiles/n7six.ApeX-k1.v7.6.5br1.dir/App/driver/systick.c.obj
 .text          0x00000000        0x0 CMakeFiles/n7six.ApeX-k1.v7.6.5br1.dir/App/app/action.c.obj
 .data          0x00000000        0x0 CMakeFiles/n7six.ApeX-k1.v7.6.5br1.dir/App/app/action.c.obj
 .bss           0x00000000        0x0 CMakeFiles/n7six.ApeX-k1.v7.6.5br1.dir/App/app/action.c.obj
 .text          0x00000000        0x0 CMakeFiles/n7six.ApeX-k1.v7.6.5br1.dir/App/app/app.c.obj
 .data          0x00000000        0x0 CMakeFiles/n7six.ApeX-k1.v7.6.5br1.dir/App/app/app.c.obj
 .bss           0x00000000        0x0 CMakeFiles/n7six.ApeX-k1.v7.6.5br1.dir/App/app/app.c.obj
 .text          0x00000000        0x0 CMakeFiles/n7six.ApeX-k1.v7.6.5br1.dir/App/app/chFrScanner.c.obj
 .data          0x00000000        0x0 CMakeFiles/n7six.ApeX-k1.v7.6.5br1.dir/App/app/chFrScanner.c.obj
 .bss           0x00000000        0x0 CMakeFiles/n7six.ApeX-k1.v7.6.5br1.dir/App/app/chFrScanner.c.obj
 .text          0x00000000        0x0 CMakeFiles/n7six.ApeX-k1.v7.6.5br1.dir/App/app/common.c.obj
 .data          0x00000000        0x0 CMakeFiles/n7six.ApeX-k1.v7.6.5br1.dir/App/app/common.c.obj
 .bss           0x00000000        0x0 CMakeFiles/n7six.ApeX-k1.v7.6.5br1.dir/App/app/common.c.obj
 .text          0x00000000        0x0 CMakeFiles/n7six.ApeX-k1.v7.6.5br1.dir/App/app/dtmf.c.obj
 .data          0x00000000        0x0 CMakeFiles/n7six.ApeX-k1.v7.6.5br1.dir/App/app/dtmf.c.obj
 .bss           0x00000000        0x0 CMakeFiles/n7six.ApeX-k1.v7.6.5br1.dir/App/app/dtmf.c.obj
 .text          0x00000000        0x0 CMakeFiles/n7six.ApeX-k1.v7.6.5br1.dir/App/app/events.c.obj
 .data          0x00000000        0x0 CMakeFiles/n7six.ApeX-k1.v7.6.5br1.dir/App/app/events.c.obj
 .bss           0x00000000        0x0 CMakeFiles/n7six.ApeX-k1.v7.6.5br1.dir/App/app/events.c.obj
 .text.APP_UnsubscribeEvent
                0x00000000       0x54 CMakeFiles/n7six.ApeX-k1.v7.6.5br1.dir/App/app/events.c.obj
 .text.APP_RaiseEvent
                0x00000000       0x38 CMakeFiles/n7six.ApeX-k1.v7.6.5br1.dir/App/app/events.c.obj
 .text          0x00000000        0x0 CMakeFiles/n7six.ApeX-k1.v7.6.5br1.dir/App/app/events_handlers.c.obj
 .data          0x00000000        0x0 CMakeFiles/n7six.ApeX-k1.v7.6.5br1.dir/App/app/events_handlers.c.obj
 .bss           0x00000000        0x0 CMakeFiles/n7six.ApeX-k1.v7.6.5br1.dir/App/app/events_handlers.c.obj
 .text          0x00000000        0x0 CMakeFiles/n7six.ApeX-k1.v7.6.5br1.dir/App/app/generic.c.obj
 .data          0x00000000        0x0 CMakeFiles/n7six.ApeX-k1.v7.6.5br1.dir/App/app/generic.c.obj
 .bss           0x00000000        0x0 CMakeFiles/n7six.ApeX-k1.v7.6.5br1.dir/App/app/generic.c.obj
 .text          0x00000000        0x0 CMakeFiles/n7six.ApeX-k1.v7.6.5br1.dir/App/app/main.c.obj
 .data          0x00000000        0x0 CMakeFiles/n7six.ApeX-k1.v7.6.5br1.dir/App/app/main.c.obj
 .bss           0x00000000        0x0 CMakeFiles/n7six.ApeX-k1.v7.6.5br1.dir/App/app/main.c.obj
 .text          0x00000000        0x0 CMakeFiles/n7six.ApeX-k1.v7.6.5br1.dir/App/app/menu.c.obj
 .data          0x00000000        0x0 CMakeFiles/n7six.ApeX-k1.v7.6.5br1.dir/App/app/menu.c.obj
 .bss           0x00000000        0x0 CMakeFiles/n7six.ApeX-k1.v7.6.5br1.dir/App/app/menu.c.obj
 .text          0x00000000        0x0 CMakeFiles/n7six.ApeX-k1.v7.6.5br1.dir/App/app/scanner.c.obj
 .data          0x00000000        0x0 CMakeFiles/n7six.ApeX-k1.v7.6.5br1.dir/App/app/scanner.c.obj
 .bss           0x00000000        0x0 CMakeFiles/n7six.ApeX-k1.v7.6.5br1.dir/App/app/scanner.c.obj
 .text          0x00000000        0x0 CMakeFiles/n7six.ApeX-k1.v7.6.5br1.dir/App/audio.c.obj
 .data          0x00000000        0x0 CMakeFiles/n7six.ApeX-k1.v7.6.5br1.dir/App/audio.c.obj
 .bss           0x00000000        0x0 CMakeFiles/n7six.ApeX-k1.v7.6.5br1.dir/App/audio.c.obj
 .text          0x00000000        0x0 CMakeFiles/n7six.ApeX-k1.v7.6.5br1.dir/App/bitmaps.c.obj
 .data          0x00000000        0x0 CMakeFiles/n7six.ApeX-k1.v7.6.5br1.dir/App/bitmaps.c.obj
 .bss           0x00000000        0x0 CMakeFiles/n7six.ApeX-k1.v7.6.5br1.dir/App/bitmaps.c.obj
 .rodata.BITMAP_USB_C
                0x00000000        0x9 CMakeFiles/n7six.ApeX-k1.v7.6.5br1.dir/App/bitmaps.c.obj
 .text          0x00000000        0x0 CMakeFiles/n7six.ApeX-k1.v7.6.5br1.dir/App/board.c.obj
 .data          0x00000000        0x0 CMakeFiles/n7six.ApeX-k1.v7.6.5br1.dir/App/board.c.obj
 .bss           0x00000000        0x0 CMakeFiles/n7six.ApeX-k1.v7.6.5br1.dir/App/board.c.obj
 .text          0x00000000        0x0 CMakeFiles/n7six.ApeX-k1.v7.6.5br1.dir/App/dcs.c.obj
 .data          0x00000000        0x0 CMakeFiles/n7six.ApeX-k1.v7.6.5br1.dir/App/dcs.c.obj
 .bss           0x00000000        0x0 CMakeFiles/n7six.ApeX-k1.v7.6.5br1.dir/App/dcs.c.obj
 .text          0x00000000        0x0 CMakeFiles/n7six.ApeX-k1.v7.6.5br1.dir/App/font.c.obj
 .data          0x00000000        0x0 CMakeFiles/n7six.ApeX-k1.v7.6.5br1.dir/App/font.c.obj
 .bss           0x00000000        0x0 CMakeFiles/n7six.ApeX-k1.v7.6.5br1.dir/App/font.c.obj
 .text          0x00000000        0x0 CMakeFiles/n7six.ApeX-k1.v7.6.5br1.dir/App/frequencies.c.obj
 .data          0x00000000        0x0 CMakeFiles/n7six.ApeX-k1.v7.6.5br1.dir/App/frequencies.c.obj
 .bss           0x00000000        0x0 CMakeFiles/n7six.ApeX-k1.v7.6.5br1.dir/App/frequencies.c.obj
 .text          0x00000000        0x0 CMakeFiles/n7six.ApeX-k1.v7.6.5br1.dir/App/functions.c.obj
 .data          0x00000000        0x0 CMakeFiles/n7six.ApeX-k1.v7.6.5br1.dir/App/functions.c.obj
 .bss           0x00000000        0x0 CMakeFiles/n7six.ApeX-k1.v7.6.5br1.dir/App/functions.c.obj
 .text          0x00000000        0x0 CMakeFiles/n7six.ApeX-k1.v7.6.5br1.dir/App/helper/battery.c.obj
 .data          0x00000000        0x0 CMakeFiles/n7six.ApeX-k1.v7.6.5br1.dir/App/helper/battery.c.obj
 .bss           0x00000000        0x0 CMakeFiles/n7six.ApeX-k1.v7.6.5br1.dir/App/helper/battery.c.obj
 .rodata.lowBatteryPeriod
                0x00000000        0x2 CMakeFiles/n7six.ApeX-k1.v7.6.5br1.dir/App/helper/battery.c.obj
 .text          0x00000000        0x0 CMakeFiles/n7six.ApeX-k1.v7.6.5br1.dir/App/helper/boot.c.obj
 .data          0x00000000        0x0 CMakeFiles/n7six.ApeX-k1.v7.6.5br1.dir/App/helper/boot.c.obj
 .bss           0x00000000        0x0 CMakeFiles/n7six.ApeX-k1.v7.6.5br1.dir/App/helper/boot.c.obj
 .text          0x00000000        0x0 CMakeFiles/n7six.ApeX-k1.v7.6.5br1.dir/App/misc.c.obj
 .data          0x00000000        0x0 CMakeFiles/n7six.ApeX-k1.v7.6.5br1.dir/App/misc.c.obj
 .bss           0x00000000        0x0 CMakeFiles/n7six.ApeX-k1.v7.6.5br1.dir/App/misc.c.obj
 .bss.gVFO_RSSI
                0x00000000        0x4 CMakeFiles/n7six.ApeX-k1.v7.6.5br1.dir/App/misc.c.obj
 .bss.gTryCount
                0x00000000        0x1 CMakeFiles/n7six.ApeX-k1.v7.6.5br1.dir/App/misc.c.obj
 .rodata.gDefaultAesKey
                0x00000000       0x10 CMakeFiles/n7six.ApeX-k1.v7.6.5br1.dir/App/misc.c.obj
 .rodata.NOAA_countdown_3_10ms
                0x00000000        0x2 CMakeFiles/n7six.ApeX-k1.v7.6.5br1.dir/App/misc.c.obj
 .rodata.NOAA_countdown_2_10ms
                0x00000000        0x2 CMakeFiles/n7six.ApeX-k1.v7.6.5br1.dir/App/misc.c.obj
 .rodata.NOAA_countdown_10ms
                0x00000000        0x2 CMakeFiles/n7six.ApeX-k1.v7.6.5br1.dir/App/misc.c.obj
 .rodata.scan_pause_delay_in_7_10ms
                0x00000000        0x2 CMakeFiles/n7six.ApeX-k1.v7.6.5br1.dir/App/misc.c.obj
 .rodata.scan_pause_delay_in_6_10ms
                0x00000000        0x2 CMakeFiles/n7six.ApeX-k1.v7.6.5br1.dir/App/misc.c.obj
 .rodata.scan_pause_delay_in_4_10ms
                0x00000000        0x2 CMakeFiles/n7six.ApeX-k1.v7.6.5br1.dir/App/misc.c.obj
 .rodata.dual_watch_count_noaa_10ms
                0x00000000        0x2 CMakeFiles/n7six.ApeX-k1.v7.6.5br1.dir/App/misc.c.obj
 .rodata.dual_watch_count_after_1_10ms
                0x00000000        0x2 CMakeFiles/n7six.ApeX-k1.v7.6.5br1.dir/App/misc.c.obj
 .text          0x00000000        0x0 CMakeFiles/n7six.ApeX-k1.v7.6.5br1.dir/App/radio.c.obj
 .data          0x00000000        0x0 CMakeFiles/n7six.ApeX-k1.v7.6.5br1.dir/App/radio.c.obj
 .bss           0x00000000        0x0 CMakeFiles/n7six.ApeX-k1.v7.6.5br1.dir/App/radio.c.obj
 .text.RADIO_PrepareCssTX
                0x00000000       0x24 CMakeFiles/n7six.ApeX-k1.v7.6.5br1.dir/App/radio.c.obj
 .text          0x00000000        0x0 CMakeFiles/n7six.ApeX-k1.v7.6.5br1.dir/App/scheduler.c.obj
 .data          0x00000000        0x0 CMakeFiles/n7six.ApeX-k1.v7.6.5br1.dir/App/scheduler.c.obj
 .bss           0x00000000        0x0 CMakeFiles/n7six.ApeX-k1.v7.6.5br1.dir/App/scheduler.c.obj
 .text          0x00000000        0x0 CMakeFiles/n7six.ApeX-k1.v7.6.5br1.dir/App/settings.c.obj
 .data          0x00000000        0x0 CMakeFiles/n7six.ApeX-k1.v7.6.5br1.dir/App/settings.c.obj
 .bss           0x00000000        0x0 CMakeFiles/n7six.ApeX-k1.v7.6.5br1.dir/App/settings.c.obj
 .text          0x00000000        0x0 CMakeFiles/n7six.ApeX-k1.v7.6.5br1.dir/App/ui/battery.c.obj
 .data          0x00000000        0x0 CMakeFiles/n7six.ApeX-k1.v7.6.5br1.dir/App/ui/battery.c.obj
 .bss           0x00000000        0x0 CMakeFiles/n7six.ApeX-k1.v7.6.5br1.dir/App/ui/battery.c.obj
 .text          0x00000000        0x0 CMakeFiles/n7six.ApeX-k1.v7.6.5br1.dir/App/ui/helper.c.obj
 .data          0x00000000        0x0 CMakeFiles/n7six.ApeX-k1.v7.6.5br1.dir/App/ui/helper.c.obj
 .bss           0x00000000        0x0 CMakeFiles/n7six.ApeX-k1.v7.6.5br1.dir/App/ui/helper.c.obj
 .text.UI_PrintStringSmallBufferBold
                0x00000000       0x10 CMakeFiles/n7six.ApeX-k1.v7.6.5br1.dir/App/ui/helper.c.obj
 .text          0x00000000        0x0 CMakeFiles/n7six.ApeX-k1.v7.6.5br1.dir/App/ui/inputbox.c.obj
 .data          0x00000000        0x0 CMakeFiles/n7six.ApeX-k1.v7.6.5br1.dir/App/ui/inputbox.c.obj
 .bss           0x00000000        0x0 CMakeFiles/n7six.ApeX-k1.v7.6.5br1.dir/App/ui/inputbox.c.obj
 .text          0x00000000        0x0 CMakeFiles/n7six.ApeX-k1.v7.6.5br1.dir/App/ui/main.c.obj
 .data          0x00000000        0x0 CMakeFiles/n7six.ApeX-k1.v7.6.5br1.dir/App/ui/main.c.obj
 .bss           0x00000000        0x0 CMakeFiles/n7six.ApeX-k1.v7.6.5br1.dir/App/ui/main.c.obj
 .data.t        0x00000000        0x4 CMakeFiles/n7six.ApeX-k1.v7.6.5br1.dir/App/ui/main.c.obj
 .data.s        0x00000000        0x4 CMakeFiles/n7six.ApeX-k1.v7.6.5br1.dir/App/ui/main.c.obj
 .text          0x00000000        0x0 CMakeFiles/n7six.ApeX-k1.v7.6.5br1.dir/App/ui/menu.c.obj
 .data          0x00000000        0x0 CMakeFiles/n7six.ApeX-k1.v7.6.5br1.dir/App/ui/menu.c.obj
 .bss           0x00000000        0x0 CMakeFiles/n7six.ApeX-k1.v7.6.5br1.dir/App/ui/menu.c.obj
 .rodata.gSubMenu_NA
                0x00000000        0x4 CMakeFiles/n7six.ApeX-k1.v7.6.5br1.dir/App/ui/menu.c.obj
 .text          0x00000000        0x0 CMakeFiles/n7six.ApeX-k1.v7.6.5br1.dir/App/ui/scanner.c.obj
 .data          0x00000000        0x0 CMakeFiles/n7six.ApeX-k1.v7.6.5br1.dir/App/ui/scanner.c.obj
 .bss           0x00000000        0x0 CMakeFiles/n7six.ApeX-k1.v7.6.5br1.dir/App/ui/scanner.c.obj
 .text          0x00000000        0x0 CMakeFiles/n7six.ApeX-k1.v7.6.5br1.dir/App/ui/status.c.obj
 .data          0x00000000        0x0 CMakeFiles/n7six.ApeX-k1.v7.6.5br1.dir/App/ui/status.c.obj
 .bss           0x00000000        0x0 CMakeFiles/n7six.ApeX-k1.v7.6.5br1.dir/App/ui/status.c.obj
 .text          0x00000000        0x0 CMakeFiles/n7six.ApeX-k1.v7.6.5br1.dir/App/ui/ui.c.obj
 .data          0x00000000        0x0 CMakeFiles/n7six.ApeX-k1.v7.6.5br1.dir/App/ui/ui.c.obj
 .bss           0x00000000        0x0 CMakeFiles/n7six.ApeX-k1.v7.6.5br1.dir/App/ui/ui.c.obj
 .text          0x00000000        0x0 CMakeFiles/n7six.ApeX-k1.v7.6.5br1.dir/App/ui/welcome.c.obj
 .data          0x00000000        0x0 CMakeFiles/n7six.ApeX-k1.v7.6.5br1.dir/App/ui/welcome.c.obj
 .bss           0x00000000        0x0 CMakeFiles/n7six.ApeX-k1.v7.6.5br1.dir/App/ui/welcome.c.obj
 .text          0x00000000        0x0 CMakeFiles/n7six.ApeX-k1.v7.6.5br1.dir/App/version.c.obj
 .data          0x00000000        0x0 CMakeFiles/n7six.ApeX-k1.v7.6.5br1.dir/App/version.c.obj
 .bss           0x00000000        0x0 CMakeFiles/n7six.ApeX-k1.v7.6.5br1.dir/App/version.c.obj
 .text          0x00000000        0x0 CMakeFiles/n7six.ApeX-k1.v7.6.5br1.dir/App/main.c.obj
 .data          0x00000000        0x0 CMakeFiles/n7six.ApeX-k1.v7.6.5br1.dir/App/main.c.obj
 .bss           0x00000000        0x0 CMakeFiles/n7six.ApeX-k1.v7.6.5br1.dir/App/main.c.obj
 .text._putchar
                0x00000000       0x12 CMakeFiles/n7six.ApeX-k1.v7.6.5br1.dir/App/main.c.obj
 .text          0x00000000        0x0 CMakeFiles/n7six.ApeX-k1.v7.6.5br1.dir/App/external/printf/printf.c.obj
 .data          0x00000000        0x0 CMakeFiles/n7six.ApeX-k1.v7.6.5br1.dir/App/external/printf/printf.c.obj
 .bss           0x00000000        0x0 CMakeFiles/n7six.ApeX-k1.v7.6.5br1.dir/App/external/printf/printf.c.obj
 .text._out_char
                0x00000000        0xc CMakeFiles/n7six.ApeX-k1.v7.6.5br1.dir/App/external/printf/printf.c.obj
 .text._out_fct
                0x00000000        0xe CMakeFiles/n7six.ApeX-k1.v7.6.5br1.dir/App/external/printf/printf.c.obj
 .text.printf_  0x00000000       0x24 CMakeFiles/n7six.ApeX-k1.v7.6.5br1.dir/App/external/printf/printf.c.obj
 .text.snprintf_
                0x00000000       0x28 CMakeFiles/n7six.ApeX-k1.v7.6.5br1.dir/App/external/printf/printf.c.obj
 .text.vprintf_
                0x00000000       0x1c CMakeFiles/n7six.ApeX-k1.v7.6.5br1.dir/App/external/printf/printf.c.obj
 .text.vsnprintf_
                0x00000000       0x18 CMakeFiles/n7six.ApeX-k1.v7.6.5br1.dir/App/external/printf/printf.c.obj
 .text.fctprintf
                0x00000000       0x2c CMakeFiles/n7six.ApeX-k1.v7.6.5br1.dir/App/external/printf/printf.c.obj
 .text          0x00000000        0x0 CMakeFiles/n7six.ApeX-k1.v7.6.5br1.dir/App/driver/crc.c.obj
 .data          0x00000000        0x0 CMakeFiles/n7six.ApeX-k1.v7.6.5br1.dir/App/driver/crc.c.obj
 .bss           0x00000000        0x0 CMakeFiles/n7six.ApeX-k1.v7.6.5br1.dir/App/driver/crc.c.obj
 .text          0x00000000        0x0 CMakeFiles/n7six.ApeX-k1.v7.6.5br1.dir/App/driver/eeprom_compat.c.obj
 .data          0x00000000        0x0 CMakeFiles/n7six.ApeX-k1.v7.6.5br1.dir/App/driver/eeprom_compat.c.obj
 .bss           0x00000000        0x0 CMakeFiles/n7six.ApeX-k1.v7.6.5br1.dir/App/driver/eeprom_compat.c.obj
 .text          0x00000000        0x0 CMakeFiles/n7six.ApeX-k1.v7.6.5br1.dir/App/driver/uart.c.obj
 .data          0x00000000        0x0 CMakeFiles/n7six.ApeX-k1.v7.6.5br1.dir/App/driver/uart.c.obj
 .bss           0x00000000        0x0 CMakeFiles/n7six.ApeX-k1.v7.6.5br1.dir/App/driver/uart.c.obj
 .text.UART_LogSend
                0x00000000        0x2 CMakeFiles/n7six.ApeX-k1.v7.6.5br1.dir/App/driver/uart.c.obj
 .text          0x00000000        0x0 CMakeFiles/n7six.ApeX-k1.v7.6.5br1.dir/App/app/uart.c.obj
 .data          0x00000000        0x0 CMakeFiles/n7six.ApeX-k1.v7.6.5br1.dir/App/app/uart.c.obj
 .bss           0x00000000        0x0 CMakeFiles/n7six.ApeX-k1.v7.6.5br1.dir/App/app/uart.c.obj
 .text          0x00000000        0x0 CMakeFiles/n7six.ApeX-k1.v7.6.5br1.dir/App/driver/vcp.c.obj
 .data          0x00000000        0x0 CMakeFiles/n7six.ApeX-k1.v7.6.5br1.dir/App/driver/vcp.c.obj
 .bss           0x00000000        0x0 CMakeFiles/n7six.ApeX-k1.v7.6.5br1.dir/App/driver/vcp.c.obj
 .text          0x00000000        0x0 CMakeFiles/n7six.ApeX-k1.v7.6.5br1.dir/App/usb/usbd_cdc_if.c.obj
 .data          0x00000000        0x0 CMakeFiles/n7six.ApeX-k1.v7.6.5br1.dir/App/usb/usbd_cdc_if.c.obj
 .bss           0x00000000        0x0 CMakeFiles/n7six.ApeX-k1.v7.6.5br1.dir/App/usb/usbd_cdc_if.c.obj
 .text.cdc_acm_data_send_with_dtr
                0x00000000       0x30 CMakeFiles/n7six.ApeX-k1.v7.6.5br1.dir/App/usb/usbd_cdc_if.c.obj
 .data.dma_out_ep_idx
                0x00000000        0x1 CMakeFiles/n7six.ApeX-k1.v7.6.5br1.dir/App/usb/usbd_cdc_if.c.obj
 .data.dma_in_ep_idx
                0x00000000        0x1 CMakeFiles/n7six.ApeX-k1.v7.6.5br1.dir/App/usb/usbd_cdc_if.c.obj
 .text          0x00000000        0x0 CMakeFiles/n7six.ApeX-k1.v7.6.5br1.dir/App/driver/bk1080.c.obj
 .data          0x00000000        0x0 CMakeFiles/n7six.ApeX-k1.v7.6.5br1.dir/App/driver/bk1080.c.obj
 .bss           0x00000000        0x0 CMakeFiles/n7six.ApeX-k1.v7.6.5br1.dir/App/driver/bk1080.c.obj
 .text          0x00000000        0x0 CMakeFiles/n7six.ApeX-k1.v7.6.5br1.dir/App/app/fm.c.obj
 .data          0x00000000        0x0 CMakeFiles/n7six.ApeX-k1.v7.6.5br1.dir/App/app/fm.c.obj
 .bss           0x00000000        0x0 CMakeFiles/n7six.ApeX-k1.v7.6.5br1.dir/App/app/fm.c.obj
 .rodata.BUTTON_EVENT_LONG
                0x00000000        0x1 CMakeFiles/n7six.ApeX-k1.v7.6.5br1.dir/App/app/fm.c.obj
 .rodata.BUTTON_EVENT_SHORT
                0x00000000        0x1 CMakeFiles/n7six.ApeX-k1.v7.6.5br1.dir/App/app/fm.c.obj
 .rodata.BUTTON_EVENT_HELD
                0x00000000        0x1 CMakeFiles/n7six.ApeX-k1.v7.6.5br1.dir/App/app/fm.c.obj
 .rodata.BUTTON_EVENT_PRESSED
                0x00000000        0x1 CMakeFiles/n7six.ApeX-k1.v7.6.5br1.dir/App/app/fm.c.obj
 .rodata.BUTTON_STATE_HELD
                0x00000000        0x1 CMakeFiles/n7six.ApeX-k1.v7.6.5br1.dir/App/app/fm.c.obj
 .rodata.BUTTON_STATE_PRESSED
                0x00000000        0x1 CMakeFiles/n7six.ApeX-k1.v7.6.5br1.dir/App/app/fm.c.obj
 .text          0x00000000        0x0 CMakeFiles/n7six.ApeX-k1.v7.6.5br1.dir/App/ui/fmradio.c.obj
 .data          0x00000000        0x0 CMakeFiles/n7six.ApeX-k1.v7.6.5br1.dir/App/ui/fmradio.c.obj
 .bss           0x00000000        0x0 CMakeFiles/n7six.ApeX-k1.v7.6.5br1.dir/App/ui/fmradio.c.obj
 .text          0x00000000        0x0 CMakeFiles/n7six.ApeX-k1.v7.6.5br1.dir/App/app/aircopy.c.obj
 .data          0x00000000        0x0 CMakeFiles/n7six.ApeX-k1.v7.6.5br1.dir/App/app/aircopy.c.obj
 .bss           0x00000000        0x0 CMakeFiles/n7six.ApeX-k1.v7.6.5br1.dir/App/app/aircopy.c.obj
 .text          0x00000000        0x0 CMakeFiles/n7six.ApeX-k1.v7.6.5br1.dir/App/ui/aircopy.c.obj
 .data          0x00000000        0x0 CMakeFiles/n7six.ApeX-k1.v7.6.5br1.dir/App/ui/aircopy.c.obj
 .bss           0x00000000        0x0 CMakeFiles/n7six.ApeX-k1.v7.6.5br1.dir/App/ui/aircopy.c.obj
 .text          0x00000000        0x0 CMakeFiles/n7six.ApeX-k1.v7.6.5br1.dir/App/app/flashlight.c.obj
 .data          0x00000000        0x0 CMakeFiles/n7six.ApeX-k1.v7.6.5br1.dir/App/app/flashlight.c.obj
 .bss           0x00000000        0x0 CMakeFiles/n7six.ApeX-k1.v7.6.5br1.dir/App/app/flashlight.c.obj
 .text          0x00000000        0x0 CMakeFiles/n7six.ApeX-k1.v7.6.5br1.dir/App/app/spectrum.c.obj
 .data          0x00000000        0x0 CMakeFiles/n7six.ApeX-k1.v7.6.5br1.dir/App/app/spectrum.c.obj
 .bss           0x00000000        0x0 CMakeFiles/n7six.ApeX-k1.v7.6.5br1.dir/App/app/spectrum.c.obj
 .text.IsCenterMode
                0x00000000       0x14 CMakeFiles/n7six.ApeX-k1.v7.6.5br1.dir/App/app/spectrum.c.obj
 .text.GetBWRegValueForScan
                0x00000000       0x14 CMakeFiles/n7six.ApeX-k1.v7.6.5br1.dir/App/app/spectrum.c.obj
 .rodata.modTypeReg47Values
                0x00000000        0x3 CMakeFiles/n7six.ApeX-k1.v7.6.5br1.dir/App/app/spectrum.c.obj
 .bss.waterfallUpdateCounter
                0x00000000        0x2 CMakeFiles/n7six.ApeX-k1.v7.6.5br1.dir/App/app/spectrum.c.obj
 .rodata.scanStepBWRegValues
                0x00000000       0x18 CMakeFiles/n7six.ApeX-k1.v7.6.5br1.dir/App/app/spectrum.c.obj
 .text          0x00000000        0x0 CMakeFiles/n7six.ApeX-k1.v7.6.5br1.dir/App/app/breakout.c.obj
 .data          0x00000000        0x0 CMakeFiles/n7six.ApeX-k1.v7.6.5br1.dir/App/app/breakout.c.obj
 .bss           0x00000000        0x0 CMakeFiles/n7six.ApeX-k1.v7.6.5br1.dir/App/app/breakout.c.obj
 .text.srand_custom
                0x00000000        0xc CMakeFiles/n7six.ApeX-k1.v7.6.5br1.dir/App/app/breakout.c.obj
 .text.randInt  0x00000000       0x16 CMakeFiles/n7six.ApeX-k1.v7.6.5br1.dir/App/app/breakout.c.obj
 .rodata.BITMAP_blockEmpty
                0x00000000        0xf CMakeFiles/n7six.ApeX-k1.v7.6.5br1.dir/App/app/breakout.c.obj
 .rodata.BITMAP_blockOn
                0x00000000        0xf CMakeFiles/n7six.ApeX-k1.v7.6.5br1.dir/App/app/breakout.c.obj
 .text          0x00000000        0x0 CMakeFiles/n7six.ApeX-k1.v7.6.5br1.dir/App/screenshot.c.obj
 .data          0x00000000        0x0 CMakeFiles/n7six.ApeX-k1.v7.6.5br1.dir/App/screenshot.c.obj
 .bss           0x00000000        0x0 CMakeFiles/n7six.ApeX-k1.v7.6.5br1.dir/App/screenshot.c.obj
 .text          0x00000000        0x0 CMakeFiles/n7six.ApeX-k1.v7.6.5br1.dir/Middlewares/CherryUSB/core/usbd_core.c.obj
 .data          0x00000000        0x0 CMakeFiles/n7six.ApeX-k1.v7.6.5br1.dir/Middlewares/CherryUSB/core/usbd_core.c.obj
 .bss           0x00000000        0x0 CMakeFiles/n7six.ApeX-k1.v7.6.5br1.dir/Middlewares/CherryUSB/core/usbd_core.c.obj
 .text.usbd_event_connect_handler
                0x00000000        0xc CMakeFiles/n7six.ApeX-k1.v7.6.5br1.dir/Middlewares/CherryUSB/core/usbd_core.c.obj
 .text.usbd_event_disconnect_handler
                0x00000000        0xc CMakeFiles/n7six.ApeX-k1.v7.6.5br1.dir/Middlewares/CherryUSB/core/usbd_core.c.obj
 .text.usbd_msosv1_desc_register
                0x00000000        0xc CMakeFiles/n7six.ApeX-k1.v7.6.5br1.dir/Middlewares/CherryUSB/core/usbd_core.c.obj
 .text.usbd_msosv2_desc_register
                0x00000000        0xc CMakeFiles/n7six.ApeX-k1.v7.6.5br1.dir/Middlewares/CherryUSB/core/usbd_core.c.obj
 .text.usbd_bos_desc_register
                0x00000000        0xc CMakeFiles/n7six.ApeX-k1.v7.6.5br1.dir/Middlewares/CherryUSB/core/usbd_core.c.obj
 .text.usb_device_is_configured
                0x00000000       0x10 CMakeFiles/n7six.ApeX-k1.v7.6.5br1.dir/Middlewares/CherryUSB/core/usbd_core.c.obj
 .text.usbd_deinitialize
                0x00000000       0x20 CMakeFiles/n7six.ApeX-k1.v7.6.5br1.dir/Middlewares/CherryUSB/core/usbd_core.c.obj
 .text          0x00000000        0x0 CMakeFiles/n7six.ApeX-k1.v7.6.5br1.dir/Middlewares/CherryUSB/port/usb_dc_py32.c.obj
 .data          0x00000000        0x0 CMakeFiles/n7six.ApeX-k1.v7.6.5br1.dir/Middlewares/CherryUSB/port/usb_dc_py32.c.obj
 .bss           0x00000000        0x0 CMakeFiles/n7six.ApeX-k1.v7.6.5br1.dir/Middlewares/CherryUSB/port/usb_dc_py32.c.obj
 .text.usbd_ep0_reset_zlp_flag
                0x00000000        0xc CMakeFiles/n7six.ApeX-k1.v7.6.5br1.dir/Middlewares/CherryUSB/port/usb_dc_py32.c.obj
 .text.usb_dc_low_level_deinit
                0x00000000        0x2 CMakeFiles/n7six.ApeX-k1.v7.6.5br1.dir/Middlewares/CherryUSB/port/usb_dc_py32.c.obj
 .text.usb_dc_deinit
                0x00000000        0x4 CMakeFiles/n7six.ApeX-k1.v7.6.5br1.dir/Middlewares/CherryUSB/port/usb_dc_py32.c.obj
 .text.usbd_activateremotewakeup
                0x00000000       0x10 CMakeFiles/n7six.ApeX-k1.v7.6.5br1.dir/Middlewares/CherryUSB/port/usb_dc_py32.c.obj
 .text.usbd_deactivateremotewakeup
                0x00000000       0x10 CMakeFiles/n7six.ApeX-k1.v7.6.5br1.dir/Middlewares/CherryUSB/port/usb_dc_py32.c.obj
 .text          0x00000000        0x0 CMakeFiles/n7six.ApeX-k1.v7.6.5br1.dir/Middlewares/CherryUSB/class/cdc/usbd_cdc.c.obj
 .data          0x00000000        0x0 CMakeFiles/n7six.ApeX-k1.v7.6.5br1.dir/Middlewares/CherryUSB/class/cdc/usbd_cdc.c.obj
 .bss           0x00000000        0x0 CMakeFiles/n7six.ApeX-k1.v7.6.5br1.dir/Middlewares/CherryUSB/class/cdc/usbd_cdc.c.obj
 .text.usbd_cdc_acm_set_dtr
                0x00000000        0x2 CMakeFiles/n7six.ApeX-k1.v7.6.5br1.dir/Middlewares/CherryUSB/class/cdc/usbd_cdc.c.obj
 .rodata.str1.1
                0x00000000       0x12 CMakeFiles/n7six.ApeX-k1.v7.6.5br1.dir/Middlewares/CherryUSB/class/cdc/usbd_cdc.c.obj
 .data.parity_name
                0x00000000       0x14 CMakeFiles/n7six.ApeX-k1.v7.6.5br1.dir/Middlewares/CherryUSB/class/cdc/usbd_cdc.c.obj
 .data.stop_name
                0x00000000        0xc CMakeFiles/n7six.ApeX-k1.v7.6.5br1.dir/Middlewares/CherryUSB/class/cdc/usbd_cdc.c.obj
 .data          0x00000000        0x0 /opt/toolchain/bin/../lib/gcc/arm-none-eabi/13.3.1/thumb/v6-m/nofp/libgcc.a(_thumb1_case_sqi.o)
 .bss           0x00000000        0x0 /opt/toolchain/bin/../lib/gcc/arm-none-eabi/13.3.1/thumb/v6-m/nofp/libgcc.a(_thumb1_case_sqi.o)
 .data          0x00000000        0x0 /opt/toolchain/bin/../lib/gcc/arm-none-eabi/13.3.1/thumb/v6-m/nofp/libgcc.a(_thumb1_case_uqi.o)
 .bss           0x00000000        0x0 /opt/toolchain/bin/../lib/gcc/arm-none-eabi/13.3.1/thumb/v6-m/nofp/libgcc.a(_thumb1_case_uqi.o)
 .data          0x00000000        0x0 /opt/toolchain/bin/../lib/gcc/arm-none-eabi/13.3.1/thumb/v6-m/nofp/libgcc.a(_thumb1_case_shi.o)
 .bss           0x00000000        0x0 /opt/toolchain/bin/../lib/gcc/arm-none-eabi/13.3.1/thumb/v6-m/nofp/libgcc.a(_thumb1_case_shi.o)
 .data          0x00000000        0x0 /opt/toolchain/bin/../lib/gcc/arm-none-eabi/13.3.1/thumb/v6-m/nofp/libgcc.a(_thumb1_case_uhi.o)
 .bss           0x00000000        0x0 /opt/toolchain/bin/../lib/gcc/arm-none-eabi/13.3.1/thumb/v6-m/nofp/libgcc.a(_thumb1_case_uhi.o)
 .data          0x00000000        0x0 /opt/toolchain/bin/../lib/gcc/arm-none-eabi/13.3.1/thumb/v6-m/nofp/libgcc.a(_udivsi3.o)
 .bss           0x00000000        0x0 /opt/toolchain/bin/../lib/gcc/arm-none-eabi/13.3.1/thumb/v6-m/nofp/libgcc.a(_udivsi3.o)
 .data          0x00000000        0x0 /opt/toolchain/bin/../lib/gcc/arm-none-eabi/13.3.1/thumb/v6-m/nofp/libgcc.a(_divsi3.o)
 .bss           0x00000000        0x0 /opt/toolchain/bin/../lib/gcc/arm-none-eabi/13.3.1/thumb/v6-m/nofp/libgcc.a(_divsi3.o)
 .data          0x00000000        0x0 /opt/toolchain/bin/../lib/gcc/arm-none-eabi/13.3.1/thumb/v6-m/nofp/libgcc.a(_dvmd_tls.o)
 .bss           0x00000000        0x0 /opt/toolchain/bin/../lib/gcc/arm-none-eabi/13.3.1/thumb/v6-m/nofp/libgcc.a(_dvmd_tls.o)
 .data          0x00000000        0x0 /opt/toolchain/bin/../lib/gcc/arm-none-eabi/13.3.1/thumb/v6-m/nofp/libgcc.a(_clzsi2.o)
 .bss           0x00000000        0x0 /opt/toolchain/bin/../lib/gcc/arm-none-eabi/13.3.1/thumb/v6-m/nofp/libgcc.a(_clzsi2.o)
 .text          0x00000000        0x0 /opt/toolchain/bin/../lib/gcc/arm-none-eabi/13.3.1/thumb/v6-m/nofp/libgcc.a(_muldi3.o)
 .data          0x00000000        0x0 /opt/toolchain/bin/../lib/gcc/arm-none-eabi/13.3.1/thumb/v6-m/nofp/libgcc.a(_muldi3.o)
 .bss           0x00000000        0x0 /opt/toolchain/bin/../lib/gcc/arm-none-eabi/13.3.1/thumb/v6-m/nofp/libgcc.a(_muldi3.o)
 .text          0x00000000        0x0 /opt/toolchain/bin/../lib/gcc/arm-none-eabi/13.3.1/thumb/v6-m/nofp/libgcc.a(_fixunssfsi.o)
 .data          0x00000000        0x0 /opt/toolchain/bin/../lib/gcc/arm-none-eabi/13.3.1/thumb/v6-m/nofp/libgcc.a(_fixunssfsi.o)
 .bss           0x00000000        0x0 /opt/toolchain/bin/../lib/gcc/arm-none-eabi/13.3.1/thumb/v6-m/nofp/libgcc.a(_fixunssfsi.o)
 .text          0x00000000        0x0 /opt/toolchain/bin/../lib/gcc/arm-none-eabi/13.3.1/thumb/v6-m/nofp/libgcc.a(addsf3.o)
 .data          0x00000000        0x0 /opt/toolchain/bin/../lib/gcc/arm-none-eabi/13.3.1/thumb/v6-m/nofp/libgcc.a(addsf3.o)
 .bss           0x00000000        0x0 /opt/toolchain/bin/../lib/gcc/arm-none-eabi/13.3.1/thumb/v6-m/nofp/libgcc.a(addsf3.o)
 .text          0x00000000        0x0 /opt/toolchain/bin/../lib/gcc/arm-none-eabi/13.3.1/thumb/v6-m/nofp/libgcc.a(mulsf3.o)
 .data          0x00000000        0x0 /opt/toolchain/bin/../lib/gcc/arm-none-eabi/13.3.1/thumb/v6-m/nofp/libgcc.a(mulsf3.o)
 .bss           0x00000000        0x0 /opt/toolchain/bin/../lib/gcc/arm-none-eabi/13.3.1/thumb/v6-m/nofp/libgcc.a(mulsf3.o)
 .text          0x00000000        0x0 /opt/toolchain/bin/../lib/gcc/arm-none-eabi/13.3.1/thumb/v6-m/nofp/libgcc.a(subsf3.o)
 .data          0x00000000        0x0 /opt/toolchain/bin/../lib/gcc/arm-none-eabi/13.3.1/thumb/v6-m/nofp/libgcc.a(subsf3.o)
 .bss           0x00000000        0x0 /opt/toolchain/bin/../lib/gcc/arm-none-eabi/13.3.1/thumb/v6-m/nofp/libgcc.a(subsf3.o)
 .text          0x00000000        0x0 /opt/toolchain/bin/../lib/gcc/arm-none-eabi/13.3.1/thumb/v6-m/nofp/libgcc.a(fixsfsi.o)
 .data          0x00000000        0x0 /opt/toolchain/bin/../lib/gcc/arm-none-eabi/13.3.1/thumb/v6-m/nofp/libgcc.a(fixsfsi.o)
 .bss           0x00000000        0x0 /opt/toolchain/bin/../lib/gcc/arm-none-eabi/13.3.1/thumb/v6-m/nofp/libgcc.a(fixsfsi.o)
 .text          0x00000000        0x0 /opt/toolchain/bin/../lib/gcc/arm-none-eabi/13.3.1/thumb/v6-m/nofp/libgcc.a(floatsisf.o)
 .data          0x00000000        0x0 /opt/toolchain/bin/../lib/gcc/arm-none-eabi/13.3.1/thumb/v6-m/nofp/libgcc.a(floatsisf.o)
 .bss           0x00000000        0x0 /opt/toolchain/bin/../lib/gcc/arm-none-eabi/13.3.1/thumb/v6-m/nofp/libgcc.a(floatsisf.o)
 .data          0x00000000        0x0 /opt/toolchain/bin/../lib/gcc/arm-none-eabi/13.3.1/thumb/v6-m/nofp/libgcc.a(_arm_cmpsf2.o)
 .bss           0x00000000        0x0 /opt/toolchain/bin/../lib/gcc/arm-none-eabi/13.3.1/thumb/v6-m/nofp/libgcc.a(_arm_cmpsf2.o)
 .text          0x00000000        0x0 /opt/toolchain/bin/../lib/gcc/arm-none-eabi/13.3.1/thumb/v6-m/nofp/libgcc.a(eqsf2.o)
 .data          0x00000000        0x0 /opt/toolchain/bin/../lib/gcc/arm-none-eabi/13.3.1/thumb/v6-m/nofp/libgcc.a(eqsf2.o)
 .bss           0x00000000        0x0 /opt/toolchain/bin/../lib/gcc/arm-none-eabi/13.3.1/thumb/v6-m/nofp/libgcc.a(eqsf2.o)
 .text          0x00000000        0x0 /opt/toolchain/bin/../lib/gcc/arm-none-eabi/13.3.1/thumb/v6-m/nofp/libgcc.a(gesf2.o)
 .data          0x00000000        0x0 /opt/toolchain/bin/../lib/gcc/arm-none-eabi/13.3.1/thumb/v6-m/nofp/libgcc.a(gesf2.o)
 .bss           0x00000000        0x0 /opt/toolchain/bin/../lib/gcc/arm-none-eabi/13.3.1/thumb/v6-m/nofp/libgcc.a(gesf2.o)
 .text          0x00000000        0x0 /opt/toolchain/bin/../lib/gcc/arm-none-eabi/13.3.1/thumb/v6-m/nofp/libgcc.a(lesf2.o)
 .data          0x00000000        0x0 /opt/toolchain/bin/../lib/gcc/arm-none-eabi/13.3.1/thumb/v6-m/nofp/libgcc.a(lesf2.o)
 .bss           0x00000000        0x0 /opt/toolchain/bin/../lib/gcc/arm-none-eabi/13.3.1/thumb/v6-m/nofp/libgcc.a(lesf2.o)
 .text          0x00000000        0x0 /opt/toolchain/bin/../lib/gcc/arm-none-eabi/13.3.1/../../../../arm-none-eabi/lib/thumb/v6-m/nofp/libg_nano.a(libc_a-exit.o)
 .data          0x00000000        0x0 /opt/toolchain/bin/../lib/gcc/arm-none-eabi/13.3.1/../../../../arm-none-eabi/lib/thumb/v6-m/nofp/libg_nano.a(libc_a-exit.o)
 .bss           0x00000000        0x0 /opt/toolchain/bin/../lib/gcc/arm-none-eabi/13.3.1/../../../../arm-none-eabi/lib/thumb/v6-m/nofp/libg_nano.a(libc_a-exit.o)
 .text.exit     0x00000000       0x28 /opt/toolchain/bin/../lib/gcc/arm-none-eabi/13.3.1/../../../../arm-none-eabi/lib/thumb/v6-m/nofp/libg_nano.a(libc_a-exit.o)
 .debug_frame   0x00000000       0x28 /opt/toolchain/bin/../lib/gcc/arm-none-eabi/13.3.1/../../../../arm-none-eabi/lib/thumb/v6-m/nofp/libg_nano.a(libc_a-exit.o)
 .ARM.attributes
                0x00000000       0x2c /opt/toolchain/bin/../lib/gcc/arm-none-eabi/13.3.1/../../../../arm-none-eabi/lib/thumb/v6-m/nofp/libg_nano.a(libc_a-exit.o)
 .text          0x00000000        0x0 /opt/toolchain/bin/../lib/gcc/arm-none-eabi/13.3.1/../../../../arm-none-eabi/lib/thumb/v6-m/nofp/libg_nano.a(libc_a-init.o)
 .data          0x00000000        0x0 /opt/toolchain/bin/../lib/gcc/arm-none-eabi/13.3.1/../../../../arm-none-eabi/lib/thumb/v6-m/nofp/libg_nano.a(libc_a-init.o)
 .bss           0x00000000        0x0 /opt/toolchain/bin/../lib/gcc/arm-none-eabi/13.3.1/../../../../arm-none-eabi/lib/thumb/v6-m/nofp/libg_nano.a(libc_a-init.o)
 .text          0x00000000        0x0 /opt/toolchain/bin/../lib/gcc/arm-none-eabi/13.3.1/../../../../arm-none-eabi/lib/thumb/v6-m/nofp/libg_nano.a(libc_a-memmove.o)
 .data          0x00000000        0x0 /opt/toolchain/bin/../lib/gcc/arm-none-eabi/13.3.1/../../../../arm-none-eabi/lib/thumb/v6-m/nofp/libg_nano.a(libc_a-memmove.o)
 .bss           0x00000000        0x0 /opt/toolchain/bin/../lib/gcc/arm-none-eabi/13.3.1/../../../../arm-none-eabi/lib/thumb/v6-m/nofp/libg_nano.a(libc_a-memmove.o)
 .text          0x00000000        0x0 /opt/toolchain/bin/../lib/gcc/arm-none-eabi/13.3.1/../../../../arm-none-eabi/lib/thumb/v6-m/nofp/libg_nano.a(libc_a-memset.o)
 .data          0x00000000        0x0 /opt/toolchain/bin/../lib/gcc/arm-none-eabi/13.3.1/../../../../arm-none-eabi/lib/thumb/v6-m/nofp/libg_nano.a(libc_a-memset.o)
 .bss           0x00000000        0x0 /opt/toolchain/bin/../lib/gcc/arm-none-eabi/13.3.1/../../../../arm-none-eabi/lib/thumb/v6-m/nofp/libg_nano.a(libc_a-memset.o)
 .text          0x00000000        0x0 /opt/toolchain/bin/../lib/gcc/arm-none-eabi/13.3.1/../../../../arm-none-eabi/lib/thumb/v6-m/nofp/libg_nano.a(libc_a-memcpy-stub.o)
 .data          0x00000000        0x0 /opt/toolchain/bin/../lib/gcc/arm-none-eabi/13.3.1/../../../../arm-none-eabi/lib/thumb/v6-m/nofp/libg_nano.a(libc_a-memcpy-stub.o)
 .bss           0x00000000        0x0 /opt/toolchain/bin/../lib/gcc/arm-none-eabi/13.3.1/../../../../arm-none-eabi/lib/thumb/v6-m/nofp/libg_nano.a(libc_a-memcpy-stub.o)
 .data          0x00000000        0x0 /opt/toolchain/bin/../lib/gcc/arm-none-eabi/13.3.1/../../../../arm-none-eabi/lib/thumb/v6-m/nofp/libg_nano.a(libc_a-strlen.o)
 .bss           0x00000000        0x0 /opt/toolchain/bin/../lib/gcc/arm-none-eabi/13.3.1/../../../../arm-none-eabi/lib/thumb/v6-m/nofp/libg_nano.a(libc_a-strlen.o)
 .text          0x00000000        0x0 /opt/toolchain/bin/../lib/gcc/arm-none-eabi/13.3.1/../../../../arm-none-eabi/lib/thumb/v6-m/nofp/libg_nano.a(libc_a-findfp.o)
 .data          0x00000000        0x0 /opt/toolchain/bin/../lib/gcc/arm-none-eabi/13.3.1/../../../../arm-none-eabi/lib/thumb/v6-m/nofp/libg_nano.a(libc_a-findfp.o)
 .bss           0x00000000        0x0 /opt/toolchain/bin/../lib/gcc/arm-none-eabi/13.3.1/../../../../arm-none-eabi/lib/thumb/v6-m/nofp/libg_nano.a(libc_a-findfp.o)
 .text.std      0x00000000       0x6c /opt/toolchain/bin/../lib/gcc/arm-none-eabi/13.3.1/../../../../arm-none-eabi/lib/thumb/v6-m/nofp/libg_nano.a(libc_a-findfp.o)
 .text.stdio_exit_handler
                0x00000000       0x1c /opt/toolchain/bin/../lib/gcc/arm-none-eabi/13.3.1/../../../../arm-none-eabi/lib/thumb/v6-m/nofp/libg_nano.a(libc_a-findfp.o)
 .text.cleanup_stdio
                0x00000000       0x3c /opt/toolchain/bin/../lib/gcc/arm-none-eabi/13.3.1/../../../../arm-none-eabi/lib/thumb/v6-m/nofp/libg_nano.a(libc_a-findfp.o)
 .text.__fp_lock
                0x00000000       0x18 /opt/toolchain/bin/../lib/gcc/arm-none-eabi/13.3.1/../../../../arm-none-eabi/lib/thumb/v6-m/nofp/libg_nano.a(libc_a-findfp.o)
 .text.__fp_unlock
                0x00000000       0x18 /opt/toolchain/bin/../lib/gcc/arm-none-eabi/13.3.1/../../../../arm-none-eabi/lib/thumb/v6-m/nofp/libg_nano.a(libc_a-findfp.o)
 .text.global_stdio_init.part.0
                0x00000000       0x3c /opt/toolchain/bin/../lib/gcc/arm-none-eabi/13.3.1/../../../../arm-none-eabi/lib/thumb/v6-m/nofp/libg_nano.a(libc_a-findfp.o)
 .text.__sfp_lock_acquire
                0x00000000       0x10 /opt/toolchain/bin/../lib/gcc/arm-none-eabi/13.3.1/../../../../arm-none-eabi/lib/thumb/v6-m/nofp/libg_nano.a(libc_a-findfp.o)
 .text.__sfp_lock_release
                0x00000000       0x10 /opt/toolchain/bin/../lib/gcc/arm-none-eabi/13.3.1/../../../../arm-none-eabi/lib/thumb/v6-m/nofp/libg_nano.a(libc_a-findfp.o)
 .text.__sfp    0x00000000       0xa8 /opt/toolchain/bin/../lib/gcc/arm-none-eabi/13.3.1/../../../../arm-none-eabi/lib/thumb/v6-m/nofp/libg_nano.a(libc_a-findfp.o)
 .text.__sinit  0x00000000       0x30 /opt/toolchain/bin/../lib/gcc/arm-none-eabi/13.3.1/../../../../arm-none-eabi/lib/thumb/v6-m/nofp/libg_nano.a(libc_a-findfp.o)
 .text.__fp_lock_all
                0x00000000       0x1c /opt/toolchain/bin/../lib/gcc/arm-none-eabi/13.3.1/../../../../arm-none-eabi/lib/thumb/v6-m/nofp/libg_nano.a(libc_a-findfp.o)
 .text.__fp_unlock_all
                0x00000000       0x1c /opt/toolchain/bin/../lib/gcc/arm-none-eabi/13.3.1/../../../../arm-none-eabi/lib/thumb/v6-m/nofp/libg_nano.a(libc_a-findfp.o)
 .data.__sglue  0x00000000        0xc /opt/toolchain/bin/../lib/gcc/arm-none-eabi/13.3.1/../../../../arm-none-eabi/lib/thumb/v6-m/nofp/libg_nano.a(libc_a-findfp.o)
 .bss.__sf      0x00000000      0x138 /opt/toolchain/bin/../lib/gcc/arm-none-eabi/13.3.1/../../../../arm-none-eabi/lib/thumb/v6-m/nofp/libg_nano.a(libc_a-findfp.o)
 .bss.__stdio_exit_handler
                0x00000000        0x4 /opt/toolchain/bin/../lib/gcc/arm-none-eabi/13.3.1/../../../../arm-none-eabi/lib/thumb/v6-m/nofp/libg_nano.a(libc_a-findfp.o)
 .debug_frame   0x00000000      0x138 /opt/toolchain/bin/../lib/gcc/arm-none-eabi/13.3.1/../../../../arm-none-eabi/lib/thumb/v6-m/nofp/libg_nano.a(libc_a-findfp.o)
 .ARM.attributes
                0x00000000       0x2c /opt/toolchain/bin/../lib/gcc/arm-none-eabi/13.3.1/../../../../arm-none-eabi/lib/thumb/v6-m/nofp/libg_nano.a(libc_a-findfp.o)
 .text          0x00000000        0x0 /opt/toolchain/bin/../lib/gcc/arm-none-eabi/13.3.1/../../../../arm-none-eabi/lib/thumb/v6-m/nofp/libg_nano.a(libc_a-strncpy.o)
 .data          0x00000000        0x0 /opt/toolchain/bin/../lib/gcc/arm-none-eabi/13.3.1/../../../../arm-none-eabi/lib/thumb/v6-m/nofp/libg_nano.a(libc_a-strncpy.o)
 .bss           0x00000000        0x0 /opt/toolchain/bin/../lib/gcc/arm-none-eabi/13.3.1/../../../../arm-none-eabi/lib/thumb/v6-m/nofp/libg_nano.a(libc_a-strncpy.o)
 .text          0x00000000        0x0 /opt/toolchain/bin/../lib/gcc/arm-none-eabi/13.3.1/../../../../arm-none-eabi/lib/thumb/v6-m/nofp/libg_nano.a(libc_a-strnlen.o)
 .data          0x00000000        0x0 /opt/toolchain/bin/../lib/gcc/arm-none-eabi/13.3.1/../../../../arm-none-eabi/lib/thumb/v6-m/nofp/libg_nano.a(libc_a-strnlen.o)
 .bss           0x00000000        0x0 /opt/toolchain/bin/../lib/gcc/arm-none-eabi/13.3.1/../../../../arm-none-eabi/lib/thumb/v6-m/nofp/libg_nano.a(libc_a-strnlen.o)
 .text          0x00000000        0x0 /opt/toolchain/bin/../lib/gcc/arm-none-eabi/13.3.1/../../../../arm-none-eabi/lib/thumb/v6-m/nofp/libg_nano.a(libc_a-stdio.o)
 .data          0x00000000        0x0 /opt/toolchain/bin/../lib/gcc/arm-none-eabi/13.3.1/../../../../arm-none-eabi/lib/thumb/v6-m/nofp/libg_nano.a(libc_a-stdio.o)
 .bss           0x00000000        0x0 /opt/toolchain/bin/../lib/gcc/arm-none-eabi/13.3.1/../../../../arm-none-eabi/lib/thumb/v6-m/nofp/libg_nano.a(libc_a-stdio.o)
 .text.__sread  0x00000000       0x28 /opt/toolchain/bin/../lib/gcc/arm-none-eabi/13.3.1/../../../../arm-none-eabi/lib/thumb/v6-m/nofp/libg_nano.a(libc_a-stdio.o)
 .text.__seofread
                0x00000000        0x4 /opt/toolchain/bin/../lib/gcc/arm-none-eabi/13.3.1/../../../../arm-none-eabi/lib/thumb/v6-m/nofp/libg_nano.a(libc_a-stdio.o)
 .text.__swrite
                0x00000000       0x38 /opt/toolchain/bin/../lib/gcc/arm-none-eabi/13.3.1/../../../../arm-none-eabi/lib/thumb/v6-m/nofp/libg_nano.a(libc_a-stdio.o)
 .text.__sseek  0x00000000       0x2c /opt/toolchain/bin/../lib/gcc/arm-none-eabi/13.3.1/../../../../arm-none-eabi/lib/thumb/v6-m/nofp/libg_nano.a(libc_a-stdio.o)
 .text.__sclose
                0x00000000        0xc /opt/toolchain/bin/../lib/gcc/arm-none-eabi/13.3.1/../../../../arm-none-eabi/lib/thumb/v6-m/nofp/libg_nano.a(libc_a-stdio.o)
 .debug_frame   0x00000000       0x90 /opt/toolchain/bin/../lib/gcc/arm-none-eabi/13.3.1/../../../../arm-none-eabi/lib/thumb/v6-m/nofp/libg_nano.a(libc_a-stdio.o)
 .ARM.attributes
                0x00000000       0x2c /opt/toolchain/bin/../lib/gcc/arm-none-eabi/13.3.1/../../../../arm-none-eabi/lib/thumb/v6-m/nofp/libg_nano.a(libc_a-stdio.o)
 .text          0x00000000        0x0 /opt/toolchain/bin/../lib/gcc/arm-none-eabi/13.3.1/../../../../arm-none-eabi/lib/thumb/v6-m/nofp/libg_nano.a(libc_a-lseekr.o)
 .data          0x00000000        0x0 /opt/toolchain/bin/../lib/gcc/arm-none-eabi/13.3.1/../../../../arm-none-eabi/lib/thumb/v6-m/nofp/libg_nano.a(libc_a-lseekr.o)
 .bss           0x00000000        0x0 /opt/toolchain/bin/../lib/gcc/arm-none-eabi/13.3.1/../../../../arm-none-eabi/lib/thumb/v6-m/nofp/libg_nano.a(libc_a-lseekr.o)
 .text._lseek_r
                0x00000000       0x28 /opt/toolchain/bin/../lib/gcc/arm-none-eabi/13.3.1/../../../../arm-none-eabi/lib/thumb/v6-m/nofp/libg_nano.a(libc_a-lseekr.o)
 .debug_frame   0x00000000       0x2c /opt/toolchain/bin/../lib/gcc/arm-none-eabi/13.3.1/../../../../arm-none-eabi/lib/thumb/v6-m/nofp/libg_nano.a(libc_a-lseekr.o)
 .ARM.attributes
                0x00000000       0x2c /opt/toolchain/bin/../lib/gcc/arm-none-eabi/13.3.1/../../../../arm-none-eabi/lib/thumb/v6-m/nofp/libg_nano.a(libc_a-lseekr.o)
 .text          0x00000000        0x0 /opt/toolchain/bin/../lib/gcc/arm-none-eabi/13.3.1/../../../../arm-none-eabi/lib/thumb/v6-m/nofp/libg_nano.a(libc_a-readr.o)
 .data          0x00000000        0x0 /opt/toolchain/bin/../lib/gcc/arm-none-eabi/13.3.1/../../../../arm-none-eabi/lib/thumb/v6-m/nofp/libg_nano.a(libc_a-readr.o)
 .bss           0x00000000        0x0 /opt/toolchain/bin/../lib/gcc/arm-none-eabi/13.3.1/../../../../arm-none-eabi/lib/thumb/v6-m/nofp/libg_nano.a(libc_a-readr.o)
 .text._read_r  0x00000000       0x28 /opt/toolchain/bin/../lib/gcc/arm-none-eabi/13.3.1/../../../../arm-none-eabi/lib/thumb/v6-m/nofp/libg_nano.a(libc_a-readr.o)
 .debug_frame   0x00000000       0x2c /opt/toolchain/bin/../lib/gcc/arm-none-eabi/13.3.1/../../../../arm-none-eabi/lib/thumb/v6-m/nofp/libg_nano.a(libc_a-readr.o)
 .ARM.attributes
                0x00000000       0x2c /opt/toolchain/bin/../lib/gcc/arm-none-eabi/13.3.1/../../../../arm-none-eabi/lib/thumb/v6-m/nofp/libg_nano.a(libc_a-readr.o)
 .text          0x00000000        0x0 /opt/toolchain/bin/../lib/gcc/arm-none-eabi/13.3.1/../../../../arm-none-eabi/lib/thumb/v6-m/nofp/libg_nano.a(libc_a-fwalk.o)
 .data          0x00000000        0x0 /opt/toolchain/bin/../lib/gcc/arm-none-eabi/13.3.1/../../../../arm-none-eabi/lib/thumb/v6-m/nofp/libg_nano.a(libc_a-fwalk.o)
 .bss           0x00000000        0x0 /opt/toolchain/bin/../lib/gcc/arm-none-eabi/13.3.1/../../../../arm-none-eabi/lib/thumb/v6-m/nofp/libg_nano.a(libc_a-fwalk.o)
 .text._fwalk_sglue
                0x00000000       0x38 /opt/toolchain/bin/../lib/gcc/arm-none-eabi/13.3.1/../../../../arm-none-eabi/lib/thumb/v6-m/nofp/libg_nano.a(libc_a-fwalk.o)
 .debug_frame   0x00000000       0x34 /opt/toolchain/bin/../lib/gcc/arm-none-eabi/13.3.1/../../../../arm-none-eabi/lib/thumb/v6-m/nofp/libg_nano.a(libc_a-fwalk.o)
 .ARM.attributes
                0x00000000       0x2c /opt/toolchain/bin/../lib/gcc/arm-none-eabi/13.3.1/../../../../arm-none-eabi/lib/thumb/v6-m/nofp/libg_nano.a(libc_a-fwalk.o)
 .text          0x00000000        0x0 /opt/toolchain/bin/../lib/gcc/arm-none-eabi/13.3.1/../../../../arm-none-eabi/lib/thumb/v6-m/nofp/libg_nano.a(libc_a-memcmp.o)
 .data          0x00000000        0x0 /opt/toolchain/bin/../lib/gcc/arm-none-eabi/13.3.1/../../../../arm-none-eabi/lib/thumb/v6-m/nofp/libg_nano.a(libc_a-memcmp.o)
 .bss           0x00000000        0x0 /opt/toolchain/bin/../lib/gcc/arm-none-eabi/13.3.1/../../../../arm-none-eabi/lib/thumb/v6-m/nofp/libg_nano.a(libc_a-memcmp.o)
 .text          0x00000000        0x0 /opt/toolchain/bin/../lib/gcc/arm-none-eabi/13.3.1/../../../../arm-none-eabi/lib/thumb/v6-m/nofp/libg_nano.a(libc_a-writer.o)
 .data          0x00000000        0x0 /opt/toolchain/bin/../lib/gcc/arm-none-eabi/13.3.1/../../../../arm-none-eabi/lib/thumb/v6-m/nofp/libg_nano.a(libc_a-writer.o)
 .bss           0x00000000        0x0 /opt/toolchain/bin/../lib/gcc/arm-none-eabi/13.3.1/../../../../arm-none-eabi/lib/thumb/v6-m/nofp/libg_nano.a(libc_a-writer.o)
 .text._write_r
                0x00000000       0x28 /opt/toolchain/bin/../lib/gcc/arm-none-eabi/13.3.1/../../../../arm-none-eabi/lib/thumb/v6-m/nofp/libg_nano.a(libc_a-writer.o)
 .debug_frame   0x00000000       0x2c /opt/toolchain/bin/../lib/gcc/arm-none-eabi/13.3.1/../../../../arm-none-eabi/lib/thumb/v6-m/nofp/libg_nano.a(libc_a-writer.o)
 .ARM.attributes
                0x00000000       0x2c /opt/toolchain/bin/../lib/gcc/arm-none-eabi/13.3.1/../../../../arm-none-eabi/lib/thumb/v6-m/nofp/libg_nano.a(libc_a-writer.o)
 .text          0x00000000        0x0 /opt/toolchain/bin/../lib/gcc/arm-none-eabi/13.3.1/../../../../arm-none-eabi/lib/thumb/v6-m/nofp/libg_nano.a(libc_a-lock.o)
 .data          0x00000000        0x0 /opt/toolchain/bin/../lib/gcc/arm-none-eabi/13.3.1/../../../../arm-none-eabi/lib/thumb/v6-m/nofp/libg_nano.a(libc_a-lock.o)
 .bss           0x00000000        0x0 /opt/toolchain/bin/../lib/gcc/arm-none-eabi/13.3.1/../../../../arm-none-eabi/lib/thumb/v6-m/nofp/libg_nano.a(libc_a-lock.o)
 .text.__retarget_lock_init
                0x00000000        0x2 /opt/toolchain/bin/../lib/gcc/arm-none-eabi/13.3.1/../../../../arm-none-eabi/lib/thumb/v6-m/nofp/libg_nano.a(libc_a-lock.o)
 .text.__retarget_lock_init_recursive
                0x00000000        0x2 /opt/toolchain/bin/../lib/gcc/arm-none-eabi/13.3.1/../../../../arm-none-eabi/lib/thumb/v6-m/nofp/libg_nano.a(libc_a-lock.o)
 .text.__retarget_lock_close
                0x00000000        0x2 /opt/toolchain/bin/../lib/gcc/arm-none-eabi/13.3.1/../../../../arm-none-eabi/lib/thumb/v6-m/nofp/libg_nano.a(libc_a-lock.o)
 .text.__retarget_lock_close_recursive
                0x00000000        0x2 /opt/toolchain/bin/../lib/gcc/arm-none-eabi/13.3.1/../../../../arm-none-eabi/lib/thumb/v6-m/nofp/libg_nano.a(libc_a-lock.o)
 .text.__retarget_lock_acquire
                0x00000000        0x2 /opt/toolchain/bin/../lib/gcc/arm-none-eabi/13.3.1/../../../../arm-none-eabi/lib/thumb/v6-m/nofp/libg_nano.a(libc_a-lock.o)
 .text.__retarget_lock_acquire_recursive
                0x00000000        0x2 /opt/toolchain/bin/../lib/gcc/arm-none-eabi/13.3.1/../../../../arm-none-eabi/lib/thumb/v6-m/nofp/libg_nano.a(libc_a-lock.o)
 .text.__retarget_lock_try_acquire
                0x00000000        0x4 /opt/toolchain/bin/../lib/gcc/arm-none-eabi/13.3.1/../../../../arm-none-eabi/lib/thumb/v6-m/nofp/libg_nano.a(libc_a-lock.o)
 .text.__retarget_lock_try_acquire_recursive
                0x00000000        0x4 /opt/toolchain/bin/../lib/gcc/arm-none-eabi/13.3.1/../../../../arm-none-eabi/lib/thumb/v6-m/nofp/libg_nano.a(libc_a-lock.o)
 .text.__retarget_lock_release
                0x00000000        0x2 /opt/toolchain/bin/../lib/gcc/arm-none-eabi/13.3.1/../../../../arm-none-eabi/lib/thumb/v6-m/nofp/libg_nano.a(libc_a-lock.o)
 .text.__retarget_lock_release_recursive
                0x00000000        0x2 /opt/toolchain/bin/../lib/gcc/arm-none-eabi/13.3.1/../../../../arm-none-eabi/lib/thumb/v6-m/nofp/libg_nano.a(libc_a-lock.o)
 .bss.__lock___arc4random_mutex
                0x00000000        0x1 /opt/toolchain/bin/../lib/gcc/arm-none-eabi/13.3.1/../../../../arm-none-eabi/lib/thumb/v6-m/nofp/libg_nano.a(libc_a-lock.o)
 .bss.__lock___dd_hash_mutex
                0x00000000        0x1 /opt/toolchain/bin/../lib/gcc/arm-none-eabi/13.3.1/../../../../arm-none-eabi/lib/thumb/v6-m/nofp/libg_nano.a(libc_a-lock.o)
 .bss.__lock___tz_mutex
                0x00000000        0x1 /opt/toolchain/bin/../lib/gcc/arm-none-eabi/13.3.1/../../../../arm-none-eabi/lib/thumb/v6-m/nofp/libg_nano.a(libc_a-lock.o)
 .bss.__lock___env_recursive_mutex
                0x00000000        0x1 /opt/toolchain/bin/../lib/gcc/arm-none-eabi/13.3.1/../../../../arm-none-eabi/lib/thumb/v6-m/nofp/libg_nano.a(libc_a-lock.o)
 .bss.__lock___malloc_recursive_mutex
                0x00000000        0x1 /opt/toolchain/bin/../lib/gcc/arm-none-eabi/13.3.1/../../../../arm-none-eabi/lib/thumb/v6-m/nofp/libg_nano.a(libc_a-lock.o)
 .bss.__lock___at_quick_exit_mutex
                0x00000000        0x1 /opt/toolchain/bin/../lib/gcc/arm-none-eabi/13.3.1/../../../../arm-none-eabi/lib/thumb/v6-m/nofp/libg_nano.a(libc_a-lock.o)
 .bss.__lock___atexit_recursive_mutex
                0x00000000        0x1 /opt/toolchain/bin/../lib/gcc/arm-none-eabi/13.3.1/../../../../arm-none-eabi/lib/thumb/v6-m/nofp/libg_nano.a(libc_a-lock.o)
 .bss.__lock___sfp_recursive_mutex
                0x00000000        0x1 /opt/toolchain/bin/../lib/gcc/arm-none-eabi/13.3.1/../../../../arm-none-eabi/lib/thumb/v6-m/nofp/libg_nano.a(libc_a-lock.o)
 .debug_frame   0x00000000       0xb0 /opt/toolchain/bin/../lib/gcc/arm-none-eabi/13.3.1/../../../../arm-none-eabi/lib/thumb/v6-m/nofp/libg_nano.a(libc_a-lock.o)
 .ARM.attributes
                0x00000000       0x2c /opt/toolchain/bin/../lib/gcc/arm-none-eabi/13.3.1/../../../../arm-none-eabi/lib/thumb/v6-m/nofp/libg_nano.a(libc_a-lock.o)
 .text          0x00000000        0x0 /opt/toolchain/bin/../lib/gcc/arm-none-eabi/13.3.1/../../../../arm-none-eabi/lib/thumb/v6-m/nofp/libg_nano.a(libc_a-fflush.o)
 .data          0x00000000        0x0 /opt/toolchain/bin/../lib/gcc/arm-none-eabi/13.3.1/../../../../arm-none-eabi/lib/thumb/v6-m/nofp/libg_nano.a(libc_a-fflush.o)
 .bss           0x00000000        0x0 /opt/toolchain/bin/../lib/gcc/arm-none-eabi/13.3.1/../../../../arm-none-eabi/lib/thumb/v6-m/nofp/libg_nano.a(libc_a-fflush.o)
 .text.__sflush_r
                0x00000000      0x10c /opt/toolchain/bin/../lib/gcc/arm-none-eabi/13.3.1/../../../../arm-none-eabi/lib/thumb/v6-m/nofp/libg_nano.a(libc_a-fflush.o)
 .text._fflush_r
                0x00000000       0x56 /opt/toolchain/bin/../lib/gcc/arm-none-eabi/13.3.1/../../../../arm-none-eabi/lib/thumb/v6-m/nofp/libg_nano.a(libc_a-fflush.o)
 .text.fflush   0x00000000       0x30 /opt/toolchain/bin/../lib/gcc/arm-none-eabi/13.3.1/../../../../arm-none-eabi/lib/thumb/v6-m/nofp/libg_nano.a(libc_a-fflush.o)
 .debug_frame   0x00000000       0x68 /opt/toolchain/bin/../lib/gcc/arm-none-eabi/13.3.1/../../../../arm-none-eabi/lib/thumb/v6-m/nofp/libg_nano.a(libc_a-fflush.o)
 .ARM.attributes
                0x00000000       0x2c /opt/toolchain/bin/../lib/gcc/arm-none-eabi/13.3.1/../../../../arm-none-eabi/lib/thumb/v6-m/nofp/libg_nano.a(libc_a-fflush.o)
 .text          0x00000000        0x0 /opt/toolchain/bin/../lib/gcc/arm-none-eabi/13.3.1/../../../../arm-none-eabi/lib/thumb/v6-m/nofp/libg_nano.a(libc_a-mallocr.o)
 .data          0x00000000        0x0 /opt/toolchain/bin/../lib/gcc/arm-none-eabi/13.3.1/../../../../arm-none-eabi/lib/thumb/v6-m/nofp/libg_nano.a(libc_a-mallocr.o)
 .bss           0x00000000        0x0 /opt/toolchain/bin/../lib/gcc/arm-none-eabi/13.3.1/../../../../arm-none-eabi/lib/thumb/v6-m/nofp/libg_nano.a(libc_a-mallocr.o)
 .text.sbrk_aligned
                0x00000000       0x44 /opt/toolchain/bin/../lib/gcc/arm-none-eabi/13.3.1/../../../../arm-none-eabi/lib/thumb/v6-m/nofp/libg_nano.a(libc_a-mallocr.o)
 .text._malloc_r
                0x00000000      0x100 /opt/toolchain/bin/../lib/gcc/arm-none-eabi/13.3.1/../../../../arm-none-eabi/lib/thumb/v6-m/nofp/libg_nano.a(libc_a-mallocr.o)
 .bss.__malloc_sbrk_start
                0x00000000        0x4 /opt/toolchain/bin/../lib/gcc/arm-none-eabi/13.3.1/../../../../arm-none-eabi/lib/thumb/v6-m/nofp/libg_nano.a(libc_a-mallocr.o)
 .bss.__malloc_free_list
                0x00000000        0x4 /opt/toolchain/bin/../lib/gcc/arm-none-eabi/13.3.1/../../../../arm-none-eabi/lib/thumb/v6-m/nofp/libg_nano.a(libc_a-mallocr.o)
 .debug_frame   0x00000000       0x50 /opt/toolchain/bin/../lib/gcc/arm-none-eabi/13.3.1/../../../../arm-none-eabi/lib/thumb/v6-m/nofp/libg_nano.a(libc_a-mallocr.o)
 .ARM.attributes
                0x00000000       0x2c /opt/toolchain/bin/../lib/gcc/arm-none-eabi/13.3.1/../../../../arm-none-eabi/lib/thumb/v6-m/nofp/libg_nano.a(libc_a-mallocr.o)
 .text          0x00000000        0x0 /opt/toolchain/bin/../lib/gcc/arm-none-eabi/13.3.1/../../../../arm-none-eabi/lib/thumb/v6-m/nofp/libg_nano.a(libc_a-closer.o)
 .data          0x00000000        0x0 /opt/toolchain/bin/../lib/gcc/arm-none-eabi/13.3.1/../../../../arm-none-eabi/lib/thumb/v6-m/nofp/libg_nano.a(libc_a-closer.o)
 .bss           0x00000000        0x0 /opt/toolchain/bin/../lib/gcc/arm-none-eabi/13.3.1/../../../../arm-none-eabi/lib/thumb/v6-m/nofp/libg_nano.a(libc_a-closer.o)
 .text._close_r
                0x00000000       0x24 /opt/toolchain/bin/../lib/gcc/arm-none-eabi/13.3.1/../../../../arm-none-eabi/lib/thumb/v6-m/nofp/libg_nano.a(libc_a-closer.o)
 .debug_frame   0x00000000       0x2c /opt/toolchain/bin/../lib/gcc/arm-none-eabi/13.3.1/../../../../arm-none-eabi/lib/thumb/v6-m/nofp/libg_nano.a(libc_a-closer.o)
 .ARM.attributes
                0x00000000       0x2c /opt/toolchain/bin/../lib/gcc/arm-none-eabi/13.3.1/../../../../arm-none-eabi/lib/thumb/v6-m/nofp/libg_nano.a(libc_a-closer.o)
 .text          0x00000000        0x0 /opt/toolchain/bin/../lib/gcc/arm-none-eabi/13.3.1/../../../../arm-none-eabi/lib/thumb/v6-m/nofp/libg_nano.a(libc_a-reent.o)
 .data          0x00000000        0x0 /opt/toolchain/bin/../lib/gcc/arm-none-eabi/13.3.1/../../../../arm-none-eabi/lib/thumb/v6-m/nofp/libg_nano.a(libc_a-reent.o)
 .bss           0x00000000        0x0 /opt/toolchain/bin/../lib/gcc/arm-none-eabi/13.3.1/../../../../arm-none-eabi/lib/thumb/v6-m/nofp/libg_nano.a(libc_a-reent.o)
 .text._reclaim_reent
                0x00000000       0xd4 /opt/toolchain/bin/../lib/gcc/arm-none-eabi/13.3.1/../../../../arm-none-eabi/lib/thumb/v6-m/nofp/libg_nano.a(libc_a-reent.o)
 .bss.errno     0x00000000        0x4 /opt/toolchain/bin/../lib/gcc/arm-none-eabi/13.3.1/../../../../arm-none-eabi/lib/thumb/v6-m/nofp/libg_nano.a(libc_a-reent.o)
 .debug_frame   0x00000000       0x2c /opt/toolchain/bin/../lib/gcc/arm-none-eabi/13.3.1/../../../../arm-none-eabi/lib/thumb/v6-m/nofp/libg_nano.a(libc_a-reent.o)
 .ARM.attributes
                0x00000000       0x2c /opt/toolchain/bin/../lib/gcc/arm-none-eabi/13.3.1/../../../../arm-none-eabi/lib/thumb/v6-m/nofp/libg_nano.a(libc_a-reent.o)
 .text          0x00000000        0x0 /opt/toolchain/bin/../lib/gcc/arm-none-eabi/13.3.1/../../../../arm-none-eabi/lib/thumb/v6-m/nofp/libg_nano.a(libc_a-impure.o)
 .data          0x00000000        0x0 /opt/toolchain/bin/../lib/gcc/arm-none-eabi/13.3.1/../../../../arm-none-eabi/lib/thumb/v6-m/nofp/libg_nano.a(libc_a-impure.o)
 .bss           0x00000000        0x0 /opt/toolchain/bin/../lib/gcc/arm-none-eabi/13.3.1/../../../../arm-none-eabi/lib/thumb/v6-m/nofp/libg_nano.a(libc_a-impure.o)
 .data._impure_ptr
                0x00000000        0x4 /opt/toolchain/bin/../lib/gcc/arm-none-eabi/13.3.1/../../../../arm-none-eabi/lib/thumb/v6-m/nofp/libg_nano.a(libc_a-impure.o)
 .data._impure_data
                0x00000000       0x4c /opt/toolchain/bin/../lib/gcc/arm-none-eabi/13.3.1/../../../../arm-none-eabi/lib/thumb/v6-m/nofp/libg_nano.a(libc_a-impure.o)
 .ARM.attributes
                0x00000000       0x2c /opt/toolchain/bin/../lib/gcc/arm-none-eabi/13.3.1/../../../../arm-none-eabi/lib/thumb/v6-m/nofp/libg_nano.a(libc_a-impure.o)
 .text          0x00000000        0x0 /opt/toolchain/bin/../lib/gcc/arm-none-eabi/13.3.1/../../../../arm-none-eabi/lib/thumb/v6-m/nofp/libg_nano.a(libc_a-mlock.o)
 .data          0x00000000        0x0 /opt/toolchain/bin/../lib/gcc/arm-none-eabi/13.3.1/../../../../arm-none-eabi/lib/thumb/v6-m/nofp/libg_nano.a(libc_a-mlock.o)
 .bss           0x00000000        0x0 /opt/toolchain/bin/../lib/gcc/arm-none-eabi/13.3.1/../../../../arm-none-eabi/lib/thumb/v6-m/nofp/libg_nano.a(libc_a-mlock.o)
 .text.__malloc_lock
                0x00000000       0x10 /opt/toolchain/bin/../lib/gcc/arm-none-eabi/13.3.1/../../../../arm-none-eabi/lib/thumb/v6-m/nofp/libg_nano.a(libc_a-mlock.o)
 .text.__malloc_unlock
                0x00000000       0x10 /opt/toolchain/bin/../lib/gcc/arm-none-eabi/13.3.1/../../../../arm-none-eabi/lib/thumb/v6-m/nofp/libg_nano.a(libc_a-mlock.o)
 .debug_frame   0x00000000       0x40 /opt/toolchain/bin/../lib/gcc/arm-none-eabi/13.3.1/../../../../arm-none-eabi/lib/thumb/v6-m/nofp/libg_nano.a(libc_a-mlock.o)
 .ARM.attributes
                0x00000000       0x2c /opt/toolchain/bin/../lib/gcc/arm-none-eabi/13.3.1/../../../../arm-none-eabi/lib/thumb/v6-m/nofp/libg_nano.a(libc_a-mlock.o)
 .text          0x00000000        0x0 /opt/toolchain/bin/../lib/gcc/arm-none-eabi/13.3.1/../../../../arm-none-eabi/lib/thumb/v6-m/nofp/libg_nano.a(libc_a-sbrkr.o)
 .data          0x00000000        0x0 /opt/toolchain/bin/../lib/gcc/arm-none-eabi/13.3.1/../../../../arm-none-eabi/lib/thumb/v6-m/nofp/libg_nano.a(libc_a-sbrkr.o)
 .bss           0x00000000        0x0 /opt/toolchain/bin/../lib/gcc/arm-none-eabi/13.3.1/../../../../arm-none-eabi/lib/thumb/v6-m/nofp/libg_nano.a(libc_a-sbrkr.o)
 .text._sbrk_r  0x00000000       0x24 /opt/toolchain/bin/../lib/gcc/arm-none-eabi/13.3.1/../../../../arm-none-eabi/lib/thumb/v6-m/nofp/libg_nano.a(libc_a-sbrkr.o)
 .debug_frame   0x00000000       0x2c /opt/toolchain/bin/../lib/gcc/arm-none-eabi/13.3.1/../../../../arm-none-eabi/lib/thumb/v6-m/nofp/libg_nano.a(libc_a-sbrkr.o)
 .ARM.attributes
                0x00000000       0x2c /opt/toolchain/bin/../lib/gcc/arm-none-eabi/13.3.1/../../../../arm-none-eabi/lib/thumb/v6-m/nofp/libg_nano.a(libc_a-sbrkr.o)
 .text          0x00000000        0x0 /opt/toolchain/bin/../lib/gcc/arm-none-eabi/13.3.1/../../../../arm-none-eabi/lib/thumb/v6-m/nofp/libg_nano.a(libc_a-freer.o)
 .data          0x00000000        0x0 /opt/toolchain/bin/../lib/gcc/arm-none-eabi/13.3.1/../../../../arm-none-eabi/lib/thumb/v6-m/nofp/libg_nano.a(libc_a-freer.o)
 .bss           0x00000000        0x0 /opt/toolchain/bin/../lib/gcc/arm-none-eabi/13.3.1/../../../../arm-none-eabi/lib/thumb/v6-m/nofp/libg_nano.a(libc_a-freer.o)
 .text._free_r  0x00000000       0x94 /opt/toolchain/bin/../lib/gcc/arm-none-eabi/13.3.1/../../../../arm-none-eabi/lib/thumb/v6-m/nofp/libg_nano.a(libc_a-freer.o)
 .debug_frame   0x00000000       0x2c /opt/toolchain/bin/../lib/gcc/arm-none-eabi/13.3.1/../../../../arm-none-eabi/lib/thumb/v6-m/nofp/libg_nano.a(libc_a-freer.o)
 .ARM.attributes
                0x00000000       0x2c /opt/toolchain/bin/../lib/gcc/arm-none-eabi/13.3.1/../../../../arm-none-eabi/lib/thumb/v6-m/nofp/libg_nano.a(libc_a-freer.o)
 .text          0x00000000        0x0 /opt/toolchain/bin/../lib/gcc/arm-none-eabi/13.3.1/thumb/v6-m/nofp/crtend.o
 .data          0x00000000        0x0 /opt/toolchain/bin/../lib/gcc/arm-none-eabi/13.3.1/thumb/v6-m/nofp/crtend.o
 .bss           0x00000000        0x0 /opt/toolchain/bin/../lib/gcc/arm-none-eabi/13.3.1/thumb/v6-m/nofp/crtend.o
 .rodata.all_implied_fbits
                0x00000000       0x24 /opt/toolchain/bin/../lib/gcc/arm-none-eabi/13.3.1/thumb/v6-m/nofp/crtend.o
 .eh_frame      0x00000000        0x4 /opt/toolchain/bin/../lib/gcc/arm-none-eabi/13.3.1/thumb/v6-m/nofp/crtend.o
 .text          0x00000000        0x0 /opt/toolchain/bin/../lib/gcc/arm-none-eabi/13.3.1/thumb/v6-m/nofp/crtn.o
 .data          0x00000000        0x0 /opt/toolchain/bin/../lib/gcc/arm-none-eabi/13.3.1/thumb/v6-m/nofp/crtn.o
 .bss           0x00000000        0x0 /opt/toolchain/bin/../lib/gcc/arm-none-eabi/13.3.1/thumb/v6-m/nofp/crtn.o

Memory Configuration

Name             Origin             Length             Attributes
RAM              0x20000000         0x00004000         xrw
FLASH            0x08002800         0x0001d800         xr
*default*        0x00000000         0xffffffff

Linker script and memory map

LOAD /opt/toolchain/bin/../lib/gcc/arm-none-eabi/13.3.1/thumb/v6-m/nofp/crti.o
LOAD /opt/toolchain/bin/../lib/gcc/arm-none-eabi/13.3.1/thumb/v6-m/nofp/crtbegin.o
LOAD /opt/toolchain/bin/../lib/gcc/arm-none-eabi/13.3.1/../../../../arm-none-eabi/lib/thumb/v6-m/nofp/crt0.o
LOAD CMakeFiles/n7six.ApeX-k1.v7.6.5br1.dir/Core/Src/main.c.obj
LOAD CMakeFiles/n7six.ApeX-k1.v7.6.5br1.dir/Core/Src/py32f071_it.c.obj
LOAD CMakeFiles/n7six.ApeX-k1.v7.6.5br1.dir/Core/Src/system_py32f071.c.obj
LOAD CMakeFiles/n7six.ApeX-k1.v7.6.5br1.dir/Core/startup_py32f071xx.s.obj
LOAD CMakeFiles/n7six.ApeX-k1.v7.6.5br1.dir/Drivers/PY32F071_HAL_Driver/Src/py32f071_ll_rcc.c.obj
LOAD CMakeFiles/n7six.ApeX-k1.v7.6.5br1.dir/Drivers/PY32F071_HAL_Driver/Src/py32f071_ll_pwr.c.obj
LOAD CMakeFiles/n7six.ApeX-k1.v7.6.5br1.dir/Drivers/PY32F071_HAL_Driver/Src/py32f071_ll_dma.c.obj
LOAD CMakeFiles/n7six.ApeX-k1.v7.6.5br1.dir/Drivers/PY32F071_HAL_Driver/Src/py32f071_ll_gpio.c.obj
LOAD CMakeFiles/n7six.ApeX-k1.v7.6.5br1.dir/Drivers/PY32F071_HAL_Driver/Src/py32f071_ll_utils.c.obj
LOAD CMakeFiles/n7six.ApeX-k1.v7.6.5br1.dir/Drivers/PY32F071_HAL_Driver/Src/py32f071_ll_adc.c.obj
LOAD CMakeFiles/n7six.ApeX-k1.v7.6.5br1.dir/Drivers/PY32F071_HAL_Driver/Src/py32f071_ll_comp.c.obj
LOAD CMakeFiles/n7six.ApeX-k1.v7.6.5br1.dir/Drivers/PY32F071_HAL_Driver/Src/py32f071_ll_crc.c.obj
LOAD CMakeFiles/n7six.ApeX-k1.v7.6.5br1.dir/Drivers/PY32F071_HAL_Driver/Src/py32f071_ll_dac.c.obj
LOAD CMakeFiles/n7six.ApeX-k1.v7.6.5br1.dir/Drivers/PY32F071_HAL_Driver/Src/py32f071_ll_exti.c.obj
LOAD CMakeFiles/n7six.ApeX-k1.v7.6.5br1.dir/Drivers/PY32F071_HAL_Driver/Src/py32f071_ll_i2c.c.obj
LOAD CMakeFiles/n7six.ApeX-k1.v7.6.5br1.dir/Drivers/PY32F071_HAL_Driver/Src/py32f071_ll_rtc.c.obj
LOAD CMakeFiles/n7six.ApeX-k1.v7.6.5br1.dir/Drivers/PY32F071_HAL_Driver/Src/py32f071_ll_spi.c.obj
LOAD CMakeFiles/n7six.ApeX-k1.v7.6.5br1.dir/Drivers/PY32F071_HAL_Driver/Src/py32f071_ll_tim.c.obj
LOAD CMakeFiles/n7six.ApeX-k1.v7.6.5br1.dir/Drivers/PY32F071_HAL_Driver/Src/py32f071_ll_lptim.c.obj
LOAD CMakeFiles/n7six.ApeX-k1.v7.6.5br1.dir/Drivers/PY32F071_HAL_Driver/Src/py32f071_ll_usart.c.obj
LOAD CMakeFiles/n7six.ApeX-k1.v7.6.5br1.dir/App/driver/backlight.c.obj
LOAD CMakeFiles/n7six.ApeX-k1.v7.6.5br1.dir/App/driver/bk4829.c.obj
LOAD CMakeFiles/n7six.ApeX-k1.v7.6.5br1.dir/App/driver/py25q16.c.obj
LOAD CMakeFiles/n7six.ApeX-k1.v7.6.5br1.dir/App/driver/gpio.c.obj
LOAD CMakeFiles/n7six.ApeX-k1.v7.6.5br1.dir/App/driver/i2c.c.obj
LOAD CMakeFiles/n7six.ApeX-k1.v7.6.5br1.dir/App/driver/keyboard.c.obj
LOAD CMakeFiles/n7six.ApeX-k1.v7.6.5br1.dir/App/driver/st7565.c.obj
LOAD CMakeFiles/n7six.ApeX-k1.v7.6.5br1.dir/App/driver/system.c.obj
LOAD CMakeFiles/n7six.ApeX-k1.v7.6.5br1.dir/App/driver/systick.c.obj
LOAD CMakeFiles/n7six.ApeX-k1.v7.6.5br1.dir/App/app/action.c.obj
LOAD CMakeFiles/n7six.ApeX-k1.v7.6.5br1.dir/App/app/app.c.obj
LOAD CMakeFiles/n7six.ApeX-k1.v7.6.5br1.dir/App/app/chFrScanner.c.obj
LOAD CMakeFiles/n7six.ApeX-k1.v7.6.5br1.dir/App/app/common.c.obj
LOAD CMakeFiles/n7six.ApeX-k1.v7.6.5br1.dir/App/app/dtmf.c.obj
LOAD CMakeFiles/n7six.ApeX-k1.v7.6.5br1.dir/App/app/events.c.obj
LOAD CMakeFiles/n7six.ApeX-k1.v7.6.5br1.dir/App/app/events_handlers.c.obj
LOAD CMakeFiles/n7six.ApeX-k1.v7.6.5br1.dir/App/app/generic.c.obj
LOAD CMakeFiles/n7six.ApeX-k1.v7.6.5br1.dir/App/app/main.c.obj
LOAD CMakeFiles/n7six.ApeX-k1.v7.6.5br1.dir/App/app/menu.c.obj
LOAD CMakeFiles/n7six.ApeX-k1.v7.6.5br1.dir/App/app/scanner.c.obj
LOAD CMakeFiles/n7six.ApeX-k1.v7.6.5br1.dir/App/audio.c.obj
LOAD CMakeFiles/n7six.ApeX-k1.v7.6.5br1.dir/App/bitmaps.c.obj
LOAD CMakeFiles/n7six.ApeX-k1.v7.6.5br1.dir/App/board.c.obj
LOAD CMakeFiles/n7six.ApeX-k1.v7.6.5br1.dir/App/dcs.c.obj
LOAD CMakeFiles/n7six.ApeX-k1.v7.6.5br1.dir/App/font.c.obj
LOAD CMakeFiles/n7six.ApeX-k1.v7.6.5br1.dir/App/frequencies.c.obj
LOAD CMakeFiles/n7six.ApeX-k1.v7.6.5br1.dir/App/functions.c.obj
LOAD CMakeFiles/n7six.ApeX-k1.v7.6.5br1.dir/App/helper/battery.c.obj
LOAD CMakeFiles/n7six.ApeX-k1.v7.6.5br1.dir/App/helper/boot.c.obj
LOAD CMakeFiles/n7six.ApeX-k1.v7.6.5br1.dir/App/misc.c.obj
LOAD CMakeFiles/n7six.ApeX-k1.v7.6.5br1.dir/App/radio.c.obj
LOAD CMakeFiles/n7six.ApeX-k1.v7.6.5br1.dir/App/scheduler.c.obj
LOAD CMakeFiles/n7six.ApeX-k1.v7.6.5br1.dir/App/settings.c.obj
LOAD CMakeFiles/n7six.ApeX-k1.v7.6.5br1.dir/App/ui/battery.c.obj
LOAD CMakeFiles/n7six.ApeX-k1.v7.6.5br1.dir/App/ui/helper.c.obj
LOAD CMakeFiles/n7six.ApeX-k1.v7.6.5br1.dir/App/ui/inputbox.c.obj
LOAD CMakeFiles/n7six.ApeX-k1.v7.6.5br1.dir/App/ui/main.c.obj
LOAD CMakeFiles/n7six.ApeX-k1.v7.6.5br1.dir/App/ui/menu.c.obj
LOAD CMakeFiles/n7six.ApeX-k1.v7.6.5br1.dir/App/ui/scanner.c.obj
LOAD CMakeFiles/n7six.ApeX-k1.v7.6.5br1.dir/App/ui/status.c.obj
LOAD CMakeFiles/n7six.ApeX-k1.v7.6.5br1.dir/App/ui/ui.c.obj
LOAD CMakeFiles/n7six.ApeX-k1.v7.6.5br1.dir/App/ui/welcome.c.obj
LOAD CMakeFiles/n7six.ApeX-k1.v7.6.5br1.dir/App/version.c.obj
LOAD CMakeFiles/n7six.ApeX-k1.v7.6.5br1.dir/App/main.c.obj
LOAD CMakeFiles/n7six.ApeX-k1.v7.6.5br1.dir/App/external/printf/printf.c.obj
LOAD CMakeFiles/n7six.ApeX-k1.v7.6.5br1.dir/App/driver/crc.c.obj
LOAD CMakeFiles/n7six.ApeX-k1.v7.6.5br1.dir/App/driver/eeprom_compat.c.obj
LOAD CMakeFiles/n7six.ApeX-k1.v7.6.5br1.dir/App/driver/uart.c.obj
LOAD CMakeFiles/n7six.ApeX-k1.v7.6.5br1.dir/App/app/uart.c.obj
LOAD CMakeFiles/n7six.ApeX-k1.v7.6.5br1.dir/App/driver/vcp.c.obj
LOAD CMakeFiles/n7six.ApeX-k1.v7.6.5br1.dir/App/usb/usbd_cdc_if.c.obj
LOAD CMakeFiles/n7six.ApeX-k1.v7.6.5br1.dir/App/driver/bk1080.c.obj
LOAD CMakeFiles/n7six.ApeX-k1.v7.6.5br1.dir/App/app/fm.c.obj
LOAD CMakeFiles/n7six.ApeX-k1.v7.6.5br1.dir/App/ui/fmradio.c.obj
LOAD CMakeFiles/n7six.ApeX-k1.v7.6.5br1.dir/App/app/aircopy.c.obj
LOAD CMakeFiles/n7six.ApeX-k1.v7.6.5br1.dir/App/ui/aircopy.c.obj
LOAD CMakeFiles/n7six.ApeX-k1.v7.6.5br1.dir/App/app/flashlight.c.obj
LOAD CMakeFiles/n7six.ApeX-k1.v7.6.5br1.dir/App/app/spectrum.c.obj
LOAD CMakeFiles/n7six.ApeX-k1.v7.6.5br1.dir/App/app/breakout.c.obj
LOAD CMakeFiles/n7six.ApeX-k1.v7.6.5br1.dir/App/screenshot.c.obj
LOAD CMakeFiles/n7six.ApeX-k1.v7.6.5br1.dir/Middlewares/CherryUSB/core/usbd_core.c.obj
LOAD CMakeFiles/n7six.ApeX-k1.v7.6.5br1.dir/Middlewares/CherryUSB/port/usb_dc_py32.c.obj
LOAD CMakeFiles/n7six.ApeX-k1.v7.6.5br1.dir/Middlewares/CherryUSB/class/cdc/usbd_cdc.c.obj
LOAD /opt/toolchain/bin/../lib/gcc/arm-none-eabi/13.3.1/../../../../arm-none-eabi/lib/thumb/v6-m/nofp/libm.a
START GROUP
LOAD /opt/toolchain/bin/../lib/gcc/arm-none-eabi/13.3.1/thumb/v6-m/nofp/libgcc.a
LOAD /opt/toolchain/bin/../lib/gcc/arm-none-eabi/13.3.1/../../../../arm-none-eabi/lib/thumb/v6-m/nofp/libg_nano.a
LOAD /opt/toolchain/bin/../lib/gcc/arm-none-eabi/13.3.1/../../../../arm-none-eabi/lib/thumb/v6-m/nofp/libc_nano.a
END GROUP
START GROUP
LOAD /opt/toolchain/bin/../lib/gcc/arm-none-eabi/13.3.1/thumb/v6-m/nofp/libgcc.a
LOAD /opt/toolchain/bin/../lib/gcc/arm-none-eabi/13.3.1/../../../../arm-none-eabi/lib/thumb/v6-m/nofp/libc_nano.a
END GROUP
LOAD /opt/toolchain/bin/../lib/gcc/arm-none-eabi/13.3.1/thumb/v6-m/nofp/crtend.o
LOAD /opt/toolchain/bin/../lib/gcc/arm-none-eabi/13.3.1/thumb/v6-m/nofp/crtn.o
                0x20004000                        _estack = (ORIGIN (RAM) + LENGTH (RAM))
                0x00000200                        _Min_Heap_Size = 0x200
                0x00000400                        _Min_Stack_Size = 0x400

.isr_vector     0x08002800       0xc0
                0x08002800                        . = ALIGN (0x4)
 *(.isr_vector)
 .isr_vector    0x08002800       0xc0 CMakeFiles/n7six.ApeX-k1.v7.6.5br1.dir/Core/startup_py32f071xx.s.obj
                0x08002800                g_pfnVectors
                0x080028c0                        . = ALIGN (0x4)

.text           0x080028c0    0x136bc
                0x080028c0                        . = ALIGN (0x4)
 *(.text)
 .text          0x080028c0       0x14 /opt/toolchain/bin/../lib/gcc/arm-none-eabi/13.3.1/thumb/v6-m/nofp/libgcc.a(_thumb1_case_sqi.o)
                0x080028c0                __gnu_thumb1_case_sqi
 .text          0x080028d4       0x14 /opt/toolchain/bin/../lib/gcc/arm-none-eabi/13.3.1/thumb/v6-m/nofp/libgcc.a(_thumb1_case_uqi.o)
                0x080028d4                __gnu_thumb1_case_uqi
 .text          0x080028e8       0x14 /opt/toolchain/bin/../lib/gcc/arm-none-eabi/13.3.1/thumb/v6-m/nofp/libgcc.a(_thumb1_case_shi.o)
                0x080028e8                __gnu_thumb1_case_shi
 .text          0x080028fc       0x14 /opt/toolchain/bin/../lib/gcc/arm-none-eabi/13.3.1/thumb/v6-m/nofp/libgcc.a(_thumb1_case_uhi.o)
                0x080028fc                __gnu_thumb1_case_uhi
 .text          0x08002910      0x114 /opt/toolchain/bin/../lib/gcc/arm-none-eabi/13.3.1/thumb/v6-m/nofp/libgcc.a(_udivsi3.o)
                0x08002910                __udivsi3
                0x08002910                __aeabi_uidiv
                0x08002a1c                __aeabi_uidivmod
 .text          0x08002a24      0x1d4 /opt/toolchain/bin/../lib/gcc/arm-none-eabi/13.3.1/thumb/v6-m/nofp/libgcc.a(_divsi3.o)
                0x08002a24                __aeabi_idiv
                0x08002a24                __divsi3
                0x08002bf0                __aeabi_idivmod
 .text          0x08002bf8        0x4 /opt/toolchain/bin/../lib/gcc/arm-none-eabi/13.3.1/thumb/v6-m/nofp/libgcc.a(_dvmd_tls.o)
                0x08002bf8                __aeabi_ldiv0
                0x08002bf8                __aeabi_idiv0
 .text          0x08002bfc       0x3c /opt/toolchain/bin/../lib/gcc/arm-none-eabi/13.3.1/thumb/v6-m/nofp/libgcc.a(_clzsi2.o)
                0x08002bfc                __clzsi2
 .text          0x08002c38       0x74 /opt/toolchain/bin/../lib/gcc/arm-none-eabi/13.3.1/thumb/v6-m/nofp/libgcc.a(_arm_cmpsf2.o)
                0x08002c38                __aeabi_cfrcmple
                0x08002c40                __aeabi_cfcmple
                0x08002c40                __aeabi_cfcmpeq
                0x08002c50                __aeabi_fcmpeq
                0x08002c5c                __aeabi_fcmplt
                0x08002c70                __aeabi_fcmple
                0x08002c84                __aeabi_fcmpgt
                0x08002c98                __aeabi_fcmpge
 .text          0x08002cac        0xe /opt/toolchain/bin/../lib/gcc/arm-none-eabi/13.3.1/../../../../arm-none-eabi/lib/thumb/v6-m/nofp/libg_nano.a(libc_a-strlen.o)
                0x08002cac                strlen
 *(.text*)
 *fill*         0x08002cba        0x2 
 .text.deregister_tm_clones
                0x08002cbc       0x20 /opt/toolchain/bin/../lib/gcc/arm-none-eabi/13.3.1/thumb/v6-m/nofp/crtbegin.o
 .text.register_tm_clones
                0x08002cdc       0x28 /opt/toolchain/bin/../lib/gcc/arm-none-eabi/13.3.1/thumb/v6-m/nofp/crtbegin.o
 .text.__do_global_dtors_aux
                0x08002d04       0x2c /opt/toolchain/bin/../lib/gcc/arm-none-eabi/13.3.1/thumb/v6-m/nofp/crtbegin.o
 .text.frame_dummy
                0x08002d30       0x24 /opt/toolchain/bin/../lib/gcc/arm-none-eabi/13.3.1/thumb/v6-m/nofp/crtbegin.o
 .text.startup.main
                0x08002d54       0x3c CMakeFiles/n7six.ApeX-k1.v7.6.5br1.dir/Core/Src/main.c.obj
                0x08002d54                main
 .text.NMI_Handler
                0x08002d90        0x2 CMakeFiles/n7six.ApeX-k1.v7.6.5br1.dir/Core/Src/py32f071_it.c.obj
                0x08002d90                NMI_Handler
 .text.HardFault_Handler
                0x08002d92        0x2 CMakeFiles/n7six.ApeX-k1.v7.6.5br1.dir/Core/Src/py32f071_it.c.obj
                0x08002d92                HardFault_Handler
 .text.SVC_Handler
                0x08002d94        0x2 CMakeFiles/n7six.ApeX-k1.v7.6.5br1.dir/Core/Src/py32f071_it.c.obj
                0x08002d94                SVC_Handler
 .text.PendSV_Handler
                0x08002d96        0x2 CMakeFiles/n7six.ApeX-k1.v7.6.5br1.dir/Core/Src/py32f071_it.c.obj
                0x08002d96                PendSV_Handler
 .text.SystemInit
                0x08002d98       0x10 CMakeFiles/n7six.ApeX-k1.v7.6.5br1.dir/Core/Src/system_py32f071.c.obj
                0x08002d98                SystemInit
 .text.Reset_Handler
                0x08002da8       0x50 CMakeFiles/n7six.ApeX-k1.v7.6.5br1.dir/Core/startup_py32f071xx.s.obj
                0x08002da8                Reset_Handler
 .text.Default_Handler
                0x08002df8        0x2 CMakeFiles/n7six.ApeX-k1.v7.6.5br1.dir/Core/startup_py32f071xx.s.obj
                0x08002df8                TIM1_CC_IRQHandler
                0x08002df8                PVD_IRQHandler
                0x08002df8                I2C1_IRQHandler
                0x08002df8                SPI1_IRQHandler
                0x08002df8                EXTI2_3_IRQHandler
                0x08002df8                I2C2_IRQHandler
                0x08002df8                TIM17_IRQHandler
                0x08002df8                USART3_IRQHandler
                0x08002df8                RTC_IRQHandler
                0x08002df8                LCD_IRQHandler
                0x08002df8                TIM16_IRQHandler
                0x08002df8                TIM3_IRQHandler
                0x08002df8                EXTI4_15_IRQHandler
                0x08002df8                RCC_IRQHandler
                0x08002df8                DMA1_Channel1_IRQHandler
                0x08002df8                Default_Handler
                0x08002df8                TIM14_IRQHandler
                0x08002df8                TIM7_IRQHandler
                0x08002df8                TIM15_IRQHandler
                0x08002df8                EXTI0_1_IRQHandler
                0x08002df8                SPI2_IRQHandler
                0x08002df8                WWDG_IRQHandler
                0x08002df8                TIM2_IRQHandler
                0x08002df8                DMA1_Channel2_3_IRQHandler
                0x08002df8                ADC_COMP_IRQHandler
                0x08002df8                USART2_IRQHandler
                0x08002df8                TIM6_LPTIM1_DAC_IRQHandler
                0x08002df8                FLASH_IRQHandler
                0x08002df8                USART1_IRQHandler
                0x08002df8                TIM1_BRK_UP_TRG_COM_IRQHandler
 *fill*         0x08002dfa        0x2 
 .text.RCC_GetHCLKClockFreq
                0x08002dfc       0x20 CMakeFiles/n7six.ApeX-k1.v7.6.5br1.dir/Drivers/PY32F071_HAL_Driver/Src/py32f071_ll_rcc.c.obj
                0x08002dfc                RCC_GetHCLKClockFreq
 .text.RCC_GetPCLK1ClockFreq
                0x08002e1c       0x20 CMakeFiles/n7six.ApeX-k1.v7.6.5br1.dir/Drivers/PY32F071_HAL_Driver/Src/py32f071_ll_rcc.c.obj
                0x08002e1c                RCC_GetPCLK1ClockFreq
 .text.RCC_PLL_GetFreqDomain_SYS
                0x08002e3c       0x38 CMakeFiles/n7six.ApeX-k1.v7.6.5br1.dir/Drivers/PY32F071_HAL_Driver/Src/py32f071_ll_rcc.c.obj
                0x08002e3c                RCC_PLL_GetFreqDomain_SYS
 .text.RCC_GetSystemClockFreq
                0x08002e74       0x50 CMakeFiles/n7six.ApeX-k1.v7.6.5br1.dir/Drivers/PY32F071_HAL_Driver/Src/py32f071_ll_rcc.c.obj
                0x08002e74                RCC_GetSystemClockFreq
 .text.LL_RCC_GetSystemClocksFreq
                0x08002ec4       0x18 CMakeFiles/n7six.ApeX-k1.v7.6.5br1.dir/Drivers/PY32F071_HAL_Driver/Src/py32f071_ll_rcc.c.obj
                0x08002ec4                LL_RCC_GetSystemClocksFreq
 .text.LL_DMA_Init
                0x08002edc       0x4c CMakeFiles/n7six.ApeX-k1.v7.6.5br1.dir/Drivers/PY32F071_HAL_Driver/Src/py32f071_ll_dma.c.obj
                0x08002edc                LL_DMA_Init
 .text.LL_DMA_StructInit
                0x08002f28       0x18 CMakeFiles/n7six.ApeX-k1.v7.6.5br1.dir/Drivers/PY32F071_HAL_Driver/Src/py32f071_ll_dma.c.obj
                0x08002f28                LL_DMA_StructInit
 .text.LL_GPIO_Init
                0x08002f40       0xa4 CMakeFiles/n7six.ApeX-k1.v7.6.5br1.dir/Drivers/PY32F071_HAL_Driver/Src/py32f071_ll_gpio.c.obj
                0x08002f40                LL_GPIO_Init
 .text.LL_GPIO_StructInit
                0x08002fe4       0x18 CMakeFiles/n7six.ApeX-k1.v7.6.5br1.dir/Drivers/PY32F071_HAL_Driver/Src/py32f071_ll_gpio.c.obj
                0x08002fe4                LL_GPIO_StructInit
 .text.LL_SetSystemCoreClock
                0x08002ffc        0xc CMakeFiles/n7six.ApeX-k1.v7.6.5br1.dir/Drivers/PY32F071_HAL_Driver/Src/py32f071_ll_utils.c.obj
                0x08002ffc                LL_SetSystemCoreClock
 .text.LL_SPI_Init
                0x08003008       0x68 CMakeFiles/n7six.ApeX-k1.v7.6.5br1.dir/Drivers/PY32F071_HAL_Driver/Src/py32f071_ll_spi.c.obj
                0x08003008                LL_SPI_Init
 .text.LL_SPI_StructInit
                0x08003070       0x1a CMakeFiles/n7six.ApeX-k1.v7.6.5br1.dir/Drivers/PY32F071_HAL_Driver/Src/py32f071_ll_spi.c.obj
                0x08003070                LL_SPI_StructInit
 *fill*         0x0800308a        0x2 
 .text.LL_USART_Init
                0x0800308c       0xe4 CMakeFiles/n7six.ApeX-k1.v7.6.5br1.dir/Drivers/PY32F071_HAL_Driver/Src/py32f071_ll_usart.c.obj
                0x0800308c                LL_USART_Init
 .text.LL_USART_StructInit
                0x08003170       0x18 CMakeFiles/n7six.ApeX-k1.v7.6.5br1.dir/Drivers/PY32F071_HAL_Driver/Src/py32f071_ll_usart.c.obj
                0x08003170                LL_USART_StructInit
 .text.BACKLIGHT_Sound
                0x08003188       0x28 CMakeFiles/n7six.ApeX-k1.v7.6.5br1.dir/App/driver/backlight.c.obj
 .text.BACKLIGHT_InitHardware
                0x080031b0       0xc4 CMakeFiles/n7six.ApeX-k1.v7.6.5br1.dir/App/driver/backlight.c.obj
                0x080031b0                BACKLIGHT_InitHardware
 .text.BACKLIGHT_IsOn
                0x08003274        0xc CMakeFiles/n7six.ApeX-k1.v7.6.5br1.dir/App/driver/backlight.c.obj
                0x08003274                BACKLIGHT_IsOn
 .text.BACKLIGHT_SetBrightness
                0x08003280       0xbc CMakeFiles/n7six.ApeX-k1.v7.6.5br1.dir/App/driver/backlight.c.obj
                0x08003280                BACKLIGHT_SetBrightness
 .text.BACKLIGHT_TurnOff
                0x0800333c       0x24 CMakeFiles/n7six.ApeX-k1.v7.6.5br1.dir/App/driver/backlight.c.obj
                0x0800333c                BACKLIGHT_TurnOff
 .text.BACKLIGHT_TurnOn
                0x08003360       0x8c CMakeFiles/n7six.ApeX-k1.v7.6.5br1.dir/App/driver/backlight.c.obj
                0x08003360                BACKLIGHT_TurnOn
 .text.BK4819_WriteU8
                0x080033ec       0x54 CMakeFiles/n7six.ApeX-k1.v7.6.5br1.dir/App/driver/bk4829.c.obj
                0x080033ec                BK4819_WriteU8
 .text.BK4819_ReadRegister
                0x08003440       0x98 CMakeFiles/n7six.ApeX-k1.v7.6.5br1.dir/App/driver/bk4829.c.obj
                0x08003440                BK4819_ReadRegister
 .text.BK4819_WriteU16
                0x080034d8       0x54 CMakeFiles/n7six.ApeX-k1.v7.6.5br1.dir/App/driver/bk4829.c.obj
                0x080034d8                BK4819_WriteU16
 .text.BK4819_WriteRegister
                0x0800352c       0x4c CMakeFiles/n7six.ApeX-k1.v7.6.5br1.dir/App/driver/bk4829.c.obj
                0x0800352c                BK4819_WriteRegister
 .text.BK4819_Init
                0x08003578      0x1d0 CMakeFiles/n7six.ApeX-k1.v7.6.5br1.dir/App/driver/bk4829.c.obj
                0x08003578                BK4819_Init
 .text.BK4819_SetAGC
                0x08003748       0x30 CMakeFiles/n7six.ApeX-k1.v7.6.5br1.dir/App/driver/bk4829.c.obj
                0x08003748                BK4819_SetAGC
 .text.BK4819_InitAGC
                0x08003778       0x64 CMakeFiles/n7six.ApeX-k1.v7.6.5br1.dir/App/driver/bk4829.c.obj
                0x08003778                BK4819_InitAGC
 .text.BK4819_ToggleGpioOut
                0x080037dc       0x2c CMakeFiles/n7six.ApeX-k1.v7.6.5br1.dir/App/driver/bk4829.c.obj
                0x080037dc                BK4819_ToggleGpioOut
 .text.BK4819_SetCDCSSCodeWord
                0x08003808       0x38 CMakeFiles/n7six.ApeX-k1.v7.6.5br1.dir/App/driver/bk4829.c.obj
                0x08003808                BK4819_SetCDCSSCodeWord
 .text.BK4819_SetCTCSSFrequency
                0x08003840       0x48 CMakeFiles/n7six.ApeX-k1.v7.6.5br1.dir/App/driver/bk4829.c.obj
                0x08003840                BK4819_SetCTCSSFrequency
 .text.BK4819_SetTailDetection
                0x08003888       0x24 CMakeFiles/n7six.ApeX-k1.v7.6.5br1.dir/App/driver/bk4829.c.obj
                0x08003888                BK4819_SetTailDetection
 .text.BK4819_EnableVox
                0x080038ac       0x48 CMakeFiles/n7six.ApeX-k1.v7.6.5br1.dir/App/driver/bk4829.c.obj
                0x080038ac                BK4819_EnableVox
 .text.BK4819_SetFilterBandwidth
                0x080038f4       0x1c CMakeFiles/n7six.ApeX-k1.v7.6.5br1.dir/App/driver/bk4829.c.obj
                0x080038f4                BK4819_SetFilterBandwidth
 .text.BK4819_SetupPowerAmplifier
                0x08003910       0x20 CMakeFiles/n7six.ApeX-k1.v7.6.5br1.dir/App/driver/bk4829.c.obj
                0x08003910                BK4819_SetupPowerAmplifier
 .text.BK4819_SetFrequency
                0x08003930       0x16 CMakeFiles/n7six.ApeX-k1.v7.6.5br1.dir/App/driver/bk4829.c.obj
                0x08003930                BK4819_SetFrequency
 *fill*         0x08003946        0x2 
 .text.BK4819_SetAF
                0x08003948       0x14 CMakeFiles/n7six.ApeX-k1.v7.6.5br1.dir/App/driver/bk4829.c.obj
                0x08003948                BK4819_SetAF
 .text.BK4819_SetRegValue
                0x0800395c       0x2e CMakeFiles/n7six.ApeX-k1.v7.6.5br1.dir/App/driver/bk4829.c.obj
                0x0800395c                BK4819_SetRegValue
 *fill*         0x0800398a        0x2 
 .text.BK4819_RX_TurnOn
                0x0800398c       0x24 CMakeFiles/n7six.ApeX-k1.v7.6.5br1.dir/App/driver/bk4829.c.obj
                0x0800398c                BK4819_RX_TurnOn
 .text.BK4819_SetupSquelch
                0x080039b0       0x56 CMakeFiles/n7six.ApeX-k1.v7.6.5br1.dir/App/driver/bk4829.c.obj
                0x080039b0                BK4819_SetupSquelch
 *fill*         0x08003a06        0x2 
 .text.BK4819_PickRXFilterPathBasedOnFrequency
                0x08003a08       0x30 CMakeFiles/n7six.ApeX-k1.v7.6.5br1.dir/App/driver/bk4829.c.obj
                0x08003a08                BK4819_PickRXFilterPathBasedOnFrequency
 .text.BK4819_DisableScramble
                0x08003a38       0x1e CMakeFiles/n7six.ApeX-k1.v7.6.5br1.dir/App/driver/bk4829.c.obj
                0x08003a38                BK4819_DisableScramble
 *fill*         0x08003a56        0x2 
 .text.BK4819_SetCompander
                0x08003a58       0x54 CMakeFiles/n7six.ApeX-k1.v7.6.5br1.dir/App/driver/bk4829.c.obj
                0x08003a58                BK4819_SetCompander
 .text.BK4819_DisableVox
                0x08003aac       0x16 CMakeFiles/n7six.ApeX-k1.v7.6.5br1.dir/App/driver/bk4829.c.obj
                0x08003aac                BK4819_DisableVox
 .text.BK4819_DisableDTMF
                0x08003ac2        0xc CMakeFiles/n7six.ApeX-k1.v7.6.5br1.dir/App/driver/bk4829.c.obj
                0x08003ac2                BK4819_DisableDTMF
 *fill*         0x08003ace        0x2 
 .text.BK4819_EnableDTMF
                0x08003ad0       0x1c CMakeFiles/n7six.ApeX-k1.v7.6.5br1.dir/App/driver/bk4829.c.obj
                0x08003ad0                BK4819_EnableDTMF
 .text.BK4819_EnterTxMute
                0x08003aec       0x10 CMakeFiles/n7six.ApeX-k1.v7.6.5br1.dir/App/driver/bk4829.c.obj
                0x08003aec                BK4819_EnterTxMute
 .text.BK4819_PlayTone
                0x08003afc       0x58 CMakeFiles/n7six.ApeX-k1.v7.6.5br1.dir/App/driver/bk4829.c.obj
                0x08003afc                BK4819_PlayTone
 .text.BK4819_ExitTxMute
                0x08003b54       0x10 CMakeFiles/n7six.ApeX-k1.v7.6.5br1.dir/App/driver/bk4829.c.obj
                0x08003b54                BK4819_ExitTxMute
 .text.BK4819_Sleep
                0x08003b64       0x16 CMakeFiles/n7six.ApeX-k1.v7.6.5br1.dir/App/driver/bk4829.c.obj
                0x08003b64                BK4819_Sleep
 *fill*         0x08003b7a        0x2 
 .text.BK4819_TurnsOffTones_TurnsOnRX
                0x08003b7c       0x2c CMakeFiles/n7six.ApeX-k1.v7.6.5br1.dir/App/driver/bk4829.c.obj
                0x08003b7c                BK4819_TurnsOffTones_TurnsOnRX
 .text.BK4819_SetupAircopy
                0x08003ba8       0x44 CMakeFiles/n7six.ApeX-k1.v7.6.5br1.dir/App/driver/bk4829.c.obj
                0x08003ba8                BK4819_SetupAircopy
 .text.BK4819_Idle
                0x08003bec        0xc CMakeFiles/n7six.ApeX-k1.v7.6.5br1.dir/App/driver/bk4829.c.obj
                0x08003bec                BK4819_Idle
 .text.BK4819_ResetFSK
                0x08003bf8       0x1e CMakeFiles/n7six.ApeX-k1.v7.6.5br1.dir/App/driver/bk4829.c.obj
                0x08003bf8                BK4819_ResetFSK
 .text.BK4819_ExitBypass
                0x08003c16       0x20 CMakeFiles/n7six.ApeX-k1.v7.6.5br1.dir/App/driver/bk4829.c.obj
                0x08003c16                BK4819_ExitBypass
 *fill*         0x08003c36        0x2 
 .text.BK4819_TxOn_Beep
                0x08003c38       0x38 CMakeFiles/n7six.ApeX-k1.v7.6.5br1.dir/App/driver/bk4829.c.obj
                0x08003c38                BK4819_TxOn_Beep
 .text.BK4819_PrepareTransmit
                0x08003c70       0x10 CMakeFiles/n7six.ApeX-k1.v7.6.5br1.dir/App/driver/bk4829.c.obj
                0x08003c70                BK4819_PrepareTransmit
 .text.BK4819_ExitSubAu
                0x08003c80        0xc CMakeFiles/n7six.ApeX-k1.v7.6.5br1.dir/App/driver/bk4829.c.obj
                0x08003c80                BK4819_ExitSubAu
 .text.BK4819_Conditional_RX_TurnOn_and_GPIO6_Enable
                0x08003c8c       0x1c CMakeFiles/n7six.ApeX-k1.v7.6.5br1.dir/App/driver/bk4829.c.obj
                0x08003c8c                BK4819_Conditional_RX_TurnOn_and_GPIO6_Enable
 .text.BK4819_ExitDTMF_TX
                0x08003ca8       0x30 CMakeFiles/n7six.ApeX-k1.v7.6.5br1.dir/App/driver/bk4829.c.obj
                0x08003ca8                BK4819_ExitDTMF_TX
 .text.BK4819_EnableTXLink
                0x08003cd8       0x10 CMakeFiles/n7six.ApeX-k1.v7.6.5br1.dir/App/driver/bk4829.c.obj
                0x08003cd8                BK4819_EnableTXLink
 .text.BK4819_PlaySingleTone
                0x08003ce8       0x94 CMakeFiles/n7six.ApeX-k1.v7.6.5br1.dir/App/driver/bk4829.c.obj
                0x08003ce8                BK4819_PlaySingleTone
 .text.BK4819_EnterDTMF_TX
                0x08003d7c       0x2c CMakeFiles/n7six.ApeX-k1.v7.6.5br1.dir/App/driver/bk4829.c.obj
                0x08003d7c                BK4819_EnterDTMF_TX
 .text.BK4819_PlayDTMF
                0x08003da8       0x7c CMakeFiles/n7six.ApeX-k1.v7.6.5br1.dir/App/driver/bk4829.c.obj
                0x08003da8                BK4819_PlayDTMF
 .text.BK4819_PlayDTMFString
                0x08003e24       0x5a CMakeFiles/n7six.ApeX-k1.v7.6.5br1.dir/App/driver/bk4829.c.obj
                0x08003e24                BK4819_PlayDTMFString
 *fill*         0x08003e7e        0x2 
 .text.BK4819_TransmitTone
                0x08003e80       0x48 CMakeFiles/n7six.ApeX-k1.v7.6.5br1.dir/App/driver/bk4829.c.obj
                0x08003e80                BK4819_TransmitTone
 .text.BK4819_GenTail
                0x08003ec8       0x40 CMakeFiles/n7six.ApeX-k1.v7.6.5br1.dir/App/driver/bk4829.c.obj
                0x08003ec8                BK4819_GenTail
 .text.BK4819_PlayCDCSSTail
                0x08003f08       0x18 CMakeFiles/n7six.ApeX-k1.v7.6.5br1.dir/App/driver/bk4829.c.obj
                0x08003f08                BK4819_PlayCDCSSTail
 .text.BK4819_PlayCTCSSTail
                0x08003f20       0x18 CMakeFiles/n7six.ApeX-k1.v7.6.5br1.dir/App/driver/bk4829.c.obj
                0x08003f20                BK4819_PlayCTCSSTail
 .text.BK4819_GetRSSI
                0x08003f38        0xe CMakeFiles/n7six.ApeX-k1.v7.6.5br1.dir/App/driver/bk4829.c.obj
                0x08003f38                BK4819_GetRSSI
 .text.BK4819_GetRSSI_dBm
                0x08003f46        0xe CMakeFiles/n7six.ApeX-k1.v7.6.5br1.dir/App/driver/bk4829.c.obj
                0x08003f46                BK4819_GetRSSI_dBm
 .text.BK4819_GetVoiceAmplitudeOut
                0x08003f54        0xa CMakeFiles/n7six.ApeX-k1.v7.6.5br1.dir/App/driver/bk4829.c.obj
                0x08003f54                BK4819_GetVoiceAmplitudeOut
 .text.BK4819_GetAfTxRx
                0x08003f5e        0xe CMakeFiles/n7six.ApeX-k1.v7.6.5br1.dir/App/driver/bk4829.c.obj
                0x08003f5e                BK4819_GetAfTxRx
 .text.BK4819_GetFrequencyScanResult
                0x08003f6c       0x30 CMakeFiles/n7six.ApeX-k1.v7.6.5br1.dir/App/driver/bk4829.c.obj
                0x08003f6c                BK4819_GetFrequencyScanResult
 .text.BK4819_GetCxCSSScanResult
                0x08003f9c       0x58 CMakeFiles/n7six.ApeX-k1.v7.6.5br1.dir/App/driver/bk4829.c.obj
                0x08003f9c                BK4819_GetCxCSSScanResult
 .text.BK4819_DisableFrequencyScan
                0x08003ff4        0xe CMakeFiles/n7six.ApeX-k1.v7.6.5br1.dir/App/driver/bk4829.c.obj
                0x08003ff4                BK4819_DisableFrequencyScan
 *fill*         0x08004002        0x2 
 .text.BK4819_EnableFrequencyScan
                0x08004004       0x10 CMakeFiles/n7six.ApeX-k1.v7.6.5br1.dir/App/driver/bk4829.c.obj
                0x08004004                BK4819_EnableFrequencyScan
 .text.BK4819_SetScanFrequency
                0x08004014       0x16 CMakeFiles/n7six.ApeX-k1.v7.6.5br1.dir/App/driver/bk4829.c.obj
                0x08004014                BK4819_SetScanFrequency
 .text.BK4819_Disable
                0x0800402a        0x8 CMakeFiles/n7six.ApeX-k1.v7.6.5br1.dir/App/driver/bk4829.c.obj
                0x0800402a                BK4819_Disable
 .text.BK4819_StopScan
                0x08004032        0xc CMakeFiles/n7six.ApeX-k1.v7.6.5br1.dir/App/driver/bk4829.c.obj
                0x08004032                BK4819_StopScan
 .text.BK4819_GetDTMF_5TONE_Code
                0x0800403e        0xe CMakeFiles/n7six.ApeX-k1.v7.6.5br1.dir/App/driver/bk4829.c.obj
                0x0800403e                BK4819_GetDTMF_5TONE_Code
 .text.BK4819_GetCDCSSCodeType
                0x0800404c        0xe CMakeFiles/n7six.ApeX-k1.v7.6.5br1.dir/App/driver/bk4829.c.obj
                0x0800404c                BK4819_GetCDCSSCodeType
 .text.BK4819_GetCTCType
                0x0800405a        0xe CMakeFiles/n7six.ApeX-k1.v7.6.5br1.dir/App/driver/bk4829.c.obj
                0x0800405a                BK4819_GetCTCType
 .text.BK4819_SendFSKData
                0x08004068       0x7c CMakeFiles/n7six.ApeX-k1.v7.6.5br1.dir/App/driver/bk4829.c.obj
                0x08004068                BK4819_SendFSKData
 .text.BK4819_PrepareFSKReceive
                0x080040e4       0x40 CMakeFiles/n7six.ApeX-k1.v7.6.5br1.dir/App/driver/bk4829.c.obj
                0x080040e4                BK4819_PrepareFSKReceive
 .text.BK4819_PlayRogerMDC
                0x08004124       0x78 CMakeFiles/n7six.ApeX-k1.v7.6.5br1.dir/App/driver/bk4829.c.obj
                0x08004124                BK4819_PlayRogerMDC
 .text.BK4819_PlayRoger
                0x0800419c       0x80 CMakeFiles/n7six.ApeX-k1.v7.6.5br1.dir/App/driver/bk4829.c.obj
                0x0800419c                BK4819_PlayRoger
 .text.BK4819_PlayDTMFEx
                0x0800421c       0x3c CMakeFiles/n7six.ApeX-k1.v7.6.5br1.dir/App/driver/bk4829.c.obj
                0x0800421c                BK4819_PlayDTMFEx
 .text.SPI_WriteByte
                0x08004258       0x20 CMakeFiles/n7six.ApeX-k1.v7.6.5br1.dir/App/driver/py25q16.c.obj
 .text.WriteAddr
                0x08004278       0x1c CMakeFiles/n7six.ApeX-k1.v7.6.5br1.dir/App/driver/py25q16.c.obj
 .text.WaitWIP  0x08004294       0x30 CMakeFiles/n7six.ApeX-k1.v7.6.5br1.dir/App/driver/py25q16.c.obj
 .text.SectorErase
                0x080042c4       0x2e CMakeFiles/n7six.ApeX-k1.v7.6.5br1.dir/App/driver/py25q16.c.obj
 *fill*         0x080042f2        0x2 
 .text.SectorProgram
                0x080042f4      0x12c CMakeFiles/n7six.ApeX-k1.v7.6.5br1.dir/App/driver/py25q16.c.obj
 .text.PY25Q16_Init
                0x08004420       0xf0 CMakeFiles/n7six.ApeX-k1.v7.6.5br1.dir/App/driver/py25q16.c.obj
                0x08004420                PY25Q16_Init
 .text.PY25Q16_ReadBuffer
                0x08004510       0xf4 CMakeFiles/n7six.ApeX-k1.v7.6.5br1.dir/App/driver/py25q16.c.obj
                0x08004510                PY25Q16_ReadBuffer
 .text.PY25Q16_WriteBuffer
                0x08004604       0xdc CMakeFiles/n7six.ApeX-k1.v7.6.5br1.dir/App/driver/py25q16.c.obj
                0x08004604                PY25Q16_WriteBuffer
 .text.PY25Q16_SectorErase
                0x080046e0       0x2c CMakeFiles/n7six.ApeX-k1.v7.6.5br1.dir/App/driver/py25q16.c.obj
                0x080046e0                PY25Q16_SectorErase
 .text.DMA1_Channel4_5_6_7_IRQHandler
                0x0800470c       0x64 CMakeFiles/n7six.ApeX-k1.v7.6.5br1.dir/App/driver/py25q16.c.obj
                0x0800470c                DMA1_Channel4_5_6_7_IRQHandler
 .text.I2C_Start
                0x08004770       0x30 CMakeFiles/n7six.ApeX-k1.v7.6.5br1.dir/App/driver/i2c.c.obj
                0x08004770                I2C_Start
 .text.I2C_Stop
                0x080047a0       0x30 CMakeFiles/n7six.ApeX-k1.v7.6.5br1.dir/App/driver/i2c.c.obj
                0x080047a0                I2C_Stop
 .text.I2C_Read
                0x080047d0       0x98 CMakeFiles/n7six.ApeX-k1.v7.6.5br1.dir/App/driver/i2c.c.obj
                0x080047d0                I2C_Read
 .text.I2C_Write
                0x08004868       0xa4 CMakeFiles/n7six.ApeX-k1.v7.6.5br1.dir/App/driver/i2c.c.obj
                0x08004868                I2C_Write
 .text.I2C_ReadBuffer
                0x0800490c       0x3e CMakeFiles/n7six.ApeX-k1.v7.6.5br1.dir/App/driver/i2c.c.obj
                0x0800490c                I2C_ReadBuffer
 .text.I2C_WriteBuffer
                0x0800494a       0x20 CMakeFiles/n7six.ApeX-k1.v7.6.5br1.dir/App/driver/i2c.c.obj
                0x0800494a                I2C_WriteBuffer
 *fill*         0x0800496a        0x2 
 .text.KEYBOARD_Poll
                0x0800496c       0x8c CMakeFiles/n7six.ApeX-k1.v7.6.5br1.dir/App/driver/keyboard.c.obj
                0x0800496c                KEYBOARD_Poll
 .text.SPI_WriteByte.isra.0
                0x080049f8       0x1c CMakeFiles/n7six.ApeX-k1.v7.6.5br1.dir/App/driver/st7565.c.obj
 .text.map      0x08004a14       0x1c CMakeFiles/n7six.ApeX-k1.v7.6.5br1.dir/App/driver/st7565.c.obj
                0x08004a14                map
 .text.ST7565_Gauge
                0x08004a30       0x50 CMakeFiles/n7six.ApeX-k1.v7.6.5br1.dir/App/driver/st7565.c.obj
                0x08004a30                ST7565_Gauge
 .text.ST7565_HardwareReset
                0x08004a80        0x2 CMakeFiles/n7six.ApeX-k1.v7.6.5br1.dir/App/driver/st7565.c.obj
                0x08004a80                ST7565_HardwareReset
 .text.ST7565_SelectColumnAndLine
                0x08004a82       0x28 CMakeFiles/n7six.ApeX-k1.v7.6.5br1.dir/App/driver/st7565.c.obj
                0x08004a82                ST7565_SelectColumnAndLine
 .text.DrawLine
                0x08004aaa       0x30 CMakeFiles/n7six.ApeX-k1.v7.6.5br1.dir/App/driver/st7565.c.obj
 *fill*         0x08004ada        0x2 
 .text.ST7565_DrawLine
                0x08004adc       0x18 CMakeFiles/n7six.ApeX-k1.v7.6.5br1.dir/App/driver/st7565.c.obj
                0x08004adc                ST7565_DrawLine
 .text.ST7565_WriteByte
                0x08004af4       0x10 CMakeFiles/n7six.ApeX-k1.v7.6.5br1.dir/App/driver/st7565.c.obj
                0x08004af4                ST7565_WriteByte
 .text.ST7565_BlitScreen
                0x08004b04       0x5c CMakeFiles/n7six.ApeX-k1.v7.6.5br1.dir/App/driver/st7565.c.obj
 .text.ST7565_BlitFullScreen
                0x08004b60        0xa CMakeFiles/n7six.ApeX-k1.v7.6.5br1.dir/App/driver/st7565.c.obj
                0x08004b60                ST7565_BlitFullScreen
 .text.ST7565_BlitLine
                0x08004b6a        0xc CMakeFiles/n7six.ApeX-k1.v7.6.5br1.dir/App/driver/st7565.c.obj
                0x08004b6a                ST7565_BlitLine
 .text.ST7565_BlitStatusLine
                0x08004b76        0xa CMakeFiles/n7six.ApeX-k1.v7.6.5br1.dir/App/driver/st7565.c.obj
                0x08004b76                ST7565_BlitStatusLine
 .text.ST7565_FillScreen
                0x08004b80       0x5c CMakeFiles/n7six.ApeX-k1.v7.6.5br1.dir/App/driver/st7565.c.obj
                0x08004b80                ST7565_FillScreen
 .text.ST7565_Cmd
                0x08004bdc       0x34 CMakeFiles/n7six.ApeX-k1.v7.6.5br1.dir/App/driver/st7565.c.obj
 .text.ST7565_FixInterfGlitch
                0x08004c10       0x24 CMakeFiles/n7six.ApeX-k1.v7.6.5br1.dir/App/driver/st7565.c.obj
                0x08004c10                ST7565_FixInterfGlitch
 .text.ST7565_ContrastAndInv
                0x08004c34       0x28 CMakeFiles/n7six.ApeX-k1.v7.6.5br1.dir/App/driver/st7565.c.obj
                0x08004c34                ST7565_ContrastAndInv
 .text.ST7565_Init
                0x08004c5c      0x10c CMakeFiles/n7six.ApeX-k1.v7.6.5br1.dir/App/driver/st7565.c.obj
                0x08004c5c                ST7565_Init
 .text.ST7565_ShutDown
                0x08004d68       0x24 CMakeFiles/n7six.ApeX-k1.v7.6.5br1.dir/App/driver/st7565.c.obj
                0x08004d68                ST7565_ShutDown
 .text.SYSTEM_DelayMs
                0x08004d8c        0xe CMakeFiles/n7six.ApeX-k1.v7.6.5br1.dir/App/driver/system.c.obj
                0x08004d8c                SYSTEM_DelayMs
 *fill*         0x08004d9a        0x2 
 .text.SYSTICK_Init
                0x08004d9c       0x40 CMakeFiles/n7six.ApeX-k1.v7.6.5br1.dir/App/driver/systick.c.obj
                0x08004d9c                SYSTICK_Init
 .text.SYSTICK_DelayUs
                0x08004ddc       0x34 CMakeFiles/n7six.ApeX-k1.v7.6.5br1.dir/App/driver/systick.c.obj
                0x08004ddc                SYSTICK_DelayUs
 .text.ACTION_Power
                0x08004e10       0x34 CMakeFiles/n7six.ApeX-k1.v7.6.5br1.dir/App/app/action.c.obj
                0x08004e10                ACTION_Power
 .text.ACTION_SwitchDemodul
                0x08004e44       0x24 CMakeFiles/n7six.ApeX-k1.v7.6.5br1.dir/App/app/action.c.obj
                0x08004e44                ACTION_SwitchDemodul
 .text.ACTION_Vox
                0x08004e68       0x28 CMakeFiles/n7six.ApeX-k1.v7.6.5br1.dir/App/app/action.c.obj
                0x08004e68                ACTION_Vox
 .text.ACTION_Ptt
                0x08004e90       0x10 CMakeFiles/n7six.ApeX-k1.v7.6.5br1.dir/App/app/action.c.obj
                0x08004e90                ACTION_Ptt
 .text.ACTION_Power_High
                0x08004ea0       0x1c CMakeFiles/n7six.ApeX-k1.v7.6.5br1.dir/App/app/action.c.obj
                0x08004ea0                ACTION_Power_High
 .text.ACTION_Remove_Offset
                0x08004ebc       0x1c CMakeFiles/n7six.ApeX-k1.v7.6.5br1.dir/App/app/action.c.obj
                0x08004ebc                ACTION_Remove_Offset
 .text.ACTION_BackLight
                0x08004ed8       0x28 CMakeFiles/n7six.ApeX-k1.v7.6.5br1.dir/App/app/action.c.obj
                0x08004ed8                ACTION_BackLight
 .text.ACTION_Mute
                0x08004f00       0x60 CMakeFiles/n7six.ApeX-k1.v7.6.5br1.dir/App/app/action.c.obj
                0x08004f00                ACTION_Mute
 .text.ACTION_Monitor
                0x08004f60       0x88 CMakeFiles/n7six.ApeX-k1.v7.6.5br1.dir/App/app/action.c.obj
                0x08004f60                ACTION_Monitor
 .text.ACTION_FM
                0x08004fe8       0x64 CMakeFiles/n7six.ApeX-k1.v7.6.5br1.dir/App/app/action.c.obj
                0x08004fe8                ACTION_FM
 .text.ACTION_Wn
                0x0800504c       0x5c CMakeFiles/n7six.ApeX-k1.v7.6.5br1.dir/App/app/action.c.obj
                0x0800504c                ACTION_Wn
 .text.ACTION_1750
                0x080050a8       0x48 CMakeFiles/n7six.ApeX-k1.v7.6.5br1.dir/App/app/action.c.obj
 .text.ACTION_Scan
                0x080050f0      0x148 CMakeFiles/n7six.ApeX-k1.v7.6.5br1.dir/App/app/action.c.obj
                0x080050f0                ACTION_Scan
 .text.ACTION_ScanRestart
                0x08005238        0xa CMakeFiles/n7six.ApeX-k1.v7.6.5br1.dir/App/app/action.c.obj
 *fill*         0x08005242        0x2 
 .text.ACTION_Handle
                0x08005244       0xd0 CMakeFiles/n7six.ApeX-k1.v7.6.5br1.dir/App/app/action.c.obj
                0x08005244                ACTION_Handle
 .text.ACTION_Update
                0x08005314       0x20 CMakeFiles/n7six.ApeX-k1.v7.6.5br1.dir/App/app/action.c.obj
                0x08005314                ACTION_Update
 .text.ACTION_RxMode
                0x08005334       0x34 CMakeFiles/n7six.ApeX-k1.v7.6.5br1.dir/App/app/action.c.obj
                0x08005334                ACTION_RxMode
 .text.ACTION_MainOnly
                0x08005368       0x40 CMakeFiles/n7six.ApeX-k1.v7.6.5br1.dir/App/app/action.c.obj
                0x08005368                ACTION_MainOnly
 .text.ACTION_BackLightOnDemand
                0x080053a8       0x4c CMakeFiles/n7six.ApeX-k1.v7.6.5br1.dir/App/app/action.c.obj
                0x080053a8                ACTION_BackLightOnDemand
 .text.DualwatchAlternate
                0x080053f4       0x58 CMakeFiles/n7six.ApeX-k1.v7.6.5br1.dir/App/app/app.c.obj
 .text.HandleReceive
                0x0800544c      0x1f4 CMakeFiles/n7six.ApeX-k1.v7.6.5br1.dir/App/app/app.c.obj
 .text.CheckForIncoming
                0x08005640       0x9c CMakeFiles/n7six.ApeX-k1.v7.6.5br1.dir/App/app/app.c.obj
 .text.HandlePowerSave
                0x080056dc       0x14 CMakeFiles/n7six.ApeX-k1.v7.6.5br1.dir/App/app/app.c.obj
 .text.APP_StartListening
                0x080056f0      0x11c CMakeFiles/n7six.ApeX-k1.v7.6.5br1.dir/App/app/app.c.obj
                0x080056f0                APP_StartListening
 .text.HandleIncoming
                0x0800580c       0xa4 CMakeFiles/n7six.ApeX-k1.v7.6.5br1.dir/App/app/app.c.obj
 .text.APP_SetFreqByStepAndLimits
                0x080058b0       0x2c CMakeFiles/n7six.ApeX-k1.v7.6.5br1.dir/App/app/app.c.obj
                0x080058b0                APP_SetFreqByStepAndLimits
 .text.APP_SetFrequencyByStep
                0x080058dc       0x1c CMakeFiles/n7six.ApeX-k1.v7.6.5br1.dir/App/app/app.c.obj
                0x080058dc                APP_SetFrequencyByStep
 .text.APP_EndTransmission
                0x080058f8       0x28 CMakeFiles/n7six.ApeX-k1.v7.6.5br1.dir/App/app/app.c.obj
                0x080058f8                APP_EndTransmission
 .text.cancelUserInputModes
                0x08005920       0x7c CMakeFiles/n7six.ApeX-k1.v7.6.5br1.dir/App/app/app.c.obj
                0x08005920                cancelUserInputModes
 .text.ProcessKey
                0x0800599c      0x678 CMakeFiles/n7six.ApeX-k1.v7.6.5br1.dir/App/app/app.c.obj
 .text.APP_Update
                0x08006014      0x508 CMakeFiles/n7six.ApeX-k1.v7.6.5br1.dir/App/app/app.c.obj
                0x08006014                APP_Update
 .text.APP_TimeSlice10ms
                0x0800651c      0x614 CMakeFiles/n7six.ApeX-k1.v7.6.5br1.dir/App/app/app.c.obj
                0x0800651c                APP_TimeSlice10ms
 .text.APP_TimeSlice500ms
                0x08006b30      0x478 CMakeFiles/n7six.ApeX-k1.v7.6.5br1.dir/App/app/app.c.obj
                0x08006b30                APP_TimeSlice500ms
 .text.NextMemChannel
                0x08006fa8      0x118 CMakeFiles/n7six.ApeX-k1.v7.6.5br1.dir/App/app/chFrScanner.c.obj
 .text.NextFreqChannel
                0x080070c0       0x60 CMakeFiles/n7six.ApeX-k1.v7.6.5br1.dir/App/app/chFrScanner.c.obj
 .text.CHFRSCANNER_Start
                0x08007120       0xb4 CMakeFiles/n7six.ApeX-k1.v7.6.5br1.dir/App/app/chFrScanner.c.obj
                0x08007120                CHFRSCANNER_Start
 .text.CHFRSCANNER_ContinueScanning
                0x080071d4       0x6c CMakeFiles/n7six.ApeX-k1.v7.6.5br1.dir/App/app/chFrScanner.c.obj
                0x080071d4                CHFRSCANNER_ContinueScanning
 .text.CHFRSCANNER_Found
                0x08007240       0x78 CMakeFiles/n7six.ApeX-k1.v7.6.5br1.dir/App/app/chFrScanner.c.obj
                0x08007240                CHFRSCANNER_Found
 .text.CHFRSCANNER_Stop
                0x080072b8       0xb4 CMakeFiles/n7six.ApeX-k1.v7.6.5br1.dir/App/app/chFrScanner.c.obj
                0x080072b8                CHFRSCANNER_Stop
 .text.COMMON_KeypadLockToggle
                0x0800736c       0x30 CMakeFiles/n7six.ApeX-k1.v7.6.5br1.dir/App/app/common.c.obj
                0x0800736c                COMMON_KeypadLockToggle
 .text.COMMON_SwitchVFOs
                0x0800739c       0x54 CMakeFiles/n7six.ApeX-k1.v7.6.5br1.dir/App/app/common.c.obj
                0x0800739c                COMMON_SwitchVFOs
 .text.COMMON_SwitchVFOMode
                0x080073f0       0x50 CMakeFiles/n7six.ApeX-k1.v7.6.5br1.dir/App/app/common.c.obj
                0x080073f0                COMMON_SwitchVFOMode
 .text.DTMF_BufferShiftAppend
                0x08007440       0x3c CMakeFiles/n7six.ApeX-k1.v7.6.5br1.dir/App/app/dtmf.c.obj
                0x08007440                DTMF_BufferShiftAppend
 .text.DTMF_SendEndOfTransmission
                0x0800747c       0xa4 CMakeFiles/n7six.ApeX-k1.v7.6.5br1.dir/App/app/dtmf.c.obj
                0x0800747c                DTMF_SendEndOfTransmission
 .text.DTMF_IsValidChar
                0x08007520       0x20 CMakeFiles/n7six.ApeX-k1.v7.6.5br1.dir/App/app/dtmf.c.obj
                0x08007520                DTMF_IsValidChar
 .text.DTMF_ValidateCodes
                0x08007540       0x34 CMakeFiles/n7six.ApeX-k1.v7.6.5br1.dir/App/app/dtmf.c.obj
                0x08007540                DTMF_ValidateCodes
 .text.DTMF_GetCharacter
                0x08007574       0x20 CMakeFiles/n7six.ApeX-k1.v7.6.5br1.dir/App/app/dtmf.c.obj
                0x08007574                DTMF_GetCharacter
 .text.DTMF_clear_input_box
                0x08007594       0x24 CMakeFiles/n7six.ApeX-k1.v7.6.5br1.dir/App/app/dtmf.c.obj
                0x08007594                DTMF_clear_input_box
 .text.DTMF_Append
                0x080075b8       0x34 CMakeFiles/n7six.ApeX-k1.v7.6.5br1.dir/App/app/dtmf.c.obj
                0x080075b8                DTMF_Append
 .text.DTMF_Reply
                0x080075ec       0xb8 CMakeFiles/n7six.ApeX-k1.v7.6.5br1.dir/App/app/dtmf.c.obj
                0x080075ec                DTMF_Reply
 .text.APP_SubscribeEvent
                0x080076a4       0x48 CMakeFiles/n7six.ApeX-k1.v7.6.5br1.dir/App/app/events.c.obj
                0x080076a4                APP_SubscribeEvent
 .text.APP_EventSystem_Init
                0x080076ec       0x20 CMakeFiles/n7six.ApeX-k1.v7.6.5br1.dir/App/app/events.c.obj
                0x080076ec                APP_EventSystem_Init
 .text.APP_InitializeEventHandlers
                0x0800770c       0x28 CMakeFiles/n7six.ApeX-k1.v7.6.5br1.dir/App/app/events_handlers.c.obj
                0x0800770c                APP_InitializeEventHandlers
 .text.GENERIC_Key_F
                0x08007734       0x9c CMakeFiles/n7six.ApeX-k1.v7.6.5br1.dir/App/app/generic.c.obj
                0x08007734                GENERIC_Key_F
 .text.GENERIC_Key_PTT
                0x080077d0      0x18c CMakeFiles/n7six.ApeX-k1.v7.6.5br1.dir/App/app/generic.c.obj
                0x080077d0                GENERIC_Key_PTT
 .text.processFKeyFunction
                0x0800795c      0x378 CMakeFiles/n7six.ApeX-k1.v7.6.5br1.dir/App/app/main.c.obj
 .text.MAIN_Key_UP_DOWN.part.0
                0x08007cd4       0xe8 CMakeFiles/n7six.ApeX-k1.v7.6.5br1.dir/App/app/main.c.obj
 .text.channelMove
                0x08007dbc       0x60 CMakeFiles/n7six.ApeX-k1.v7.6.5br1.dir/App/app/main.c.obj
                0x08007dbc                channelMove
 .text.channelMoveSwitch
                0x08007e1c       0x68 CMakeFiles/n7six.ApeX-k1.v7.6.5br1.dir/App/app/main.c.obj
                0x08007e1c                channelMoveSwitch
 .text.MAIN_ProcessKeys
                0x08007e84      0x5b0 CMakeFiles/n7six.ApeX-k1.v7.6.5br1.dir/App/app/main.c.obj
                0x08007e84                MAIN_ProcessKeys
 .text.MENU_StartCssScan
                0x08008434       0x24 CMakeFiles/n7six.ApeX-k1.v7.6.5br1.dir/App/app/menu.c.obj
                0x08008434                MENU_StartCssScan
 .text.MENU_StopCssScan
                0x08008458       0x20 CMakeFiles/n7six.ApeX-k1.v7.6.5br1.dir/App/app/menu.c.obj
                0x08008458                MENU_StopCssScan
 .text.MENU_GetLimits
                0x08008478       0xe4 CMakeFiles/n7six.ApeX-k1.v7.6.5br1.dir/App/app/menu.c.obj
                0x08008478                MENU_GetLimits
 .text.MENU_Key_UP_DOWN
                0x0800855c      0x1c8 CMakeFiles/n7six.ApeX-k1.v7.6.5br1.dir/App/app/menu.c.obj
 .text.MENU_AcceptSetting
                0x08008724      0x5bc CMakeFiles/n7six.ApeX-k1.v7.6.5br1.dir/App/app/menu.c.obj
                0x08008724                MENU_AcceptSetting
 .text.MENU_ShowCurrentSetting
                0x08008ce0      0x408 CMakeFiles/n7six.ApeX-k1.v7.6.5br1.dir/App/app/menu.c.obj
                0x08008ce0                MENU_ShowCurrentSetting
 .text.MENU_CssScanFound
                0x080090e8       0x3c CMakeFiles/n7six.ApeX-k1.v7.6.5br1.dir/App/app/menu.c.obj
                0x080090e8                MENU_CssScanFound
 .text.MENU_ProcessKeys
                0x08009124      0x550 CMakeFiles/n7six.ApeX-k1.v7.6.5br1.dir/App/app/menu.c.obj
                0x08009124                MENU_ProcessKeys
 .text.SCANNER_Key_UP_DOWN
                0x08009674       0x68 CMakeFiles/n7six.ApeX-k1.v7.6.5br1.dir/App/app/scanner.c.obj
 .text.SCANNER_Start
                0x080096dc      0x108 CMakeFiles/n7six.ApeX-k1.v7.6.5br1.dir/App/app/scanner.c.obj
                0x080096dc                SCANNER_Start
 .text.SCANNER_IsScanning
                0x080097e4       0x20 CMakeFiles/n7six.ApeX-k1.v7.6.5br1.dir/App/app/scanner.c.obj
                0x080097e4                SCANNER_IsScanning
 .text.SCANNER_Stop
                0x08009804       0x50 CMakeFiles/n7six.ApeX-k1.v7.6.5br1.dir/App/app/scanner.c.obj
                0x08009804                SCANNER_Stop
 .text.SCANNER_ProcessKeys
                0x08009854      0x2bc CMakeFiles/n7six.ApeX-k1.v7.6.5br1.dir/App/app/scanner.c.obj
                0x08009854                SCANNER_ProcessKeys
 .text.SCANNER_TimeSlice10ms
                0x08009b10      0x184 CMakeFiles/n7six.ApeX-k1.v7.6.5br1.dir/App/app/scanner.c.obj
                0x08009b10                SCANNER_TimeSlice10ms
 .text.SCANNER_TimeSlice500ms
                0x08009c94       0x48 CMakeFiles/n7six.ApeX-k1.v7.6.5br1.dir/App/app/scanner.c.obj
                0x08009c94                SCANNER_TimeSlice500ms
 .text.AUDIO_PlayBeep
                0x08009cdc      0x178 CMakeFiles/n7six.ApeX-k1.v7.6.5br1.dir/App/audio.c.obj
                0x08009cdc                AUDIO_PlayBeep
 .text.BOARD_GPIO_Init
                0x08009e54       0xbc CMakeFiles/n7six.ApeX-k1.v7.6.5br1.dir/App/board.c.obj
                0x08009e54                BOARD_GPIO_Init
 .text.BOARD_ADC_Init
                0x08009f10      0x1bc CMakeFiles/n7six.ApeX-k1.v7.6.5br1.dir/App/board.c.obj
                0x08009f10                BOARD_ADC_Init
 .text.BOARD_ADC_GetBatteryInfo
                0x0800a0cc       0x2c CMakeFiles/n7six.ApeX-k1.v7.6.5br1.dir/App/board.c.obj
                0x0800a0cc                BOARD_ADC_GetBatteryInfo
 .text.BOARD_Init
                0x0800a0f8       0x20 CMakeFiles/n7six.ApeX-k1.v7.6.5br1.dir/App/board.c.obj
                0x0800a0f8                BOARD_Init
 .text.DCS_GetGolayCodeWord
                0x0800a118       0x4c CMakeFiles/n7six.ApeX-k1.v7.6.5br1.dir/App/dcs.c.obj
                0x0800a118                DCS_GetGolayCodeWord
 .text.DCS_GetCdcssCode
                0x0800a164       0x5c CMakeFiles/n7six.ApeX-k1.v7.6.5br1.dir/App/dcs.c.obj
                0x0800a164                DCS_GetCdcssCode
 .text.DCS_GetCtcssCode
                0x0800a1c0       0x2c CMakeFiles/n7six.ApeX-k1.v7.6.5br1.dir/App/dcs.c.obj
                0x0800a1c0                DCS_GetCtcssCode
 .text.FREQUENCY_GetStepIdxFromSortedIdx
                0x0800a1ec        0xc CMakeFiles/n7six.ApeX-k1.v7.6.5br1.dir/App/frequencies.c.obj
                0x0800a1ec                FREQUENCY_GetStepIdxFromSortedIdx
 .text.FREQUENCY_GetSortedIdxFromStepIdx
                0x0800a1f8       0x1c CMakeFiles/n7six.ApeX-k1.v7.6.5br1.dir/App/frequencies.c.obj
                0x0800a1f8                FREQUENCY_GetSortedIdxFromStepIdx
 .text.FREQUENCY_GetBand
                0x0800a214       0x1c CMakeFiles/n7six.ApeX-k1.v7.6.5br1.dir/App/frequencies.c.obj
                0x0800a214                FREQUENCY_GetBand
 .text.FREQUENCY_CalculateOutputPower
                0x0800a230       0x36 CMakeFiles/n7six.ApeX-k1.v7.6.5br1.dir/App/frequencies.c.obj
                0x0800a230                FREQUENCY_CalculateOutputPower
 *fill*         0x0800a266        0x2 
 .text.FREQUENCY_RoundToStep
                0x0800a268       0x64 CMakeFiles/n7six.ApeX-k1.v7.6.5br1.dir/App/frequencies.c.obj
                0x0800a268                FREQUENCY_RoundToStep
 .text.TX_freq_check
                0x0800a2cc      0x1a4 CMakeFiles/n7six.ApeX-k1.v7.6.5br1.dir/App/frequencies.c.obj
                0x0800a2cc                TX_freq_check
 .text.RX_freq_check
                0x0800a470       0x34 CMakeFiles/n7six.ApeX-k1.v7.6.5br1.dir/App/frequencies.c.obj
                0x0800a470                RX_freq_check
 .text.FUNCTION_IsRx
                0x0800a4a4       0x18 CMakeFiles/n7six.ApeX-k1.v7.6.5br1.dir/App/functions.c.obj
                0x0800a4a4                FUNCTION_IsRx
 .text.FUNCTION_Init
                0x0800a4bc       0x90 CMakeFiles/n7six.ApeX-k1.v7.6.5br1.dir/App/functions.c.obj
                0x0800a4bc                FUNCTION_Init
 .text.FUNCTION_Foreground
                0x0800a54c       0x44 CMakeFiles/n7six.ApeX-k1.v7.6.5br1.dir/App/functions.c.obj
                0x0800a54c                FUNCTION_Foreground
 .text.FUNCTION_PowerSave
                0x0800a590       0x80 CMakeFiles/n7six.ApeX-k1.v7.6.5br1.dir/App/functions.c.obj
                0x0800a590                FUNCTION_PowerSave
 .text.FUNCTION_Transmit
                0x0800a610       0xd0 CMakeFiles/n7six.ApeX-k1.v7.6.5br1.dir/App/functions.c.obj
                0x0800a610                FUNCTION_Transmit
 .text.FUNCTION_Select
                0x0800a6e0       0xd0 CMakeFiles/n7six.ApeX-k1.v7.6.5br1.dir/App/functions.c.obj
                0x0800a6e0                FUNCTION_Select
 .text.BATTERY_VoltsToPercent
                0x0800a7b0       0x7c CMakeFiles/n7six.ApeX-k1.v7.6.5br1.dir/App/helper/battery.c.obj
                0x0800a7b0                BATTERY_VoltsToPercent
 .text.BATTERY_GetReadings
                0x0800a82c      0x154 CMakeFiles/n7six.ApeX-k1.v7.6.5br1.dir/App/helper/battery.c.obj
                0x0800a82c                BATTERY_GetReadings
 .text.BATTERY_TimeSlice500ms
                0x0800a980       0xb4 CMakeFiles/n7six.ApeX-k1.v7.6.5br1.dir/App/helper/battery.c.obj
                0x0800a980                BATTERY_TimeSlice500ms
 .text.BOOT_GetMode
                0x0800aa34       0x74 CMakeFiles/n7six.ApeX-k1.v7.6.5br1.dir/App/helper/boot.c.obj
                0x0800aa34                BOOT_GetMode
 .text.BOOT_ProcessMode
                0x0800aaa8       0x9c CMakeFiles/n7six.ApeX-k1.v7.6.5br1.dir/App/helper/boot.c.obj
                0x0800aaa8                BOOT_ProcessMode
 .text.FUNCTION_NOP
                0x0800ab44        0x2 CMakeFiles/n7six.ApeX-k1.v7.6.5br1.dir/App/misc.c.obj
                0x0800ab44                FUNCTION_NOP
 *fill*         0x0800ab46        0x2 
 .text.NUMBER_AddWithWraparound
                0x0800ab48       0x20 CMakeFiles/n7six.ApeX-k1.v7.6.5br1.dir/App/misc.c.obj
                0x0800ab48                NUMBER_AddWithWraparound
 .text.StrToUL  0x0800ab68       0x2a CMakeFiles/n7six.ApeX-k1.v7.6.5br1.dir/App/misc.c.obj
                0x0800ab68                StrToUL
 *fill*         0x0800ab92        0x2 
 .text.RADIO_SelectCurrentVfo
                0x0800ab94       0x2c CMakeFiles/n7six.ApeX-k1.v7.6.5br1.dir/App/radio.c.obj
 .text.RADIO_CheckValidChannel
                0x0800abc0       0x88 CMakeFiles/n7six.ApeX-k1.v7.6.5br1.dir/App/radio.c.obj
                0x0800abc0                RADIO_CheckValidChannel
 .text.RADIO_FindNextChannel
                0x0800ac48       0x3c CMakeFiles/n7six.ApeX-k1.v7.6.5br1.dir/App/radio.c.obj
                0x0800ac48                RADIO_FindNextChannel
 .text.RADIO_ConfigureSquelchAndOutputPower
                0x0800ac84      0x1d4 CMakeFiles/n7six.ApeX-k1.v7.6.5br1.dir/App/radio.c.obj
                0x0800ac84                RADIO_ConfigureSquelchAndOutputPower
 .text.RADIO_InitInfo
                0x0800ae58       0x6c CMakeFiles/n7six.ApeX-k1.v7.6.5br1.dir/App/radio.c.obj
                0x0800ae58                RADIO_InitInfo
 .text.RADIO_ApplyOffset
                0x0800aec4       0x1c CMakeFiles/n7six.ApeX-k1.v7.6.5br1.dir/App/radio.c.obj
                0x0800aec4                RADIO_ApplyOffset
 .text.RADIO_ConfigureChannel
                0x0800aee0      0x3c8 CMakeFiles/n7six.ApeX-k1.v7.6.5br1.dir/App/radio.c.obj
                0x0800aee0                RADIO_ConfigureChannel
 .text.RADIO_SelectVfos
                0x0800b2a8       0x44 CMakeFiles/n7six.ApeX-k1.v7.6.5br1.dir/App/radio.c.obj
                0x0800b2a8                RADIO_SelectVfos
 .text.RADIO_SetTxParameters
                0x0800b2ec       0xe4 CMakeFiles/n7six.ApeX-k1.v7.6.5br1.dir/App/radio.c.obj
                0x0800b2ec                RADIO_SetTxParameters
 .text.RADIO_SetupAGC
                0x0800b3d0       0x38 CMakeFiles/n7six.ApeX-k1.v7.6.5br1.dir/App/radio.c.obj
                0x0800b3d0                RADIO_SetupAGC
 .text.RADIO_SetupRegisters
                0x0800b408      0x204 CMakeFiles/n7six.ApeX-k1.v7.6.5br1.dir/App/radio.c.obj
                0x0800b408                RADIO_SetupRegisters
 .text.RADIO_SetModulation
                0x0800b60c      0x110 CMakeFiles/n7six.ApeX-k1.v7.6.5br1.dir/App/radio.c.obj
                0x0800b60c                RADIO_SetModulation
 .text.RADIO_SetVfoState
                0x0800b71c       0x4c CMakeFiles/n7six.ApeX-k1.v7.6.5br1.dir/App/radio.c.obj
                0x0800b71c                RADIO_SetVfoState
 .text.RADIO_PrepareTX
                0x0800b768      0x140 CMakeFiles/n7six.ApeX-k1.v7.6.5br1.dir/App/radio.c.obj
                0x0800b768                RADIO_PrepareTX
 .text.RADIO_SendCssTail
                0x0800b8a8       0x28 CMakeFiles/n7six.ApeX-k1.v7.6.5br1.dir/App/radio.c.obj
                0x0800b8a8                RADIO_SendCssTail
 .text.RADIO_SendEndOfTransmission
                0x0800b8d0       0x24 CMakeFiles/n7six.ApeX-k1.v7.6.5br1.dir/App/radio.c.obj
                0x0800b8d0                RADIO_SendEndOfTransmission
 .text.RADIO_OnSaveChannel
                0x0800b8f4        0xa CMakeFiles/n7six.ApeX-k1.v7.6.5br1.dir/App/radio.c.obj
                0x0800b8f4                RADIO_OnSaveChannel
 *fill*         0x0800b8fe        0x2 
 .text.SysTick_Handler
                0x0800b900      0x228 CMakeFiles/n7six.ApeX-k1.v7.6.5br1.dir/App/scheduler.c.obj
                0x0800b900                SysTick_Handler
 .text.SETTINGS_InitEEPROM
                0x0800bb28      0x5ec CMakeFiles/n7six.ApeX-k1.v7.6.5br1.dir/App/settings.c.obj
                0x0800bb28                SETTINGS_InitEEPROM
 .text.SETTINGS_LoadCalibration
                0x0800c114      0x168 CMakeFiles/n7six.ApeX-k1.v7.6.5br1.dir/App/settings.c.obj
                0x0800c114                SETTINGS_LoadCalibration
 .text.SETTINGS_FetchChannelFrequency
                0x0800c27c       0x10 CMakeFiles/n7six.ApeX-k1.v7.6.5br1.dir/App/settings.c.obj
                0x0800c27c                SETTINGS_FetchChannelFrequency
 .text.SETTINGS_FetchChannelName
                0x0800c28c       0x52 CMakeFiles/n7six.ApeX-k1.v7.6.5br1.dir/App/settings.c.obj
                0x0800c28c                SETTINGS_FetchChannelName
 *fill*         0x0800c2de        0x2 
 .text.SETTINGS_FactoryReset
                0x0800c2e0       0xdc CMakeFiles/n7six.ApeX-k1.v7.6.5br1.dir/App/settings.c.obj
                0x0800c2e0                SETTINGS_FactoryReset
 .text.SETTINGS_SaveFM
                0x0800c3bc       0x58 CMakeFiles/n7six.ApeX-k1.v7.6.5br1.dir/App/settings.c.obj
                0x0800c3bc                SETTINGS_SaveFM
 .text.SETTINGS_SaveVfoIndices
                0x0800c414       0x3c CMakeFiles/n7six.ApeX-k1.v7.6.5br1.dir/App/settings.c.obj
                0x0800c414                SETTINGS_SaveVfoIndices
 .text.SETTINGS_SaveSettings
                0x0800c450      0x368 CMakeFiles/n7six.ApeX-k1.v7.6.5br1.dir/App/settings.c.obj
                0x0800c450                SETTINGS_SaveSettings
 .text.SETTINGS_SaveBatteryCalibration
                0x0800c7b8       0x14 CMakeFiles/n7six.ApeX-k1.v7.6.5br1.dir/App/settings.c.obj
                0x0800c7b8                SETTINGS_SaveBatteryCalibration
 .text.SETTINGS_SaveChannelName
                0x0800c7cc       0x44 CMakeFiles/n7six.ApeX-k1.v7.6.5br1.dir/App/settings.c.obj
                0x0800c7cc                SETTINGS_SaveChannelName
 .text.SETTINGS_UpdateChannel
                0x0800c810       0xc4 CMakeFiles/n7six.ApeX-k1.v7.6.5br1.dir/App/settings.c.obj
                0x0800c810                SETTINGS_UpdateChannel
 .text.SETTINGS_SaveChannel
                0x0800c8d4       0xd0 CMakeFiles/n7six.ApeX-k1.v7.6.5br1.dir/App/settings.c.obj
                0x0800c8d4                SETTINGS_SaveChannel
 .text.SETTINGS_WriteBuildOptions
                0x0800c9a4       0x28 CMakeFiles/n7six.ApeX-k1.v7.6.5br1.dir/App/settings.c.obj
                0x0800c9a4                SETTINGS_WriteBuildOptions
 .text.SETTINGS_WriteCurrentState
                0x0800c9cc       0x48 CMakeFiles/n7six.ApeX-k1.v7.6.5br1.dir/App/settings.c.obj
                0x0800c9cc                SETTINGS_WriteCurrentState
 .text.SETTINGS_ResetTxLock
                0x0800ca14       0x46 CMakeFiles/n7six.ApeX-k1.v7.6.5br1.dir/App/settings.c.obj
                0x0800ca14                SETTINGS_ResetTxLock
 .text.SETTINGS_OnSaveChannel
                0x0800ca5a        0x8 CMakeFiles/n7six.ApeX-k1.v7.6.5br1.dir/App/settings.c.obj
                0x0800ca5a                SETTINGS_OnSaveChannel
 *fill*         0x0800ca62        0x2 
 .text.UI_DrawBattery
                0x0800ca64       0x50 CMakeFiles/n7six.ApeX-k1.v7.6.5br1.dir/App/ui/battery.c.obj
                0x0800ca64                UI_DrawBattery
 .text.UI_DisplayBattery
                0x0800cab4       0x1c CMakeFiles/n7six.ApeX-k1.v7.6.5br1.dir/App/ui/battery.c.obj
                0x0800cab4                UI_DisplayBattery
 .text.UI_GenerateChannelString
                0x0800cad0       0x4c CMakeFiles/n7six.ApeX-k1.v7.6.5br1.dir/App/ui/helper.c.obj
                0x0800cad0                UI_GenerateChannelString
 .text.UI_GenerateChannelStringEx
                0x0800cb1c       0x68 CMakeFiles/n7six.ApeX-k1.v7.6.5br1.dir/App/ui/helper.c.obj
                0x0800cb1c                UI_GenerateChannelStringEx
 .text.UI_PrintStringBuffer
                0x0800cb84       0x4c CMakeFiles/n7six.ApeX-k1.v7.6.5br1.dir/App/ui/helper.c.obj
                0x0800cb84                UI_PrintStringBuffer
 .text.UI_PrintString
                0x0800cbd0       0x90 CMakeFiles/n7six.ApeX-k1.v7.6.5br1.dir/App/ui/helper.c.obj
                0x0800cbd0                UI_PrintString
 .text.UI_PrintStringSmall
                0x0800cc60       0x40 CMakeFiles/n7six.ApeX-k1.v7.6.5br1.dir/App/ui/helper.c.obj
                0x0800cc60                UI_PrintStringSmall
 .text.UI_PrintStringSmallNormal
                0x0800cca0       0x14 CMakeFiles/n7six.ApeX-k1.v7.6.5br1.dir/App/ui/helper.c.obj
                0x0800cca0                UI_PrintStringSmallNormal
 .text.UI_PrintStringSmallBold
                0x0800ccb4       0x14 CMakeFiles/n7six.ApeX-k1.v7.6.5br1.dir/App/ui/helper.c.obj
                0x0800ccb4                UI_PrintStringSmallBold
 .text.UI_PrintStringSmallBufferNormal
                0x0800ccc8       0x10 CMakeFiles/n7six.ApeX-k1.v7.6.5br1.dir/App/ui/helper.c.obj
                0x0800ccc8                UI_PrintStringSmallBufferNormal
 .text.UI_DisplayFrequency
                0x0800ccd8       0xcc CMakeFiles/n7six.ApeX-k1.v7.6.5br1.dir/App/ui/helper.c.obj
                0x0800ccd8                UI_DisplayFrequency
 .text.UI_DrawPixelBuffer
                0x0800cda4       0x2e CMakeFiles/n7six.ApeX-k1.v7.6.5br1.dir/App/ui/helper.c.obj
                0x0800cda4                UI_DrawPixelBuffer
 *fill*         0x0800cdd2        0x2 
 .text.PutPixel
                0x0800cdd4       0x18 CMakeFiles/n7six.ApeX-k1.v7.6.5br1.dir/App/ui/helper.c.obj
                0x0800cdd4                PutPixel
 .text.PutPixelStatus
                0x0800cdec       0x18 CMakeFiles/n7six.ApeX-k1.v7.6.5br1.dir/App/ui/helper.c.obj
                0x0800cdec                PutPixelStatus
 .text.GUI_DisplaySmallest
                0x0800ce04       0x7c CMakeFiles/n7six.ApeX-k1.v7.6.5br1.dir/App/ui/helper.c.obj
                0x0800ce04                GUI_DisplaySmallest
 .text.UI_DrawLineBuffer
                0x0800ce80       0x94 CMakeFiles/n7six.ApeX-k1.v7.6.5br1.dir/App/ui/helper.c.obj
                0x0800ce80                UI_DrawLineBuffer
 .text.UI_DrawRectangleBuffer
                0x0800cf14       0x54 CMakeFiles/n7six.ApeX-k1.v7.6.5br1.dir/App/ui/helper.c.obj
                0x0800cf14                UI_DrawRectangleBuffer
 .text.UI_DisplayClear
                0x0800cf68       0x14 CMakeFiles/n7six.ApeX-k1.v7.6.5br1.dir/App/ui/helper.c.obj
                0x0800cf68                UI_DisplayClear
 .text.UI_DisplayPopup
                0x0800cf7c       0x2c CMakeFiles/n7six.ApeX-k1.v7.6.5br1.dir/App/ui/helper.c.obj
                0x0800cf7c                UI_DisplayPopup
 .text.INPUTBOX_Append
                0x0800cfa8       0x30 CMakeFiles/n7six.ApeX-k1.v7.6.5br1.dir/App/ui/inputbox.c.obj
                0x0800cfa8                INPUTBOX_Append
 .text.INPUTBOX_GetAscii
                0x0800cfd8       0x28 CMakeFiles/n7six.ApeX-k1.v7.6.5br1.dir/App/ui/inputbox.c.obj
                0x0800cfd8                INPUTBOX_GetAscii
 .text.isMainOnly
                0x0800d000       0x18 CMakeFiles/n7six.ApeX-k1.v7.6.5br1.dir/App/ui/main.c.obj
 .text.DrawLevelBar
                0x0800d018       0x88 CMakeFiles/n7six.ApeX-k1.v7.6.5br1.dir/App/ui/main.c.obj
 .text.UI_HighlightRoundedBox.constprop.0
                0x0800d0a0       0x84 CMakeFiles/n7six.ApeX-k1.v7.6.5br1.dir/App/ui/main.c.obj
 .text.log2_approx
                0x0800d124       0x10 CMakeFiles/n7six.ApeX-k1.v7.6.5br1.dir/App/ui/main.c.obj
                0x0800d124                log2_approx
 .text.UI_DisplayAudioBar
                0x0800d134      0x130 CMakeFiles/n7six.ApeX-k1.v7.6.5br1.dir/App/ui/main.c.obj
                0x0800d134                UI_DisplayAudioBar
 .text.DisplayRSSIBar
                0x0800d264      0x1e4 CMakeFiles/n7six.ApeX-k1.v7.6.5br1.dir/App/ui/main.c.obj
                0x0800d264                DisplayRSSIBar
 .text.UI_MAIN_TimeSlice500ms
                0x0800d448       0xa4 CMakeFiles/n7six.ApeX-k1.v7.6.5br1.dir/App/ui/main.c.obj
                0x0800d448                UI_MAIN_TimeSlice500ms
 .text.UI_DisplayMain
                0x0800d4ec      0xcc8 CMakeFiles/n7six.ApeX-k1.v7.6.5br1.dir/App/ui/main.c.obj
                0x0800d4ec                UI_DisplayMain
 .text.UI_MENU_GetCurrentMenuId
                0x0800e1b4       0x1c CMakeFiles/n7six.ApeX-k1.v7.6.5br1.dir/App/ui/menu.c.obj
                0x0800e1b4                UI_MENU_GetCurrentMenuId
 .text.UI_MENU_GetMenuIdx
                0x0800e1d0       0x20 CMakeFiles/n7six.ApeX-k1.v7.6.5br1.dir/App/ui/menu.c.obj
                0x0800e1d0                UI_MENU_GetMenuIdx
 .text.UI_DisplayMenu
                0x0800e1f0      0xb74 CMakeFiles/n7six.ApeX-k1.v7.6.5br1.dir/App/ui/menu.c.obj
                0x0800e1f0                UI_DisplayMenu
 .text.UI_DisplayScanner
                0x0800ed64      0x198 CMakeFiles/n7six.ApeX-k1.v7.6.5br1.dir/App/ui/scanner.c.obj
                0x0800ed64                UI_DisplayScanner
 .text.convertTime.constprop.0
                0x0800eefc       0x64 CMakeFiles/n7six.ApeX-k1.v7.6.5br1.dir/App/ui/status.c.obj
 .text.UI_DisplayStatus
                0x0800ef60      0x2b4 CMakeFiles/n7six.ApeX-k1.v7.6.5br1.dir/App/ui/status.c.obj
                0x0800ef60                UI_DisplayStatus
 .text.GUI_DisplayScreen
                0x0800f214       0x1c CMakeFiles/n7six.ApeX-k1.v7.6.5br1.dir/App/ui/ui.c.obj
                0x0800f214                GUI_DisplayScreen
 .text.GUI_SelectNextDisplay
                0x0800f230       0x7c CMakeFiles/n7six.ApeX-k1.v7.6.5br1.dir/App/ui/ui.c.obj
                0x0800f230                GUI_SelectNextDisplay
 .text.UI_OnChannelChange
                0x0800f2ac        0xc CMakeFiles/n7six.ApeX-k1.v7.6.5br1.dir/App/ui/ui.c.obj
                0x0800f2ac                UI_OnChannelChange
 .text.UI_DisplayReleaseKeys
                0x0800f2b8       0x48 CMakeFiles/n7six.ApeX-k1.v7.6.5br1.dir/App/ui/welcome.c.obj
                0x0800f2b8                UI_DisplayReleaseKeys
 .text.UI_DisplayWelcome
                0x0800f300      0x1a8 CMakeFiles/n7six.ApeX-k1.v7.6.5br1.dir/App/ui/welcome.c.obj
                0x0800f300                UI_DisplayWelcome
 .text.Main     0x0800f4a8      0x34c CMakeFiles/n7six.ApeX-k1.v7.6.5br1.dir/App/main.c.obj
                0x0800f4a8                Main
 .text._out_buffer
                0x0800f7f4        0x8 CMakeFiles/n7six.ApeX-k1.v7.6.5br1.dir/App/external/printf/printf.c.obj
 .text._out_null
                0x0800f7fc        0x2 CMakeFiles/n7six.ApeX-k1.v7.6.5br1.dir/App/external/printf/printf.c.obj
 .text._ntoa_long
                0x0800f7fe      0x1c2 CMakeFiles/n7six.ApeX-k1.v7.6.5br1.dir/App/external/printf/printf.c.obj
 .text._vsnprintf
                0x0800f9c0      0x42c CMakeFiles/n7six.ApeX-k1.v7.6.5br1.dir/App/external/printf/printf.c.obj
 .text.sprintf_
                0x0800fdec       0x28 CMakeFiles/n7six.ApeX-k1.v7.6.5br1.dir/App/external/printf/printf.c.obj
                0x0800fdec                sprintf_
 .text.CRC_Init
                0x0800fe14        0x2 CMakeFiles/n7six.ApeX-k1.v7.6.5br1.dir/App/driver/crc.c.obj
                0x0800fe14                CRC_Init
 *fill*         0x0800fe16        0x2 
 .text.CRC_Calculate
                0x0800fe18       0x3c CMakeFiles/n7six.ApeX-k1.v7.6.5br1.dir/App/driver/crc.c.obj
                0x0800fe18                CRC_Calculate
 .text.AddrTranslate
                0x0800fe54       0x70 CMakeFiles/n7six.ApeX-k1.v7.6.5br1.dir/App/driver/eeprom_compat.c.obj
 .text.EEPROM_ReadBuffer
                0x0800fec4       0x52 CMakeFiles/n7six.ApeX-k1.v7.6.5br1.dir/App/driver/eeprom_compat.c.obj
                0x0800fec4                EEPROM_ReadBuffer
 .text.EEPROM_WriteBuffer
                0x0800ff16       0x4a CMakeFiles/n7six.ApeX-k1.v7.6.5br1.dir/App/driver/eeprom_compat.c.obj
                0x0800ff16                EEPROM_WriteBuffer
 .text.UART_Init
                0x0800ff60      0x130 CMakeFiles/n7six.ApeX-k1.v7.6.5br1.dir/App/driver/uart.c.obj
                0x0800ff60                UART_Init
 .text.UART_Send
                0x08010090       0x20 CMakeFiles/n7six.ApeX-k1.v7.6.5br1.dir/App/driver/uart.c.obj
                0x08010090                UART_Send
 .text.UART_IsCableConnected
                0x080100b0       0x24 CMakeFiles/n7six.ApeX-k1.v7.6.5br1.dir/App/driver/uart.c.obj
                0x080100b0                UART_IsCableConnected
 .text.SendReply
                0x080100d4       0xd0 CMakeFiles/n7six.ApeX-k1.v7.6.5br1.dir/App/app/uart.c.obj
 .text.UART_IsCommandAvailable
                0x080101a4      0x184 CMakeFiles/n7six.ApeX-k1.v7.6.5br1.dir/App/app/uart.c.obj
                0x080101a4                UART_IsCommandAvailable
 .text.UART_HandleCommand
                0x08010328      0x210 CMakeFiles/n7six.ApeX-k1.v7.6.5br1.dir/App/app/uart.c.obj
                0x08010328                UART_HandleCommand
 .text.VCP_Init
                0x08010538       0x74 CMakeFiles/n7six.ApeX-k1.v7.6.5br1.dir/App/driver/vcp.c.obj
                0x08010538                VCP_Init
 .text.usbd_cdc_acm_bulk_out
                0x080105ac       0x74 CMakeFiles/n7six.ApeX-k1.v7.6.5br1.dir/App/usb/usbd_cdc_if.c.obj
                0x080105ac                usbd_cdc_acm_bulk_out
 .text.usbd_cdc_acm_bulk_in
                0x08010620       0x28 CMakeFiles/n7six.ApeX-k1.v7.6.5br1.dir/App/usb/usbd_cdc_if.c.obj
                0x08010620                usbd_cdc_acm_bulk_in
 .text.usbd_configure_done_callback
                0x08010648       0x14 CMakeFiles/n7six.ApeX-k1.v7.6.5br1.dir/App/usb/usbd_cdc_if.c.obj
                0x08010648                usbd_configure_done_callback
 .text.cdc_acm_init
                0x0801065c       0x60 CMakeFiles/n7six.ApeX-k1.v7.6.5br1.dir/App/usb/usbd_cdc_if.c.obj
                0x0801065c                cdc_acm_init
 .text.usbd_cdc_acm_set_dtr
                0x080106bc       0x14 CMakeFiles/n7six.ApeX-k1.v7.6.5br1.dir/App/usb/usbd_cdc_if.c.obj
                0x080106bc                usbd_cdc_acm_set_dtr
 .text.cdc_acm_data_send_with_dtr_async
                0x080106d0       0x12 CMakeFiles/n7six.ApeX-k1.v7.6.5br1.dir/App/usb/usbd_cdc_if.c.obj
                0x080106d0                cdc_acm_data_send_with_dtr_async
 .text.BK1080_ReadRegister
                0x080106e2       0x30 CMakeFiles/n7six.ApeX-k1.v7.6.5br1.dir/App/driver/bk1080.c.obj
                0x080106e2                BK1080_ReadRegister
 .text.BK1080_WriteRegister
                0x08010712       0x30 CMakeFiles/n7six.ApeX-k1.v7.6.5br1.dir/App/driver/bk1080.c.obj
                0x08010712                BK1080_WriteRegister
 *fill*         0x08010742        0x2 
 .text.BK1080_Init0
                0x08010744       0x10 CMakeFiles/n7six.ApeX-k1.v7.6.5br1.dir/App/driver/bk1080.c.obj
                0x08010744                BK1080_Init0
 .text.BK1080_Mute
                0x08010754       0x1c CMakeFiles/n7six.ApeX-k1.v7.6.5br1.dir/App/driver/bk1080.c.obj
                0x08010754                BK1080_Mute
 .text.BK1080_SetFrequency
                0x08010770       0x50 CMakeFiles/n7six.ApeX-k1.v7.6.5br1.dir/App/driver/bk1080.c.obj
                0x08010770                BK1080_SetFrequency
 .text.BK1080_Init
                0x080107c0       0x98 CMakeFiles/n7six.ApeX-k1.v7.6.5br1.dir/App/driver/bk1080.c.obj
                0x080107c0                BK1080_Init
 .text.BK1080_GetFrequencyDeviation
                0x08010858       0x1c CMakeFiles/n7six.ApeX-k1.v7.6.5br1.dir/App/driver/bk1080.c.obj
                0x08010858                BK1080_GetFrequencyDeviation
 .text.BK1080_GetFreqLoLimit
                0x08010874       0x10 CMakeFiles/n7six.ApeX-k1.v7.6.5br1.dir/App/driver/bk1080.c.obj
                0x08010874                BK1080_GetFreqLoLimit
 .text.BK1080_GetFreqHiLimit
                0x08010884       0x10 CMakeFiles/n7six.ApeX-k1.v7.6.5br1.dir/App/driver/bk1080.c.obj
                0x08010884                BK1080_GetFreqHiLimit
 .text.FM_CheckValidChannel
                0x08010894       0x3c CMakeFiles/n7six.ApeX-k1.v7.6.5br1.dir/App/app/fm.c.obj
                0x08010894                FM_CheckValidChannel
 .text.FM_FindNextChannel
                0x080108d0       0x34 CMakeFiles/n7six.ApeX-k1.v7.6.5br1.dir/App/app/fm.c.obj
                0x080108d0                FM_FindNextChannel
 .text.FM_ConfigureChannelState
                0x08010904       0x3c CMakeFiles/n7six.ApeX-k1.v7.6.5br1.dir/App/app/fm.c.obj
                0x08010904                FM_ConfigureChannelState
 .text.Key_FUNC
                0x08010940       0xa8 CMakeFiles/n7six.ApeX-k1.v7.6.5br1.dir/App/app/fm.c.obj
 .text.FM_TurnOff
                0x080109e8       0x58 CMakeFiles/n7six.ApeX-k1.v7.6.5br1.dir/App/app/fm.c.obj
                0x080109e8                FM_TurnOff
 .text.FM_EraseChannels
                0x08010a40       0x1c CMakeFiles/n7six.ApeX-k1.v7.6.5br1.dir/App/app/fm.c.obj
                0x08010a40                FM_EraseChannels
 .text.FM_Tune  0x08010a5c       0xb4 CMakeFiles/n7six.ApeX-k1.v7.6.5br1.dir/App/app/fm.c.obj
                0x08010a5c                FM_Tune
 .text.Key_UP_DOWN
                0x08010b10      0x104 CMakeFiles/n7six.ApeX-k1.v7.6.5br1.dir/App/app/fm.c.obj
 .text.FM_PlayAndUpdate
                0x08010c14       0x68 CMakeFiles/n7six.ApeX-k1.v7.6.5br1.dir/App/app/fm.c.obj
                0x08010c14                FM_PlayAndUpdate
 .text.FM_CheckFrequencyLock
                0x08010c7c       0x94 CMakeFiles/n7six.ApeX-k1.v7.6.5br1.dir/App/app/fm.c.obj
                0x08010c7c                FM_CheckFrequencyLock
 .text.FM_ProcessKeys
                0x08010d10      0x2ac CMakeFiles/n7six.ApeX-k1.v7.6.5br1.dir/App/app/fm.c.obj
                0x08010d10                FM_ProcessKeys
 .text.FM_Play  0x08010fbc       0xb4 CMakeFiles/n7six.ApeX-k1.v7.6.5br1.dir/App/app/fm.c.obj
                0x08010fbc                FM_Play
 .text.FM_Start
                0x08011070       0x68 CMakeFiles/n7six.ApeX-k1.v7.6.5br1.dir/App/app/fm.c.obj
                0x08011070                FM_Start
 .text.UI_DisplayFM
                0x080110d8      0x1d0 CMakeFiles/n7six.ApeX-k1.v7.6.5br1.dir/App/ui/fmradio.c.obj
                0x080110d8                UI_DisplayFM
 .text.AIRCOPY_clear
                0x080112a8       0x18 CMakeFiles/n7six.ApeX-k1.v7.6.5br1.dir/App/app/aircopy.c.obj
 .text.AIRCOPY_SendMessage
                0x080112c0       0xb4 CMakeFiles/n7six.ApeX-k1.v7.6.5br1.dir/App/app/aircopy.c.obj
                0x080112c0                AIRCOPY_SendMessage
 .text.AIRCOPY_StorePacket
                0x08011374       0xe0 CMakeFiles/n7six.ApeX-k1.v7.6.5br1.dir/App/app/aircopy.c.obj
                0x08011374                AIRCOPY_StorePacket
 .text.AIRCOPY_ProcessKeys
                0x08011454      0x158 CMakeFiles/n7six.ApeX-k1.v7.6.5br1.dir/App/app/aircopy.c.obj
                0x08011454                AIRCOPY_ProcessKeys
 .text.UI_DisplayAircopy
                0x080115ac      0x1f8 CMakeFiles/n7six.ApeX-k1.v7.6.5br1.dir/App/ui/aircopy.c.obj
                0x080115ac                UI_DisplayAircopy
 .text.FlashlightTimeSlice
                0x080117a4       0xa4 CMakeFiles/n7six.ApeX-k1.v7.6.5br1.dir/App/app/flashlight.c.obj
                0x080117a4                FlashlightTimeSlice
 .text.ACTION_FlashLight
                0x08011848       0x38 CMakeFiles/n7six.ApeX-k1.v7.6.5br1.dir/App/app/flashlight.c.obj
                0x08011848                ACTION_FlashLight
 .text.FastRandom
                0x08011880       0x20 CMakeFiles/n7six.ApeX-k1.v7.6.5br1.dir/App/app/spectrum.c.obj
 .text.Rssi2DBm
                0x080118a0       0x20 CMakeFiles/n7six.ApeX-k1.v7.6.5br1.dir/App/app/spectrum.c.obj
 .text.ResetScanStats
                0x080118c0       0x14 CMakeFiles/n7six.ApeX-k1.v7.6.5br1.dir/App/app/spectrum.c.obj
 .text.UpdatePeakInfo
                0x080118d4       0x90 CMakeFiles/n7six.ApeX-k1.v7.6.5br1.dir/App/app/spectrum.c.obj
 .text.MapMeasurementToDisplay
                0x08011964       0x20 CMakeFiles/n7six.ApeX-k1.v7.6.5br1.dir/App/app/spectrum.c.obj
 .text.GetCentroidFrequency
                0x08011984       0x94 CMakeFiles/n7six.ApeX-k1.v7.6.5br1.dir/App/app/spectrum.c.obj
 .text.SetRssiHistory
                0x08011a18       0x28 CMakeFiles/n7six.ApeX-k1.v7.6.5br1.dir/App/app/spectrum.c.obj
 .text.ToggleListeningBW
                0x08011a40       0x20 CMakeFiles/n7six.ApeX-k1.v7.6.5br1.dir/App/app/spectrum.c.obj
 .text.GetRegMenuValue
                0x08011a60       0x20 CMakeFiles/n7six.ApeX-k1.v7.6.5br1.dir/App/app/spectrum.c.obj
 .text.RestoreRegisters
                0x08011a80       0x2c CMakeFiles/n7six.ApeX-k1.v7.6.5br1.dir/App/app/spectrum.c.obj
 .text.SetF     0x08011aac       0x30 CMakeFiles/n7six.ApeX-k1.v7.6.5br1.dir/App/app/spectrum.c.obj
 .text.TuneToPeak
                0x08011adc       0x28 CMakeFiles/n7six.ApeX-k1.v7.6.5br1.dir/App/app/spectrum.c.obj
 .text.ResetBlacklist
                0x08011b04       0x3c CMakeFiles/n7six.ApeX-k1.v7.6.5br1.dir/App/app/spectrum.c.obj
 .text.ToggleBacklight
                0x08011b40       0x20 CMakeFiles/n7six.ApeX-k1.v7.6.5br1.dir/App/app/spectrum.c.obj
 .text.DrawF    0x08011b60       0xfc CMakeFiles/n7six.ApeX-k1.v7.6.5br1.dir/App/app/spectrum.c.obj
 .text.SetBandLed.part.0.constprop.0
                0x08011c5c       0x3c CMakeFiles/n7six.ApeX-k1.v7.6.5br1.dir/App/app/spectrum.c.obj
 .text.ToggleRX
                0x08011c98      0x118 CMakeFiles/n7six.ApeX-k1.v7.6.5br1.dir/App/app/spectrum.c.obj
 .text.UpdateDBMax
                0x08011db0       0x74 CMakeFiles/n7six.ApeX-k1.v7.6.5br1.dir/App/app/spectrum.c.obj
 .text.SYSTEM_DelayUs
                0x08011e24       0x12 CMakeFiles/n7six.ApeX-k1.v7.6.5br1.dir/App/app/spectrum.c.obj
                0x08011e24                SYSTEM_DelayUs
 .text.DrawLine
                0x08011e36       0x8c CMakeFiles/n7six.ApeX-k1.v7.6.5br1.dir/App/app/spectrum.c.obj
                0x08011e36                DrawLine
 *fill*         0x08011ec2        0x2 
 .text.LockAGC  0x08011ec4       0x24 CMakeFiles/n7six.ApeX-k1.v7.6.5br1.dir/App/app/spectrum.c.obj
                0x08011ec4                LockAGC
 .text.SetRegMenuValue
                0x08011ee8       0x78 CMakeFiles/n7six.ApeX-k1.v7.6.5br1.dir/App/app/spectrum.c.obj
 .text.IsPeakOverLevel
                0x08011f60       0x1c CMakeFiles/n7six.ApeX-k1.v7.6.5br1.dir/App/app/spectrum.c.obj
                0x08011f60                IsPeakOverLevel
 .text.GetScanStep
                0x08011f7c       0x14 CMakeFiles/n7six.ApeX-k1.v7.6.5br1.dir/App/app/spectrum.c.obj
                0x08011f7c                GetScanStep
 .text.GetStepsCount
                0x08011f90       0x38 CMakeFiles/n7six.ApeX-k1.v7.6.5br1.dir/App/app/spectrum.c.obj
                0x08011f90                GetStepsCount
 .text.GetDisplayWidth
                0x08011fc8       0x38 CMakeFiles/n7six.ApeX-k1.v7.6.5br1.dir/App/app/spectrum.c.obj
 .text.UpdateWaterfall
                0x08012000       0xf4 CMakeFiles/n7six.ApeX-k1.v7.6.5br1.dir/App/app/spectrum.c.obj
 .text.SpecIdxToX
                0x080120f4       0x1e CMakeFiles/n7six.ApeX-k1.v7.6.5br1.dir/App/app/spectrum.c.obj
 .text.GetBW    0x08012112       0x10 CMakeFiles/n7six.ApeX-k1.v7.6.5br1.dir/App/app/spectrum.c.obj
                0x08012112                GetBW
 *fill*         0x08012122        0x2 
 .text.GetFStart
                0x08012124       0x38 CMakeFiles/n7six.ApeX-k1.v7.6.5br1.dir/App/app/spectrum.c.obj
                0x08012124                GetFStart
 .text.InitScan
                0x0801215c       0x24 CMakeFiles/n7six.ApeX-k1.v7.6.5br1.dir/App/app/spectrum.c.obj
 .text.GetFEnd  0x08012180       0x3c CMakeFiles/n7six.ApeX-k1.v7.6.5br1.dir/App/app/spectrum.c.obj
                0x08012180                GetFEnd
 .text.GetRssi  0x080121bc       0x1e CMakeFiles/n7six.ApeX-k1.v7.6.5br1.dir/App/app/spectrum.c.obj
                0x080121bc                GetRssi
 *fill*         0x080121da        0x2 
 .text.Measure  0x080121dc       0x20 CMakeFiles/n7six.ApeX-k1.v7.6.5br1.dir/App/app/spectrum.c.obj
 .text.RelaunchScan
                0x080121fc       0x30 CMakeFiles/n7six.ApeX-k1.v7.6.5br1.dir/App/app/spectrum.c.obj
 .text.ToggleModulation
                0x0801222c       0x2c CMakeFiles/n7six.ApeX-k1.v7.6.5br1.dir/App/app/spectrum.c.obj
 .text.UpdateFreqChangeStep
                0x08012258       0x80 CMakeFiles/n7six.ApeX-k1.v7.6.5br1.dir/App/app/spectrum.c.obj
 .text.UpdateCurrentFreq
                0x080122d8       0x6c CMakeFiles/n7six.ApeX-k1.v7.6.5br1.dir/App/app/spectrum.c.obj
 .text.SetState
                0x08012344       0x3c CMakeFiles/n7six.ApeX-k1.v7.6.5br1.dir/App/app/spectrum.c.obj
                0x08012344                SetState
 .text.FreqInput
                0x08012380       0x3c CMakeFiles/n7six.ApeX-k1.v7.6.5br1.dir/App/app/spectrum.c.obj
 .text.UpdateFreqInput
                0x080123bc      0x19c CMakeFiles/n7six.ApeX-k1.v7.6.5br1.dir/App/app/spectrum.c.obj
 .text.Rssi2PX  0x08012558       0x74 CMakeFiles/n7six.ApeX-k1.v7.6.5br1.dir/App/app/spectrum.c.obj
                0x08012558                Rssi2PX
 .text.Rssi2Y   0x080125cc       0x12 CMakeFiles/n7six.ApeX-k1.v7.6.5br1.dir/App/app/spectrum.c.obj
                0x080125cc                Rssi2Y
 *fill*         0x080125de        0x2 
 .text.RenderSpectrum
                0x080125e0      0x62c CMakeFiles/n7six.ApeX-k1.v7.6.5br1.dir/App/app/spectrum.c.obj
 .text.UpdateRssiTriggerLevel
                0x08012c0c       0x30 CMakeFiles/n7six.ApeX-k1.v7.6.5br1.dir/App/app/spectrum.c.obj
                0x08012c0c                UpdateRssiTriggerLevel
 .text.OnKeyDownStill
                0x08012c3c      0x114 CMakeFiles/n7six.ApeX-k1.v7.6.5br1.dir/App/app/spectrum.c.obj
                0x08012c3c                OnKeyDownStill
 .text.APP_RunSpectrum
                0x08012d50      0xec4 CMakeFiles/n7six.ApeX-k1.v7.6.5br1.dir/App/app/spectrum.c.obj
                0x08012d50                APP_RunSpectrum
 .text.HandleUserInput.isra.0
                0x08013c14       0xec CMakeFiles/n7six.ApeX-k1.v7.6.5br1.dir/App/app/breakout.c.obj
 .text.rand_custom
                0x08013d00       0x20 CMakeFiles/n7six.ApeX-k1.v7.6.5br1.dir/App/app/breakout.c.obj
                0x08013d00                rand_custom
 .text.reset    0x08013d20       0x20 CMakeFiles/n7six.ApeX-k1.v7.6.5br1.dir/App/app/breakout.c.obj
                0x08013d20                reset
 .text.playBeep
                0x08013d40       0x24 CMakeFiles/n7six.ApeX-k1.v7.6.5br1.dir/App/app/breakout.c.obj
                0x08013d40                playBeep
 .text.drawScore
                0x08013d64       0x8c CMakeFiles/n7six.ApeX-k1.v7.6.5br1.dir/App/app/breakout.c.obj
                0x08013d64                drawScore
 .text.initBall
                0x08013df0       0x54 CMakeFiles/n7six.ApeX-k1.v7.6.5br1.dir/App/app/breakout.c.obj
                0x08013df0                initBall
 .text.initWall
                0x08013e44       0x68 CMakeFiles/n7six.ApeX-k1.v7.6.5br1.dir/App/app/breakout.c.obj
                0x08013e44                initWall
 .text.drawWall
                0x08013eac      0x144 CMakeFiles/n7six.ApeX-k1.v7.6.5br1.dir/App/app/breakout.c.obj
                0x08013eac                drawWall
 .text.initRacket
                0x08013ff0       0x4c CMakeFiles/n7six.ApeX-k1.v7.6.5br1.dir/App/app/breakout.c.obj
                0x08013ff0                initRacket
 .text.drawBall
                0x0801403c      0x1bc CMakeFiles/n7six.ApeX-k1.v7.6.5br1.dir/App/app/breakout.c.obj
                0x0801403c                drawBall
 .text.drawRacket
                0x080141f8       0x94 CMakeFiles/n7six.ApeX-k1.v7.6.5br1.dir/App/app/breakout.c.obj
                0x080141f8                drawRacket
 .text.APP_RunBreakout
                0x0801428c       0xf4 CMakeFiles/n7six.ApeX-k1.v7.6.5br1.dir/App/app/breakout.c.obj
                0x0801428c                APP_RunBreakout
 .text.getScreenShot
                0x08014380      0x1a4 CMakeFiles/n7six.ApeX-k1.v7.6.5br1.dir/App/screenshot.c.obj
                0x08014380                getScreenShot
 .text.usbd_class_event_notify_handler
                0x08014524       0x24 CMakeFiles/n7six.ApeX-k1.v7.6.5br1.dir/Middlewares/CherryUSB/core/usbd_core.c.obj
 .text.usbd_set_endpoint
                0x08014548       0x2c CMakeFiles/n7six.ApeX-k1.v7.6.5br1.dir/Middlewares/CherryUSB/core/usbd_core.c.obj
 .text.usbd_setup_request_handler.constprop.0
                0x08014574      0x380 CMakeFiles/n7six.ApeX-k1.v7.6.5br1.dir/Middlewares/CherryUSB/core/usbd_core.c.obj
 .text.usbd_event_resume_handler
                0x080148f4        0xc CMakeFiles/n7six.ApeX-k1.v7.6.5br1.dir/Middlewares/CherryUSB/core/usbd_core.c.obj
                0x080148f4                usbd_event_resume_handler
 .text.usbd_event_suspend_handler
                0x08014900        0xc CMakeFiles/n7six.ApeX-k1.v7.6.5br1.dir/Middlewares/CherryUSB/core/usbd_core.c.obj
                0x08014900                usbd_event_suspend_handler
 .text.usbd_event_reset_handler
                0x0801490c       0x38 CMakeFiles/n7six.ApeX-k1.v7.6.5br1.dir/Middlewares/CherryUSB/core/usbd_core.c.obj
                0x0801490c                usbd_event_reset_handler
 .text.usbd_event_ep0_setup_complete_handler
                0x08014944       0x94 CMakeFiles/n7six.ApeX-k1.v7.6.5br1.dir/Middlewares/CherryUSB/core/usbd_core.c.obj
                0x08014944                usbd_event_ep0_setup_complete_handler
 .text.usbd_event_ep_in_complete_handler
                0x080149d8       0x58 CMakeFiles/n7six.ApeX-k1.v7.6.5br1.dir/Middlewares/CherryUSB/core/usbd_core.c.obj
                0x080149d8                usbd_event_ep_in_complete_handler
 .text.usbd_event_ep_out_complete_handler
                0x08014a30       0x64 CMakeFiles/n7six.ApeX-k1.v7.6.5br1.dir/Middlewares/CherryUSB/core/usbd_core.c.obj
                0x08014a30                usbd_event_ep_out_complete_handler
 .text.usbd_desc_register
                0x08014a94       0x14 CMakeFiles/n7six.ApeX-k1.v7.6.5br1.dir/Middlewares/CherryUSB/core/usbd_core.c.obj
                0x08014a94                usbd_desc_register
 .text.usbd_add_interface
                0x08014aa8       0x2c CMakeFiles/n7six.ApeX-k1.v7.6.5br1.dir/Middlewares/CherryUSB/core/usbd_core.c.obj
                0x08014aa8                usbd_add_interface
 .text.usbd_add_endpoint
                0x08014ad4       0x2c CMakeFiles/n7six.ApeX-k1.v7.6.5br1.dir/Middlewares/CherryUSB/core/usbd_core.c.obj
                0x08014ad4                usbd_add_endpoint
 .text.usbd_initialize
                0x08014b00        0x8 CMakeFiles/n7six.ApeX-k1.v7.6.5br1.dir/Middlewares/CherryUSB/core/usbd_core.c.obj
                0x08014b00                usbd_initialize
 .text.pyusb_write_packet
                0x08014b08       0x20 CMakeFiles/n7six.ApeX-k1.v7.6.5br1.dir/Middlewares/CherryUSB/port/usb_dc_py32.c.obj
 .text.usbd_ep0_set_zlp_flag
                0x08014b28        0xc CMakeFiles/n7six.ApeX-k1.v7.6.5br1.dir/Middlewares/CherryUSB/port/usb_dc_py32.c.obj
                0x08014b28                usbd_ep0_set_zlp_flag
 .text.usb_dc_low_level_init
                0x08014b34        0x2 CMakeFiles/n7six.ApeX-k1.v7.6.5br1.dir/Middlewares/CherryUSB/port/usb_dc_py32.c.obj
                0x08014b34                usb_dc_low_level_init
 *fill*         0x08014b36        0x2 
 .text.usb_dc_init
                0x08014b38       0x20 CMakeFiles/n7six.ApeX-k1.v7.6.5br1.dir/Middlewares/CherryUSB/port/usb_dc_py32.c.obj
                0x08014b38                usb_dc_init
 .text.usbd_set_address
                0x08014b58       0x18 CMakeFiles/n7six.ApeX-k1.v7.6.5br1.dir/Middlewares/CherryUSB/port/usb_dc_py32.c.obj
                0x08014b58                usbd_set_address
 .text.usbd_ep_open
                0x08014b70      0x124 CMakeFiles/n7six.ApeX-k1.v7.6.5br1.dir/Middlewares/CherryUSB/port/usb_dc_py32.c.obj
                0x08014b70                usbd_ep_open
 .text.usbd_ep_close
                0x08014c94        0x4 CMakeFiles/n7six.ApeX-k1.v7.6.5br1.dir/Middlewares/CherryUSB/port/usb_dc_py32.c.obj
                0x08014c94                usbd_ep_close
 .text.usbd_ep_set_stall
                0x08014c98       0x4c CMakeFiles/n7six.ApeX-k1.v7.6.5br1.dir/Middlewares/CherryUSB/port/usb_dc_py32.c.obj
                0x08014c98                usbd_ep_set_stall
 .text.usbd_ep_clear_stall
                0x08014ce4       0x50 CMakeFiles/n7six.ApeX-k1.v7.6.5br1.dir/Middlewares/CherryUSB/port/usb_dc_py32.c.obj
                0x08014ce4                usbd_ep_clear_stall
 .text.usbd_ep_is_stalled
                0x08014d34       0x34 CMakeFiles/n7six.ApeX-k1.v7.6.5br1.dir/Middlewares/CherryUSB/port/usb_dc_py32.c.obj
                0x08014d34                usbd_ep_is_stalled
 .text.usbd_ep_start_write
                0x08014d68      0x10c CMakeFiles/n7six.ApeX-k1.v7.6.5br1.dir/Middlewares/CherryUSB/port/usb_dc_py32.c.obj
                0x08014d68                usbd_ep_start_write
 .text.usbd_ep_start_read
                0x08014e74       0x94 CMakeFiles/n7six.ApeX-k1.v7.6.5br1.dir/Middlewares/CherryUSB/port/usb_dc_py32.c.obj
                0x08014e74                usbd_ep_start_read
 .text.USB_IRQHandler
                0x08014f08      0x2a8 CMakeFiles/n7six.ApeX-k1.v7.6.5br1.dir/Middlewares/CherryUSB/port/usb_dc_py32.c.obj
                0x08014f08                USB_IRQHandler
 .text.cdc_notify_handler
                0x080151b0        0x2 CMakeFiles/n7six.ApeX-k1.v7.6.5br1.dir/Middlewares/CherryUSB/class/cdc/usbd_cdc.c.obj
 *fill*         0x080151b2        0x2 
 .text.usbd_cdc_acm_init_intf
                0x080151b4       0x18 CMakeFiles/n7six.ApeX-k1.v7.6.5br1.dir/Middlewares/CherryUSB/class/cdc/usbd_cdc.c.obj
                0x080151b4                usbd_cdc_acm_init_intf
 .text.usbd_cdc_acm_set_line_coding
                0x080151cc        0x2 CMakeFiles/n7six.ApeX-k1.v7.6.5br1.dir/Middlewares/CherryUSB/class/cdc/usbd_cdc.c.obj
                0x080151cc                usbd_cdc_acm_set_line_coding
 .text.usbd_cdc_acm_get_line_coding
                0x080151ce       0x1c CMakeFiles/n7six.ApeX-k1.v7.6.5br1.dir/Middlewares/CherryUSB/class/cdc/usbd_cdc.c.obj
                0x080151ce                usbd_cdc_acm_get_line_coding
 .text.usbd_cdc_acm_set_rts
                0x080151ea        0x2 CMakeFiles/n7six.ApeX-k1.v7.6.5br1.dir/Middlewares/CherryUSB/class/cdc/usbd_cdc.c.obj
                0x080151ea                usbd_cdc_acm_set_rts
 .text.cdc_acm_class_interface_request_handler
                0x080151ec       0x70 CMakeFiles/n7six.ApeX-k1.v7.6.5br1.dir/Middlewares/CherryUSB/class/cdc/usbd_cdc.c.obj
 .text.__muldi3
                0x0801525c       0x5c /opt/toolchain/bin/../lib/gcc/arm-none-eabi/13.3.1/thumb/v6-m/nofp/libgcc.a(_muldi3.o)
                0x0801525c                __aeabi_lmul
                0x0801525c                __muldi3
 .text.__fixunssfsi
                0x080152b8       0x30 /opt/toolchain/bin/../lib/gcc/arm-none-eabi/13.3.1/thumb/v6-m/nofp/libgcc.a(_fixunssfsi.o)
                0x080152b8                __aeabi_f2uiz
                0x080152b8                __fixunssfsi
 .text.__aeabi_fadd
                0x080152e8      0x340 /opt/toolchain/bin/../lib/gcc/arm-none-eabi/13.3.1/thumb/v6-m/nofp/libgcc.a(addsf3.o)
                0x080152e8                __aeabi_fadd
 .text.__aeabi_fmul
                0x08015628      0x280 /opt/toolchain/bin/../lib/gcc/arm-none-eabi/13.3.1/thumb/v6-m/nofp/libgcc.a(mulsf3.o)
                0x08015628                __aeabi_fmul
 .text.__aeabi_fsub
                0x080158a8      0x38c /opt/toolchain/bin/../lib/gcc/arm-none-eabi/13.3.1/thumb/v6-m/nofp/libgcc.a(subsf3.o)
                0x080158a8                __aeabi_fsub
 .text.__aeabi_f2iz
                0x08015c34       0x40 /opt/toolchain/bin/../lib/gcc/arm-none-eabi/13.3.1/thumb/v6-m/nofp/libgcc.a(fixsfsi.o)
                0x08015c34                __aeabi_f2iz
 .text.__aeabi_i2f
                0x08015c74       0x94 /opt/toolchain/bin/../lib/gcc/arm-none-eabi/13.3.1/thumb/v6-m/nofp/libgcc.a(floatsisf.o)
                0x08015c74                __aeabi_i2f
 .text.__eqsf2  0x08015d08       0x50 /opt/toolchain/bin/../lib/gcc/arm-none-eabi/13.3.1/thumb/v6-m/nofp/libgcc.a(eqsf2.o)
                0x08015d08                __nesf2
                0x08015d08                __eqsf2
 .text.__gesf2  0x08015d58       0x94 /opt/toolchain/bin/../lib/gcc/arm-none-eabi/13.3.1/thumb/v6-m/nofp/libgcc.a(gesf2.o)
                0x08015d58                __gtsf2
                0x08015d58                __gesf2
 .text.__lesf2  0x08015dec       0x90 /opt/toolchain/bin/../lib/gcc/arm-none-eabi/13.3.1/thumb/v6-m/nofp/libgcc.a(lesf2.o)
                0x08015dec                __lesf2
                0x08015dec                __ltsf2
 .text.__libc_init_array
                0x08015e7c       0x48 /opt/toolchain/bin/../lib/gcc/arm-none-eabi/13.3.1/../../../../arm-none-eabi/lib/thumb/v6-m/nofp/libg_nano.a(libc_a-init.o)
                0x08015e7c                __libc_init_array
 .text.memmove  0x08015ec4       0x24 /opt/toolchain/bin/../lib/gcc/arm-none-eabi/13.3.1/../../../../arm-none-eabi/lib/thumb/v6-m/nofp/libg_nano.a(libc_a-memmove.o)
                0x08015ec4                memmove
 .text.memset   0x08015ee8       0x10 /opt/toolchain/bin/../lib/gcc/arm-none-eabi/13.3.1/../../../../arm-none-eabi/lib/thumb/v6-m/nofp/libg_nano.a(libc_a-memset.o)
                0x08015ee8                memset
 .text.memcpy   0x08015ef8       0x12 /opt/toolchain/bin/../lib/gcc/arm-none-eabi/13.3.1/../../../../arm-none-eabi/lib/thumb/v6-m/nofp/libg_nano.a(libc_a-memcpy-stub.o)
                0x08015ef8                memcpy
 .text.strncpy  0x08015f0a       0x28 /opt/toolchain/bin/../lib/gcc/arm-none-eabi/13.3.1/../../../../arm-none-eabi/lib/thumb/v6-m/nofp/libg_nano.a(libc_a-strncpy.o)
                0x08015f0a                strncpy
 .text.strnlen  0x08015f32       0x16 /opt/toolchain/bin/../lib/gcc/arm-none-eabi/13.3.1/../../../../arm-none-eabi/lib/thumb/v6-m/nofp/libg_nano.a(libc_a-strnlen.o)
                0x08015f32                strnlen
 .text.memcmp   0x08015f48       0x1c /opt/toolchain/bin/../lib/gcc/arm-none-eabi/13.3.1/../../../../arm-none-eabi/lib/thumb/v6-m/nofp/libg_nano.a(libc_a-memcmp.o)
                0x08015f48                memcmp
 *(.glue_7)
 .glue_7        0x08015f64        0x0 linker stubs
 *(.glue_7t)
 .glue_7t       0x08015f64        0x0 linker stubs
 *(.eh_frame)
 .eh_frame      0x08015f64        0x0 /opt/toolchain/bin/../lib/gcc/arm-none-eabi/13.3.1/thumb/v6-m/nofp/crtbegin.o
 *(.init)
 .init          0x08015f64        0x4 /opt/toolchain/bin/../lib/gcc/arm-none-eabi/13.3.1/thumb/v6-m/nofp/crti.o
                0x08015f64                _init
 .init          0x08015f68        0x8 /opt/toolchain/bin/../lib/gcc/arm-none-eabi/13.3.1/thumb/v6-m/nofp/crtn.o
 *(.fini)
 .fini          0x08015f70        0x4 /opt/toolchain/bin/../lib/gcc/arm-none-eabi/13.3.1/thumb/v6-m/nofp/crti.o
                0x08015f70                _fini
 .fini          0x08015f74        0x8 /opt/toolchain/bin/../lib/gcc/arm-none-eabi/13.3.1/thumb/v6-m/nofp/crtn.o
                0x08015f7c                        . = ALIGN (0x4)
                0x08015f7c                        _etext = .

.vfp11_veneer   0x08015f7c        0x0
 .vfp11_veneer  0x08015f7c        0x0 linker stubs

.v4_bx          0x08015f7c        0x0
 .v4_bx         0x08015f7c        0x0 linker stubs

.iplt           0x08015f7c        0x0
 .iplt          0x08015f7c        0x0 /opt/toolchain/bin/../lib/gcc/arm-none-eabi/13.3.1/thumb/v6-m/nofp/crtbegin.o

.rodata         0x08015f7c     0x1fa8
                0x08015f7c                        . = ALIGN (0x4)
 *(.rodata)
 .rodata        0x08015f7c       0x64 CMakeFiles/n7six.ApeX-k1.v7.6.5br1.dir/App/driver/bk4829.c.obj
 .rodata        0x08015fe0       0x14 CMakeFiles/n7six.ApeX-k1.v7.6.5br1.dir/App/app/menu.c.obj
 .rodata        0x08015ff4       0x70 CMakeFiles/n7six.ApeX-k1.v7.6.5br1.dir/App/ui/main.c.obj
 .rodata        0x08016064        0xc CMakeFiles/n7six.ApeX-k1.v7.6.5br1.dir/App/driver/vcp.c.obj
 *(.rodata*)
 .rodata.HSIFreqTable
                0x08016070       0x20 CMakeFiles/n7six.ApeX-k1.v7.6.5br1.dir/Core/Src/system_py32f071.c.obj
                0x08016070                HSIFreqTable
 .rodata.APBPrescTable
                0x08016090       0x20 CMakeFiles/n7six.ApeX-k1.v7.6.5br1.dir/Core/Src/system_py32f071.c.obj
                0x08016090                APBPrescTable
 .rodata.AHBPrescTable
                0x080160b0       0x40 CMakeFiles/n7six.ApeX-k1.v7.6.5br1.dir/Core/Src/system_py32f071.c.obj
                0x080160b0                AHBPrescTable
 .rodata.CHANNEL_OFFSET_TAB
                0x080160f0        0x7 CMakeFiles/n7six.ApeX-k1.v7.6.5br1.dir/Drivers/PY32F071_HAL_Driver/Src/py32f071_ll_dma.c.obj
 .rodata.value  0x080160f7        0xb CMakeFiles/n7six.ApeX-k1.v7.6.5br1.dir/App/driver/backlight.c.obj
                0x080160f7                value
 .rodata.BK4819_Init.str1.1
                0x08016102      0x674 CMakeFiles/n7six.ApeX-k1.v7.6.5br1.dir/App/driver/bk4829.c.obj
                                 0x11 (size before relaxing)
 .rodata.CSWTCH.58
                0x08016776        0x8 CMakeFiles/n7six.ApeX-k1.v7.6.5br1.dir/App/driver/bk4829.c.obj
 .rodata.FSK_RogerTable
                0x0801677e        0xe CMakeFiles/n7six.ApeX-k1.v7.6.5br1.dir/App/driver/bk4829.c.obj
 .rodata.keyboard
                0x0801678c       0x14 CMakeFiles/n7six.ApeX-k1.v7.6.5br1.dir/App/driver/keyboard.c.obj
 .rodata.HandleFunction_fn_table
                0x080167a0       0x1c CMakeFiles/n7six.ApeX-k1.v7.6.5br1.dir/App/app/app.c.obj
 .rodata.CSWTCH.21
                0x080167bc        0x6 CMakeFiles/n7six.ApeX-k1.v7.6.5br1.dir/App/app/dtmf.c.obj
 .rodata.MENU_Key_UP_DOWN.str1.1
                0x080167c2        0xf CMakeFiles/n7six.ApeX-k1.v7.6.5br1.dir/App/app/menu.c.obj
 .rodata.CSWTCH.17
                0x080167c2       0x10 CMakeFiles/n7six.ApeX-k1.v7.6.5br1.dir/App/audio.c.obj
 .rodata.BITMAP_PowerUser
                0x080167d2        0x3 CMakeFiles/n7six.ApeX-k1.v7.6.5br1.dir/App/bitmaps.c.obj
                0x080167d2                BITMAP_PowerUser
 .rodata.BITMAP_compand
                0x080167d5        0x6 CMakeFiles/n7six.ApeX-k1.v7.6.5br1.dir/App/bitmaps.c.obj
                0x080167d5                BITMAP_compand
 .rodata.BITMAP_ScanListAll
                0x080167db       0x13 CMakeFiles/n7six.ApeX-k1.v7.6.5br1.dir/App/bitmaps.c.obj
                0x080167db                BITMAP_ScanListAll
 .rodata.BITMAP_ScanList123
                0x080167ee       0x13 CMakeFiles/n7six.ApeX-k1.v7.6.5br1.dir/App/bitmaps.c.obj
                0x080167ee                BITMAP_ScanList123
 .rodata.BITMAP_ScanListE
                0x08016801        0x7 CMakeFiles/n7six.ApeX-k1.v7.6.5br1.dir/App/bitmaps.c.obj
                0x08016801                BITMAP_ScanListE
 .rodata.BITMAP_ScanList3
                0x08016808        0x7 CMakeFiles/n7six.ApeX-k1.v7.6.5br1.dir/App/bitmaps.c.obj
                0x08016808                BITMAP_ScanList3
 .rodata.BITMAP_ScanList2
                0x0801680f        0x7 CMakeFiles/n7six.ApeX-k1.v7.6.5br1.dir/App/bitmaps.c.obj
                0x0801680f                BITMAP_ScanList2
 .rodata.BITMAP_ScanList1
                0x08016816        0x7 CMakeFiles/n7six.ApeX-k1.v7.6.5br1.dir/App/bitmaps.c.obj
                0x08016816                BITMAP_ScanList1
 .rodata.BITMAP_ScanList0
                0x0801681d        0x7 CMakeFiles/n7six.ApeX-k1.v7.6.5br1.dir/App/bitmaps.c.obj
                0x0801681d                BITMAP_ScanList0
 .rodata.BITMAP_TX
                0x08016824        0x5 CMakeFiles/n7six.ApeX-k1.v7.6.5br1.dir/App/bitmaps.c.obj
                0x08016824                BITMAP_TX
 .rodata.BITMAP_RX
                0x08016829        0x5 CMakeFiles/n7six.ApeX-k1.v7.6.5br1.dir/App/bitmaps.c.obj
                0x08016829                BITMAP_RX
 .rodata.BITMAP_VFO_NotDefault
                0x0801682e        0x5 CMakeFiles/n7six.ApeX-k1.v7.6.5br1.dir/App/bitmaps.c.obj
                0x0801682e                BITMAP_VFO_NotDefault
 .rodata.BITMAP_VFO_Default
                0x08016833        0x5 CMakeFiles/n7six.ApeX-k1.v7.6.5br1.dir/App/bitmaps.c.obj
                0x08016833                BITMAP_VFO_Default
 .rodata.BITMAP_VFO_Lock
                0x08016838        0x7 CMakeFiles/n7six.ApeX-k1.v7.6.5br1.dir/App/bitmaps.c.obj
                0x08016838                BITMAP_VFO_Lock
 .rodata.BITMAP_Antenna
                0x0801683f        0x5 CMakeFiles/n7six.ApeX-k1.v7.6.5br1.dir/App/bitmaps.c.obj
                0x0801683f                BITMAP_Antenna
 .rodata.gFontVox
                0x08016844        0xc CMakeFiles/n7six.ApeX-k1.v7.6.5br1.dir/App/bitmaps.c.obj
                0x08016844                gFontVox
 .rodata.BITMAP_BatteryLevel1
                0x08016850       0x11 CMakeFiles/n7six.ApeX-k1.v7.6.5br1.dir/App/bitmaps.c.obj
                0x08016850                BITMAP_BatteryLevel1
 .rodata.BITMAP_BatteryLevel
                0x08016861        0x2 CMakeFiles/n7six.ApeX-k1.v7.6.5br1.dir/App/bitmaps.c.obj
                0x08016861                BITMAP_BatteryLevel
 .rodata.gFontHold
                0x08016863        0xa CMakeFiles/n7six.ApeX-k1.v7.6.5br1.dir/App/bitmaps.c.obj
                0x08016863                gFontHold
 .rodata.gFontRO
                0x0801686d        0xc CMakeFiles/n7six.ApeX-k1.v7.6.5br1.dir/App/bitmaps.c.obj
                0x0801686d                gFontRO
 .rodata.gFontDWR
                0x08016879       0x12 CMakeFiles/n7six.ApeX-k1.v7.6.5br1.dir/App/bitmaps.c.obj
                0x08016879                gFontDWR
 .rodata.gFontMO
                0x0801688b        0xc CMakeFiles/n7six.ApeX-k1.v7.6.5br1.dir/App/bitmaps.c.obj
                0x0801688b                gFontMO
 .rodata.gFontXB
                0x08016897        0xc CMakeFiles/n7six.ApeX-k1.v7.6.5br1.dir/App/bitmaps.c.obj
                0x08016897                gFontXB
 .rodata.gFontMute
                0x080168a3        0xc CMakeFiles/n7six.ApeX-k1.v7.6.5br1.dir/App/bitmaps.c.obj
                0x080168a3                gFontMute
 .rodata.gFontLight
                0x080168af        0x9 CMakeFiles/n7six.ApeX-k1.v7.6.5br1.dir/App/bitmaps.c.obj
                0x080168af                gFontLight
 .rodata.gFontKeyLock
                0x080168b8        0x9 CMakeFiles/n7six.ApeX-k1.v7.6.5br1.dir/App/bitmaps.c.obj
                0x080168b8                gFontKeyLock
 .rodata.gFontS
                0x080168c1        0x6 CMakeFiles/n7six.ApeX-k1.v7.6.5br1.dir/App/bitmaps.c.obj
                0x080168c1                gFontS
 .rodata.gFontF
                0x080168c7        0x8 CMakeFiles/n7six.ApeX-k1.v7.6.5br1.dir/App/bitmaps.c.obj
                0x080168c7                gFontF
 .rodata.gFontPttClassic
                0x080168cf        0xc CMakeFiles/n7six.ApeX-k1.v7.6.5br1.dir/App/bitmaps.c.obj
                0x080168cf                gFontPttClassic
 .rodata.gFontPttOnePush
                0x080168db        0xc CMakeFiles/n7six.ApeX-k1.v7.6.5br1.dir/App/bitmaps.c.obj
                0x080168db                gFontPttOnePush
 .rodata.gFontPowerSave
                0x080168e7        0xc CMakeFiles/n7six.ApeX-k1.v7.6.5br1.dir/App/bitmaps.c.obj
                0x080168e7                gFontPowerSave
 *fill*         0x080168f3        0x1 
 .rodata.DCS_Options
                0x080168f4       0xd0 CMakeFiles/n7six.ApeX-k1.v7.6.5br1.dir/App/dcs.c.obj
                0x080168f4                DCS_Options
 .rodata.CTCSS_Options
                0x080169c4       0x64 CMakeFiles/n7six.ApeX-k1.v7.6.5br1.dir/App/dcs.c.obj
                0x080169c4                CTCSS_Options
 .rodata.gFont3x5
                0x08016a28      0x120 CMakeFiles/n7six.ApeX-k1.v7.6.5br1.dir/App/font.c.obj
                0x08016a28                gFont3x5
 .rodata.gFontSmallBold
                0x08016b48      0x234 CMakeFiles/n7six.ApeX-k1.v7.6.5br1.dir/App/font.c.obj
                0x08016b48                gFontSmallBold
 .rodata.gFontSmall
                0x08016d7c      0x234 CMakeFiles/n7six.ApeX-k1.v7.6.5br1.dir/App/font.c.obj
                0x08016d7c                gFontSmall
 .rodata.gFontBigDigits
                0x08016fb0       0xdc CMakeFiles/n7six.ApeX-k1.v7.6.5br1.dir/App/font.c.obj
                0x08016fb0                gFontBigDigits
 .rodata.gFontBig
                0x0801708c      0x524 CMakeFiles/n7six.ApeX-k1.v7.6.5br1.dir/App/font.c.obj
                0x0801708c                gFontBig
 .rodata.StepSortedIndexes
                0x080175b0       0x18 CMakeFiles/n7six.ApeX-k1.v7.6.5br1.dir/App/frequencies.c.obj
                0x080175b0                StepSortedIndexes
 .rodata.gStepFrequencyTable
                0x080175c8       0x30 CMakeFiles/n7six.ApeX-k1.v7.6.5br1.dir/App/frequencies.c.obj
                0x080175c8                gStepFrequencyTable
 .rodata.frequencyBandTable
                0x080175f8       0x38 CMakeFiles/n7six.ApeX-k1.v7.6.5br1.dir/App/frequencies.c.obj
                0x080175f8                frequencyBandTable
 .rodata.BX4819_band2
                0x08017630        0x8 CMakeFiles/n7six.ApeX-k1.v7.6.5br1.dir/App/frequencies.c.obj
                0x08017630                BX4819_band2
 .rodata.BX4819_band1
                0x08017638        0x8 CMakeFiles/n7six.ApeX-k1.v7.6.5br1.dir/App/frequencies.c.obj
                0x08017638                BX4819_band1
 .rodata.BATTERY_GetReadings.str1.1
                0x08017640        0x6 CMakeFiles/n7six.ApeX-k1.v7.6.5br1.dir/App/helper/battery.c.obj
 .rodata.Voltage2PercentageTable
                0x08017640       0x8c CMakeFiles/n7six.ApeX-k1.v7.6.5br1.dir/App/helper/battery.c.obj
                0x08017640                Voltage2PercentageTable
 .rodata.gMicGain_dB2
                0x080176cc        0x5 CMakeFiles/n7six.ApeX-k1.v7.6.5br1.dir/App/misc.c.obj
                0x080176cc                gMicGain_dB2
 *fill*         0x080176d1        0x1 
 .rodata.vox_stop_count_down_10ms
                0x080176d2        0x2 CMakeFiles/n7six.ApeX-k1.v7.6.5br1.dir/App/misc.c.obj
                0x080176d2                vox_stop_count_down_10ms
 .rodata.power_save2_10ms
                0x080176d4        0x2 CMakeFiles/n7six.ApeX-k1.v7.6.5br1.dir/App/misc.c.obj
                0x080176d4                power_save2_10ms
 .rodata.power_save1_10ms
                0x080176d6        0x2 CMakeFiles/n7six.ApeX-k1.v7.6.5br1.dir/App/misc.c.obj
                0x080176d6                power_save1_10ms
 .rodata.battery_save_count_10ms
                0x080176d8        0x2 CMakeFiles/n7six.ApeX-k1.v7.6.5br1.dir/App/misc.c.obj
                0x080176d8                battery_save_count_10ms
 .rodata.scan_pause_delay_in_5_10ms
                0x080176da        0x2 CMakeFiles/n7six.ApeX-k1.v7.6.5br1.dir/App/misc.c.obj
                0x080176da                scan_pause_delay_in_5_10ms
 .rodata.scan_pause_delay_in_3_10ms
                0x080176dc        0x2 CMakeFiles/n7six.ApeX-k1.v7.6.5br1.dir/App/misc.c.obj
                0x080176dc                scan_pause_delay_in_3_10ms
 .rodata.scan_pause_delay_in_2_10ms
                0x080176de        0x2 CMakeFiles/n7six.ApeX-k1.v7.6.5br1.dir/App/misc.c.obj
                0x080176de                scan_pause_delay_in_2_10ms
 .rodata.scan_pause_delay_in_1_10ms
                0x080176e0        0x2 CMakeFiles/n7six.ApeX-k1.v7.6.5br1.dir/App/misc.c.obj
                0x080176e0                scan_pause_delay_in_1_10ms
 .rodata.dual_watch_count_toggle_10ms
                0x080176e2        0x2 CMakeFiles/n7six.ApeX-k1.v7.6.5br1.dir/App/misc.c.obj
                0x080176e2                dual_watch_count_toggle_10ms
 .rodata.dual_watch_count_after_vox_10ms
                0x080176e4        0x2 CMakeFiles/n7six.ApeX-k1.v7.6.5br1.dir/App/misc.c.obj
                0x080176e4                dual_watch_count_after_vox_10ms
 .rodata.dual_watch_count_after_2_10ms
                0x080176e6        0x2 CMakeFiles/n7six.ApeX-k1.v7.6.5br1.dir/App/misc.c.obj
                0x080176e6                dual_watch_count_after_2_10ms
 .rodata.dual_watch_count_after_rx_10ms
                0x080176e8        0x2 CMakeFiles/n7six.ApeX-k1.v7.6.5br1.dir/App/misc.c.obj
                0x080176e8                dual_watch_count_after_rx_10ms
 .rodata.dual_watch_count_after_tx_10ms
                0x080176ea        0x2 CMakeFiles/n7six.ApeX-k1.v7.6.5br1.dir/App/misc.c.obj
                0x080176ea                dual_watch_count_after_tx_10ms
 .rodata.scan_delay_10ms
                0x080176ec        0x1 CMakeFiles/n7six.ApeX-k1.v7.6.5br1.dir/App/misc.c.obj
                0x080176ec                scan_delay_10ms
 *fill*         0x080176ed        0x1 
 .rodata.key_debounce_10ms
                0x080176ee        0x2 CMakeFiles/n7six.ApeX-k1.v7.6.5br1.dir/App/misc.c.obj
                0x080176ee                key_debounce_10ms
 .rodata.key_repeat_10ms
                0x080176f0        0x2 CMakeFiles/n7six.ApeX-k1.v7.6.5br1.dir/App/misc.c.obj
                0x080176f0                key_repeat_10ms
 .rodata.key_repeat_delay_10ms
                0x080176f2        0x2 CMakeFiles/n7six.ApeX-k1.v7.6.5br1.dir/App/misc.c.obj
                0x080176f2                key_repeat_delay_10ms
 .rodata.key_input_timeout_500ms
                0x080176f4        0x1 CMakeFiles/n7six.ApeX-k1.v7.6.5br1.dir/App/misc.c.obj
                0x080176f4                key_input_timeout_500ms
 .rodata.DTMF_RX_live_timeout_500ms
                0x080176f5        0x1 CMakeFiles/n7six.ApeX-k1.v7.6.5br1.dir/App/misc.c.obj
                0x080176f5                DTMF_RX_live_timeout_500ms
 .rodata.menu_timeout_long_500ms
                0x080176f6        0x2 CMakeFiles/n7six.ApeX-k1.v7.6.5br1.dir/App/misc.c.obj
                0x080176f6                menu_timeout_long_500ms
 .rodata.menu_timeout_500ms
                0x080176f8        0x1 CMakeFiles/n7six.ApeX-k1.v7.6.5br1.dir/App/misc.c.obj
                0x080176f8                menu_timeout_500ms
 .rodata.vfo_state_resume_countdown_500ms
                0x080176f9        0x1 CMakeFiles/n7six.ApeX-k1.v7.6.5br1.dir/App/misc.c.obj
                0x080176f9                vfo_state_resume_countdown_500ms
 .rodata.fm_restore_countdown_10ms
                0x080176fa        0x2 CMakeFiles/n7six.ApeX-k1.v7.6.5br1.dir/App/misc.c.obj
                0x080176fa                fm_restore_countdown_10ms
 .rodata.fm_play_countdown_noscan_10ms
                0x080176fc        0x2 CMakeFiles/n7six.ApeX-k1.v7.6.5br1.dir/App/misc.c.obj
                0x080176fc                fm_play_countdown_noscan_10ms
 .rodata.fm_play_countdown_scan_10ms
                0x080176fe        0x2 CMakeFiles/n7six.ApeX-k1.v7.6.5br1.dir/App/misc.c.obj
                0x080176fe                fm_play_countdown_scan_10ms
 .rodata.fm_radio_countdown_500ms
                0x08017700        0x1 CMakeFiles/n7six.ApeX-k1.v7.6.5br1.dir/App/misc.c.obj
                0x08017700                fm_radio_countdown_500ms
 .rodata.dividers.1
                0x08017701        0x6 CMakeFiles/n7six.ApeX-k1.v7.6.5br1.dir/App/radio.c.obj
 .rodata.gModulationStr
                0x08017707        0xc CMakeFiles/n7six.ApeX-k1.v7.6.5br1.dir/App/radio.c.obj
                0x08017707                gModulationStr
 .rodata.str1.1
                0x08017713       0x18 CMakeFiles/n7six.ApeX-k1.v7.6.5br1.dir/App/radio.c.obj
 *fill*         0x08017713        0x1 
 .rodata.afDacGainRegSpec
                0x08017714        0xc CMakeFiles/n7six.ApeX-k1.v7.6.5br1.dir/App/radio.c.obj
 .rodata.afcDisableRegSpec
                0x08017720        0xc CMakeFiles/n7six.ApeX-k1.v7.6.5br1.dir/App/radio.c.obj
 .rodata.SETTINGS_InitEEPROM.str1.1
                0x0801772c        0xc CMakeFiles/n7six.ApeX-k1.v7.6.5br1.dir/App/settings.c.obj
 .rodata.SETTINGS_UpdateChannel.str1.1
                0x0801772c        0x1 CMakeFiles/n7six.ApeX-k1.v7.6.5br1.dir/App/settings.c.obj
 .rodata.UI_GenerateChannelString.str1.1
                0x0801772c        0x8 CMakeFiles/n7six.ApeX-k1.v7.6.5br1.dir/App/ui/helper.c.obj
 .rodata.UI_GenerateChannelStringEx.str1.1
                0x0801772c       0x12 CMakeFiles/n7six.ApeX-k1.v7.6.5br1.dir/App/ui/helper.c.obj
 .rodata.UI_DisplayPopup.str1.1
                0x0801772c        0xb CMakeFiles/n7six.ApeX-k1.v7.6.5br1.dir/App/ui/helper.c.obj
 .rodata.DisplayRSSIBar.str1.1
                0x0801772c       0x1a CMakeFiles/n7six.ApeX-k1.v7.6.5br1.dir/App/ui/main.c.obj
 .rodata.UI_DisplayMain.str1.1
                0x0801772c       0x9e CMakeFiles/n7six.ApeX-k1.v7.6.5br1.dir/App/ui/main.c.obj
 .rodata.str1.1
                0x0801772c       0x4b CMakeFiles/n7six.ApeX-k1.v7.6.5br1.dir/App/ui/main.c.obj
 .rodata.dBmCorrTable
                0x0801772c        0x7 CMakeFiles/n7six.ApeX-k1.v7.6.5br1.dir/App/ui/main.c.obj
                0x0801772c                dBmCorrTable
 .rodata.UI_DisplayMenu.str1.1
                0x08017733      0x178 CMakeFiles/n7six.ApeX-k1.v7.6.5br1.dir/App/ui/menu.c.obj
 .rodata.gSubMenu_SIDEFUNCTIONS_size
                0x08017733        0x1 CMakeFiles/n7six.ApeX-k1.v7.6.5br1.dir/App/ui/menu.c.obj
                0x08017733                gSubMenu_SIDEFUNCTIONS_size
 .rodata.str1.1
                0x08017734      0x1e7 CMakeFiles/n7six.ApeX-k1.v7.6.5br1.dir/App/ui/menu.c.obj
 .rodata.gSubMenu_SIDEFUNCTIONS
                0x08017734       0x98 CMakeFiles/n7six.ApeX-k1.v7.6.5br1.dir/App/ui/menu.c.obj
                0x08017734                gSubMenu_SIDEFUNCTIONS
 .rodata.gSubMenu_SET_KEY
                0x080177cc       0x2d CMakeFiles/n7six.ApeX-k1.v7.6.5br1.dir/App/ui/menu.c.obj
                0x080177cc                gSubMenu_SET_KEY
 .rodata.gSubMenu_SET_NFM
                0x080177f9       0x12 CMakeFiles/n7six.ApeX-k1.v7.6.5br1.dir/App/ui/menu.c.obj
                0x080177f9                gSubMenu_SET_NFM
 .rodata.gSubMenu_SET_MET
                0x0801780b       0x10 CMakeFiles/n7six.ApeX-k1.v7.6.5br1.dir/App/ui/menu.c.obj
                0x0801780b                gSubMenu_SET_MET
 .rodata.gSubMenu_SET_LCK
                0x0801781b       0x12 CMakeFiles/n7six.ApeX-k1.v7.6.5br1.dir/App/ui/menu.c.obj
                0x0801781b                gSubMenu_SET_LCK
 .rodata.gSubMenu_SET_TOT
                0x0801782d       0x1c CMakeFiles/n7six.ApeX-k1.v7.6.5br1.dir/App/ui/menu.c.obj
                0x0801782d                gSubMenu_SET_TOT
 .rodata.gSubMenu_SET_PTT
                0x08017849       0x10 CMakeFiles/n7six.ApeX-k1.v7.6.5br1.dir/App/ui/menu.c.obj
                0x08017849                gSubMenu_SET_PTT
 .rodata.gSubMenu_SET_PWR
                0x08017859       0x2a CMakeFiles/n7six.ApeX-k1.v7.6.5br1.dir/App/ui/menu.c.obj
                0x08017859                gSubMenu_SET_PWR
 .rodata.gSubMenu_BATTYP
                0x08017883       0x3c CMakeFiles/n7six.ApeX-k1.v7.6.5br1.dir/App/ui/menu.c.obj
                0x08017883                gSubMenu_BATTYP
 .rodata.gSubMenu_BAT_TXT
                0x080178bf       0x18 CMakeFiles/n7six.ApeX-k1.v7.6.5br1.dir/App/ui/menu.c.obj
                0x080178bf                gSubMenu_BAT_TXT
 .rodata.gSubMenu_RX_TX
                0x080178d7       0x18 CMakeFiles/n7six.ApeX-k1.v7.6.5br1.dir/App/ui/menu.c.obj
                0x080178d7                gSubMenu_RX_TX
 *fill*         0x080178ef        0x1 
 .rodata.gSubMenu_F_LOCK
                0x080178f0       0x2c CMakeFiles/n7six.ApeX-k1.v7.6.5br1.dir/App/ui/menu.c.obj
                0x080178f0                gSubMenu_F_LOCK
 .rodata.gSubMenu_RESET
                0x0801791c        0x8 CMakeFiles/n7six.ApeX-k1.v7.6.5br1.dir/App/ui/menu.c.obj
                0x0801791c                gSubMenu_RESET
 .rodata.gSubMenu_ROGER
                0x08017924       0x12 CMakeFiles/n7six.ApeX-k1.v7.6.5br1.dir/App/ui/menu.c.obj
                0x08017924                gSubMenu_ROGER
 .rodata.gSubMenu_PONMSG
                0x08017936       0x28 CMakeFiles/n7six.ApeX-k1.v7.6.5br1.dir/App/ui/menu.c.obj
                0x08017936                gSubMenu_PONMSG
 *fill*         0x0801795e        0x2 
 .rodata.gSubMenu_PTT_ID
                0x08017960       0x14 CMakeFiles/n7six.ApeX-k1.v7.6.5br1.dir/App/ui/menu.c.obj
                0x08017960                gSubMenu_PTT_ID
 .rodata.gSubMenu_MDF
                0x08017974       0x10 CMakeFiles/n7six.ApeX-k1.v7.6.5br1.dir/App/ui/menu.c.obj
                0x08017974                gSubMenu_MDF
 .rodata.gSubMenu_RXMode
                0x08017984       0x10 CMakeFiles/n7six.ApeX-k1.v7.6.5br1.dir/App/ui/menu.c.obj
                0x08017984                gSubMenu_RXMode
 .rodata.gSubMenu_OFF_ON
                0x08017994        0x8 CMakeFiles/n7six.ApeX-k1.v7.6.5br1.dir/App/ui/menu.c.obj
                0x08017994                gSubMenu_OFF_ON
 .rodata.gSubMenu_W_N
                0x0801799c        0xe CMakeFiles/n7six.ApeX-k1.v7.6.5br1.dir/App/ui/menu.c.obj
                0x0801799c                gSubMenu_W_N
 .rodata.gSubMenu_SFT_D
                0x080179aa        0xc CMakeFiles/n7six.ApeX-k1.v7.6.5br1.dir/App/ui/menu.c.obj
                0x080179aa                gSubMenu_SFT_D
 .rodata.gSubMenu_TXP
                0x080179b6       0x30 CMakeFiles/n7six.ApeX-k1.v7.6.5br1.dir/App/ui/menu.c.obj
                0x080179b6                gSubMenu_TXP
 .rodata.FIRST_HIDDEN_MENU_ITEM
                0x080179e6        0x1 CMakeFiles/n7six.ApeX-k1.v7.6.5br1.dir/App/ui/menu.c.obj
                0x080179e6                FIRST_HIDDEN_MENU_ITEM
 .rodata.MenuList
                0x080179e7      0x258 CMakeFiles/n7six.ApeX-k1.v7.6.5br1.dir/App/ui/menu.c.obj
                0x080179e7                MenuList
 .rodata.UI_DisplayScanner.str1.1
                0x08017c3f       0x63 CMakeFiles/n7six.ApeX-k1.v7.6.5br1.dir/App/ui/scanner.c.obj
 .rodata.convertTime.constprop.0.str1.1
                0x08017c3f        0xa CMakeFiles/n7six.ApeX-k1.v7.6.5br1.dir/App/ui/status.c.obj
 .rodata.UI_DisplayStatus.str1.1
                0x08017c3f       0x10 CMakeFiles/n7six.ApeX-k1.v7.6.5br1.dir/App/ui/status.c.obj
 *fill*         0x08017c3f        0x1 
 .rodata.UI_DisplayStatus.cst2
                0x08017c40        0x2 CMakeFiles/n7six.ApeX-k1.v7.6.5br1.dir/App/ui/status.c.obj
 .rodata.UI_DisplayReleaseKeys.str1.1
                0x08017c42       0x11 CMakeFiles/n7six.ApeX-k1.v7.6.5br1.dir/App/ui/welcome.c.obj
 .rodata.UI_DisplayWelcome.str1.1
                0x08017c42       0x35 CMakeFiles/n7six.ApeX-k1.v7.6.5br1.dir/App/ui/welcome.c.obj
 .rodata.UART_Version
                0x08017c42       0x2a CMakeFiles/n7six.ApeX-k1.v7.6.5br1.dir/App/version.c.obj
                0x08017c42                UART_Version
 .rodata.Edition
                0x08017c6c        0x5 CMakeFiles/n7six.ApeX-k1.v7.6.5br1.dir/App/version.c.obj
                0x08017c6c                Edition
 .rodata.Version
                0x08017c71       0x10 CMakeFiles/n7six.ApeX-k1.v7.6.5br1.dir/App/version.c.obj
                0x08017c71                Version
 *fill*         0x08017c81        0x3 
 .rodata.ADDR_MAPPINGS
                0x08017c84       0xb8 CMakeFiles/n7six.ApeX-k1.v7.6.5br1.dir/App/driver/eeprom_compat.c.obj
 .rodata.Obfuscation
                0x08017d3c       0x10 CMakeFiles/n7six.ApeX-k1.v7.6.5br1.dir/App/app/uart.c.obj
 .rodata.cdc_descriptor
                0x08017d4c       0x9e CMakeFiles/n7six.ApeX-k1.v7.6.5br1.dir/App/usb/usbd_cdc_if.c.obj
 .rodata.lim.0  0x08017dea        0x8 CMakeFiles/n7six.ApeX-k1.v7.6.5br1.dir/App/driver/bk1080.c.obj
 .rodata.lim.1  0x08017df2        0x8 CMakeFiles/n7six.ApeX-k1.v7.6.5br1.dir/App/driver/bk1080.c.obj
 .rodata.BK1080_RegisterTable
                0x08017dfa       0x44 CMakeFiles/n7six.ApeX-k1.v7.6.5br1.dir/App/driver/bk1080.c.obj
 .rodata.UI_DisplayFM.str1.1
                0x08017e3e       0x61 CMakeFiles/n7six.ApeX-k1.v7.6.5br1.dir/App/ui/fmradio.c.obj
 .rodata.Obfuscation
                0x08017e3e       0x10 CMakeFiles/n7six.ApeX-k1.v7.6.5br1.dir/App/app/aircopy.c.obj
 .rodata.UI_DisplayAircopy.str1.1
                0x08017e4e       0x5d CMakeFiles/n7six.ApeX-k1.v7.6.5br1.dir/App/ui/aircopy.c.obj
 .rodata.DrawF.str1.1
                0x08017e4e       0x11 CMakeFiles/n7six.ApeX-k1.v7.6.5br1.dir/App/app/spectrum.c.obj
 .rodata.RenderSpectrum.str1.1
                0x08017e4e       0x29 CMakeFiles/n7six.ApeX-k1.v7.6.5br1.dir/App/app/spectrum.c.obj
 .rodata.APP_RunSpectrum.str1.1
                0x08017e4e       0x24 CMakeFiles/n7six.ApeX-k1.v7.6.5br1.dir/App/app/spectrum.c.obj
 .rodata.bayerMatrix.0
                0x08017e4e       0x10 CMakeFiles/n7six.ApeX-k1.v7.6.5br1.dir/App/app/spectrum.c.obj
 .rodata.registers_to_save
                0x08017e5e        0x7 CMakeFiles/n7six.ApeX-k1.v7.6.5br1.dir/App/app/spectrum.c.obj
 .rodata.str1.1
                0x08017e65       0x41 CMakeFiles/n7six.ApeX-k1.v7.6.5br1.dir/App/app/spectrum.c.obj
 .rodata.VGAOptions
                0x08017e65        0x8 CMakeFiles/n7six.ApeX-k1.v7.6.5br1.dir/App/app/spectrum.c.obj
                0x08017e65                VGAOptions
 .rodata.LNAOptions
                0x08017e6d        0x8 CMakeFiles/n7six.ApeX-k1.v7.6.5br1.dir/App/app/spectrum.c.obj
                0x08017e6d                LNAOptions
 .rodata.LNAsOptions
                0x08017e75        0x4 CMakeFiles/n7six.ApeX-k1.v7.6.5br1.dir/App/app/spectrum.c.obj
                0x08017e75                LNAsOptions
 .rodata.modulationTypeTuneSteps
                0x08017e79        0x3 CMakeFiles/n7six.ApeX-k1.v7.6.5br1.dir/App/app/spectrum.c.obj
                0x08017e79                modulationTypeTuneSteps
 .rodata.bwOptions
                0x08017e7c        0xc CMakeFiles/n7six.ApeX-k1.v7.6.5br1.dir/App/app/spectrum.c.obj
                0x08017e7c                bwOptions
 .rodata.calTable
                0x08017e88       0x30 CMakeFiles/n7six.ApeX-k1.v7.6.5br1.dir/App/app/spectrum.c.obj
 .rodata.listenBWRegValues
                0x08017eb8        0x6 CMakeFiles/n7six.ApeX-k1.v7.6.5br1.dir/App/app/spectrum.c.obj
 .rodata.scanStepValues
                0x08017ebe       0x1e CMakeFiles/n7six.ApeX-k1.v7.6.5br1.dir/App/app/spectrum.c.obj
 .rodata.U8RssiMap
                0x08017edc        0xa CMakeFiles/n7six.ApeX-k1.v7.6.5br1.dir/App/app/spectrum.c.obj
 .rodata.HandleUserInput.isra.0.str1.1
                0x08017ee6        0x6 CMakeFiles/n7six.ApeX-k1.v7.6.5br1.dir/App/app/breakout.c.obj
 .rodata.drawScore.str1.1
                0x08017ee6       0x20 CMakeFiles/n7six.ApeX-k1.v7.6.5br1.dir/App/app/breakout.c.obj
 .rodata.drawWall.str1.1
                0x08017ee6       0x10 CMakeFiles/n7six.ApeX-k1.v7.6.5br1.dir/App/app/breakout.c.obj
 .rodata.drawBall.str1.1
                0x08017ee6        0xa CMakeFiles/n7six.ApeX-k1.v7.6.5br1.dir/App/app/breakout.c.obj
 .rodata.BITMAP_block
                0x08017ee6       0x3c CMakeFiles/n7six.ApeX-k1.v7.6.5br1.dir/App/app/breakout.c.obj
                0x08017ee6                BITMAP_block
                0x08017f24                        . = ALIGN (0x4)
 *fill*         0x08017f22        0x2 

.rel.dyn        0x08017f24        0x0
 .rel.iplt      0x08017f24        0x0 /opt/toolchain/bin/../lib/gcc/arm-none-eabi/13.3.1/thumb/v6-m/nofp/crtbegin.o

.ARM.extab
 *(.ARM.extab* .gnu.linkonce.armextab.*)

.ARM            0x08017f24        0x0
                0x08017f24                        __exidx_start = .
 *(.ARM.exidx*)
                0x08017f24                        __exidx_end = .

.preinit_array  0x08017f24        0x0
                0x08017f24                        PROVIDE (__preinit_array_start = .)
 *(.preinit_array*)
                0x08017f24                        PROVIDE (__preinit_array_end = .)

.init_array     0x08017f24        0x4
                0x08017f24                        PROVIDE (__init_array_start = .)
 *(SORT_BY_NAME(.init_array.*))
 *(.init_array*)
 .init_array    0x08017f24        0x4 /opt/toolchain/bin/../lib/gcc/arm-none-eabi/13.3.1/thumb/v6-m/nofp/crtbegin.o
                0x08017f28                        PROVIDE (__init_array_end = .)

.fini_array     0x08017f28        0x4
                [!provide]                        PROVIDE (__fini_array_start = .)
 *(SORT_BY_NAME(.fini_array.*))
 *(.fini_array*)
 .fini_array    0x08017f28        0x4 /opt/toolchain/bin/../lib/gcc/arm-none-eabi/13.3.1/thumb/v6-m/nofp/crtbegin.o
                [!provide]                        PROVIDE (__fini_array_end = .)
                0x08017f2c                        _sidata = LOADADDR (.data)

.data           0x20000000      0x168 load address 0x08017f2c
                0x20000000                        . = ALIGN (0x4)
                0x20000000                        _sdata = .
 *(.data)
 *(.data*)
 .data.SystemCoreClock
                0x20000000        0x4 CMakeFiles/n7six.ApeX-k1.v7.6.5br1.dir/Core/Src/system_py32f071.c.obj
                0x20000000                SystemCoreClock
 .data.SectorCacheAddr
                0x20000004        0x4 CMakeFiles/n7six.ApeX-k1.v7.6.5br1.dir/App/driver/py25q16.c.obj
 .data.gKeyReading1
                0x20000008        0x1 CMakeFiles/n7six.ApeX-k1.v7.6.5br1.dir/App/driver/keyboard.c.obj
                0x20000008                gKeyReading1
 .data.gKeyReading0
                0x20000009        0x1 CMakeFiles/n7six.ApeX-k1.v7.6.5br1.dir/App/driver/keyboard.c.obj
                0x20000009                gKeyReading0
 .data.cmds     0x2000000a        0xb CMakeFiles/n7six.ApeX-k1.v7.6.5br1.dir/App/driver/st7565.c.obj
                0x2000000a                cmds
 *fill*         0x20000015        0x3 
 .data.action_opt_table
                0x20000018       0x58 CMakeFiles/n7six.ApeX-k1.v7.6.5br1.dir/App/app/action.c.obj
                0x20000018                action_opt_table
 .data.ProcessKeysFunctions
                0x20000070       0x14 CMakeFiles/n7six.ApeX-k1.v7.6.5br1.dir/App/app/app.c.obj
                0x20000070                ProcessKeysFunctions
 .data.gK5startup
                0x20000084        0x1 CMakeFiles/n7six.ApeX-k1.v7.6.5br1.dir/App/misc.c.obj
                0x20000084                gK5startup
 .data.gIsLocked
                0x20000085        0x1 CMakeFiles/n7six.ApeX-k1.v7.6.5br1.dir/App/misc.c.obj
                0x20000085                gIsLocked
 .data.gScheduleScanListen
                0x20000086        0x1 CMakeFiles/n7six.ApeX-k1.v7.6.5br1.dir/App/misc.c.obj
                0x20000086                gScheduleScanListen
 *fill*         0x20000087        0x1 
 .data.gTxTimeoutToneAlert
                0x20000088        0x2 CMakeFiles/n7six.ApeX-k1.v7.6.5br1.dir/App/misc.c.obj
                0x20000088                gTxTimeoutToneAlert
 .data.gScheduleDualWatch
                0x2000008a        0x1 CMakeFiles/n7six.ApeX-k1.v7.6.5br1.dir/App/misc.c.obj
                0x2000008a                gScheduleDualWatch
 *fill*         0x2000008b        0x1 
 .data.gBatterySaveCountdown_10ms
                0x2000008c        0x2 CMakeFiles/n7six.ApeX-k1.v7.6.5br1.dir/App/misc.c.obj
                0x2000008c                gBatterySaveCountdown_10ms
 .data.gSetting_set_ctr
                0x2000008e        0x1 CMakeFiles/n7six.ApeX-k1.v7.6.5br1.dir/App/misc.c.obj
                0x2000008e                gSetting_set_ctr
 .data.gSetting_set_pwr
                0x2000008f        0x1 CMakeFiles/n7six.ApeX-k1.v7.6.5br1.dir/App/misc.c.obj
                0x2000008f                gSetting_set_pwr
 .data.gSetting_set_off
                0x20000090        0x1 CMakeFiles/n7six.ApeX-k1.v7.6.5br1.dir/App/misc.c.obj
                0x20000090                gSetting_set_off
 *fill*         0x20000091        0x3 
 .data.VfoStateStr
                0x20000094       0x1c CMakeFiles/n7six.ApeX-k1.v7.6.5br1.dir/App/ui/main.c.obj
                0x20000094                VfoStateStr
 .data.UI_DisplayFunctions
                0x200000b0       0x14 CMakeFiles/n7six.ApeX-k1.v7.6.5br1.dir/App/ui/ui.c.obj
                0x200000b0                UI_DisplayFunctions
 .data.gRequestDisplayScreen
                0x200000c4        0x1 CMakeFiles/n7six.ApeX-k1.v7.6.5br1.dir/App/ui/ui.c.obj
                0x200000c4                gRequestDisplayScreen
 *fill*         0x200000c5        0x3 
 .data.cdc_in_ep
                0x200000c8        0x8 CMakeFiles/n7six.ApeX-k1.v7.6.5br1.dir/App/usb/usbd_cdc_if.c.obj
                0x200000c8                cdc_in_ep
 .data.cdc_out_ep
                0x200000d0        0x8 CMakeFiles/n7six.ApeX-k1.v7.6.5br1.dir/App/usb/usbd_cdc_if.c.obj
                0x200000d0                cdc_out_ep
 .data.gAircopySendCountdown.0
                0x200000d8        0x1 CMakeFiles/n7six.ApeX-k1.v7.6.5br1.dir/App/app/aircopy.c.obj
 *fill*         0x200000d9        0x1 
 .data.lfsr.4   0x200000da        0x2 CMakeFiles/n7six.ApeX-k1.v7.6.5br1.dir/App/app/spectrum.c.obj
 .data.BPFOptions
                0x200000dc       0x1c CMakeFiles/n7six.ApeX-k1.v7.6.5br1.dir/App/app/spectrum.c.obj
                0x200000dc                BPFOptions
 .data.settings
                0x200000f8       0x1c CMakeFiles/n7six.ApeX-k1.v7.6.5br1.dir/App/app/spectrum.c.obj
                0x200000f8                settings
 .data.registerSpecs
                0x20000114       0x3c CMakeFiles/n7six.ApeX-k1.v7.6.5br1.dir/App/app/spectrum.c.obj
                0x20000114                registerSpecs
 .data.kbd      0x20000150        0x3 CMakeFiles/n7six.ApeX-k1.v7.6.5br1.dir/App/app/spectrum.c.obj
 .data.audioState
                0x20000153        0x1 CMakeFiles/n7six.ApeX-k1.v7.6.5br1.dir/App/app/spectrum.c.obj
                0x20000153                audioState
 .data.preventKeypress
                0x20000154        0x1 CMakeFiles/n7six.ApeX-k1.v7.6.5br1.dir/App/app/spectrum.c.obj
                0x20000154                preventKeypress
 .data.newScanStart
                0x20000155        0x1 CMakeFiles/n7six.ApeX-k1.v7.6.5br1.dir/App/app/spectrum.c.obj
                0x20000155                newScanStart
 .data.redrawStatus
                0x20000156        0x1 CMakeFiles/n7six.ApeX-k1.v7.6.5br1.dir/App/app/spectrum.c.obj
                0x20000156                redrawStatus
 .data.isListening
                0x20000157        0x1 CMakeFiles/n7six.ApeX-k1.v7.6.5br1.dir/App/app/spectrum.c.obj
                0x20000157                isListening
 .data.kbd      0x20000158        0x3 CMakeFiles/n7six.ApeX-k1.v7.6.5br1.dir/App/app/breakout.c.obj
 *fill*         0x2000015b        0x1 
 .data.ballCount
                0x2000015c        0x2 CMakeFiles/n7six.ApeX-k1.v7.6.5br1.dir/App/app/breakout.c.obj
                0x2000015c                ballCount
 .data.levelCountBreackout
                0x2000015e        0x1 CMakeFiles/n7six.ApeX-k1.v7.6.5br1.dir/App/app/breakout.c.obj
                0x2000015e                levelCountBreackout
 *fill*         0x2000015f        0x1 
 .data.randSeed
                0x20000160        0x4 CMakeFiles/n7six.ApeX-k1.v7.6.5br1.dir/App/app/breakout.c.obj
 .data.keepAlive
                0x20000164        0x1 CMakeFiles/n7six.ApeX-k1.v7.6.5br1.dir/App/screenshot.c.obj
                0x20000168                        . = ALIGN (0x4)
 *fill*         0x20000165        0x3 
                0x20000168                        _edata = .

.tm_clone_table
                0x20000168        0x0 load address 0x08018094
 .tm_clone_table
                0x20000168        0x0 /opt/toolchain/bin/../lib/gcc/arm-none-eabi/13.3.1/thumb/v6-m/nofp/crtbegin.o
 .tm_clone_table
                0x20000168        0x0 /opt/toolchain/bin/../lib/gcc/arm-none-eabi/13.3.1/thumb/v6-m/nofp/crtend.o

.igot.plt       0x20000168        0x0 load address 0x08018094
 .igot.plt      0x20000168        0x0 /opt/toolchain/bin/../lib/gcc/arm-none-eabi/13.3.1/thumb/v6-m/nofp/crtbegin.o

.noncacheable   0x20000168      0x160 load address 0x08018094
 .noncacheable  0x20000168      0x160 CMakeFiles/n7six.ApeX-k1.v7.6.5br1.dir/Middlewares/CherryUSB/core/usbd_core.c.obj
                0x20000168                usbd_core_cfg
                0x200002c8                        . = ALIGN (0x4)

.bss            0x200002e0     0x3000 load address 0x080181f4
                0x200002e0                        _sbss = .
                0x200002e0                        __bss_start__ = _sbss
 *(.bss)
 *(.bss*)
 .bss.completed.1
                0x200002e0        0x1 /opt/toolchain/bin/../lib/gcc/arm-none-eabi/13.3.1/thumb/v6-m/nofp/crtbegin.o
 *fill*         0x200002e1        0x3 
 .bss.object.0  0x200002e4       0x18 /opt/toolchain/bin/../lib/gcc/arm-none-eabi/13.3.1/thumb/v6-m/nofp/crtbegin.o
 .bss.currentBrightness
                0x200002fc        0x1 CMakeFiles/n7six.ApeX-k1.v7.6.5br1.dir/App/driver/backlight.c.obj
 *fill*         0x200002fd        0x1 
 .bss.gSleepModeCountdown_500ms
                0x200002fe        0x2 CMakeFiles/n7six.ApeX-k1.v7.6.5br1.dir/App/driver/backlight.c.obj
                0x200002fe                gSleepModeCountdown_500ms
 .bss.backlightOn
                0x20000300        0x1 CMakeFiles/n7six.ApeX-k1.v7.6.5br1.dir/App/driver/backlight.c.obj
                0x20000300                backlightOn
 *fill*         0x20000301        0x1 
 .bss.gBacklightCountdown_500ms
                0x20000302        0x2 CMakeFiles/n7six.ApeX-k1.v7.6.5br1.dir/App/driver/backlight.c.obj
                0x20000302                gBacklightCountdown_500ms
 .bss.dutyCycle
                0x20000304      0x100 CMakeFiles/n7six.ApeX-k1.v7.6.5br1.dir/App/driver/backlight.c.obj
 .bss.gRxIdleMode
                0x20000404        0x1 CMakeFiles/n7six.ApeX-k1.v7.6.5br1.dir/App/driver/bk4829.c.obj
                0x20000404                gRxIdleMode
 *fill*         0x20000405        0x1 
 .bss.gBK4819_GpioOutState
                0x20000406        0x2 CMakeFiles/n7six.ApeX-k1.v7.6.5br1.dir/App/driver/bk4829.c.obj
 .bss.TC_Flag   0x20000408        0x1 CMakeFiles/n7six.ApeX-k1.v7.6.5br1.dir/App/driver/py25q16.c.obj
 .bss.BlackHole
                0x20000409        0x1 CMakeFiles/n7six.ApeX-k1.v7.6.5br1.dir/App/driver/py25q16.c.obj
 .bss.SectorCache
                0x2000040a     0x1000 CMakeFiles/n7six.ApeX-k1.v7.6.5br1.dir/App/driver/py25q16.c.obj
 .bss.gWasFKeyPressed
                0x2000140a        0x1 CMakeFiles/n7six.ApeX-k1.v7.6.5br1.dir/App/driver/keyboard.c.obj
                0x2000140a                gWasFKeyPressed
 *fill*         0x2000140b        0x1 
 .bss.gDebounceCounter
                0x2000140c        0x2 CMakeFiles/n7six.ApeX-k1.v7.6.5br1.dir/App/driver/keyboard.c.obj
                0x2000140c                gDebounceCounter
 .bss.gFrameBuffer
                0x2000140e      0x380 CMakeFiles/n7six.ApeX-k1.v7.6.5br1.dir/App/driver/st7565.c.obj
                0x2000140e                gFrameBuffer
 .bss.gStatusLine
                0x2000178e       0x80 CMakeFiles/n7six.ApeX-k1.v7.6.5br1.dir/App/driver/st7565.c.obj
                0x2000178e                gStatusLine
 *fill*         0x2000180e        0x2 
 .bss.gTickMultiplier
                0x20001810        0x4 CMakeFiles/n7six.ApeX-k1.v7.6.5br1.dir/App/driver/systick.c.obj
 .bss.cb.0      0x20001814        0x1 CMakeFiles/n7six.ApeX-k1.v7.6.5br1.dir/App/app/action.c.obj
 .bss.dw.1      0x20001815        0x1 CMakeFiles/n7six.ApeX-k1.v7.6.5br1.dir/App/app/action.c.obj
 .bss.cycle.2   0x20001816        0x1 CMakeFiles/n7six.ApeX-k1.v7.6.5br1.dir/App/app/action.c.obj
 .bss.cycle.3   0x20001817        0x1 CMakeFiles/n7six.ApeX-k1.v7.6.5br1.dir/App/app/action.c.obj
 .bss.counter.0
                0x20001818        0x1 CMakeFiles/n7six.ApeX-k1.v7.6.5br1.dir/App/app/app.c.obj
 .bss.goToSleep.1
                0x20001819        0x1 CMakeFiles/n7six.ApeX-k1.v7.6.5br1.dir/App/app/app.c.obj
 .bss.flagSaveChannel
                0x2000181a        0x1 CMakeFiles/n7six.ApeX-k1.v7.6.5br1.dir/App/app/app.c.obj
 .bss.flagSaveSettings
                0x2000181b        0x1 CMakeFiles/n7six.ApeX-k1.v7.6.5br1.dir/App/app/app.c.obj
 .bss.flagSaveVfo
                0x2000181c        0x1 CMakeFiles/n7six.ApeX-k1.v7.6.5br1.dir/App/app/app.c.obj
 *fill*         0x2000181d        0x3 
 .bss.prev_mr_chan.0
                0x20001820        0x4 CMakeFiles/n7six.ApeX-k1.v7.6.5br1.dir/App/app/chFrScanner.c.obj
 .bss.lastFoundFrqOrChanOld
                0x20001824        0x4 CMakeFiles/n7six.ApeX-k1.v7.6.5br1.dir/App/app/chFrScanner.c.obj
                0x20001824                lastFoundFrqOrChanOld
 .bss.lastFoundFrqOrChan
                0x20001828        0x4 CMakeFiles/n7six.ApeX-k1.v7.6.5br1.dir/App/app/chFrScanner.c.obj
                0x20001828                lastFoundFrqOrChan
 .bss.initialCROSS_BAND_RX_TX
                0x2000182c        0x1 CMakeFiles/n7six.ApeX-k1.v7.6.5br1.dir/App/app/chFrScanner.c.obj
                0x2000182c                initialCROSS_BAND_RX_TX
 *fill*         0x2000182d        0x3 
 .bss.initialFrqOrChan
                0x20001830        0x4 CMakeFiles/n7six.ApeX-k1.v7.6.5br1.dir/App/app/chFrScanner.c.obj
                0x20001830                initialFrqOrChan
 .bss.currentScanList
                0x20001834        0x1 CMakeFiles/n7six.ApeX-k1.v7.6.5br1.dir/App/app/chFrScanner.c.obj
                0x20001834                currentScanList
 *fill*         0x20001835        0x3 
 .bss.gScanRangeStop
                0x20001838        0x4 CMakeFiles/n7six.ApeX-k1.v7.6.5br1.dir/App/app/chFrScanner.c.obj
                0x20001838                gScanRangeStop
 .bss.gScanRangeStart
                0x2000183c        0x4 CMakeFiles/n7six.ApeX-k1.v7.6.5br1.dir/App/app/chFrScanner.c.obj
                0x2000183c                gScanRangeStart
 .bss.gScanPauseMode
                0x20001840        0x1 CMakeFiles/n7six.ApeX-k1.v7.6.5br1.dir/App/app/chFrScanner.c.obj
                0x20001840                gScanPauseMode
 .bss.gScanKeepResult
                0x20001841        0x1 CMakeFiles/n7six.ApeX-k1.v7.6.5br1.dir/App/app/chFrScanner.c.obj
                0x20001841                gScanKeepResult
 .bss.gScanStateDir
                0x20001842        0x1 CMakeFiles/n7six.ApeX-k1.v7.6.5br1.dir/App/app/chFrScanner.c.obj
                0x20001842                gScanStateDir
 .bss.gDTMF_ReplyState
                0x20001843        0x1 CMakeFiles/n7six.ApeX-k1.v7.6.5br1.dir/App/app/dtmf.c.obj
                0x20001843                gDTMF_ReplyState
 .bss.gDTMF_RX_live_timeout
                0x20001844        0x1 CMakeFiles/n7six.ApeX-k1.v7.6.5br1.dir/App/app/dtmf.c.obj
                0x20001844                gDTMF_RX_live_timeout
 .bss.gDTMF_RX_live
                0x20001845       0x14 CMakeFiles/n7six.ApeX-k1.v7.6.5br1.dir/App/app/dtmf.c.obj
                0x20001845                gDTMF_RX_live
 .bss.gDTMF_PreviousIndex
                0x20001859        0x1 CMakeFiles/n7six.ApeX-k1.v7.6.5br1.dir/App/app/dtmf.c.obj
                0x20001859                gDTMF_PreviousIndex
 .bss.gDTMF_InputMode
                0x2000185a        0x1 CMakeFiles/n7six.ApeX-k1.v7.6.5br1.dir/App/app/dtmf.c.obj
                0x2000185a                gDTMF_InputMode
 .bss.gDTMF_InputBox_Index
                0x2000185b        0x1 CMakeFiles/n7six.ApeX-k1.v7.6.5br1.dir/App/app/dtmf.c.obj
                0x2000185b                gDTMF_InputBox_Index
 .bss.gDTMF_InputBox
                0x2000185c        0xf CMakeFiles/n7six.ApeX-k1.v7.6.5br1.dir/App/app/dtmf.c.obj
                0x2000185c                gDTMF_InputBox
 .bss.gDTMF_String
                0x2000186b        0xf CMakeFiles/n7six.ApeX-k1.v7.6.5br1.dir/App/app/dtmf.c.obj
                0x2000186b                gDTMF_String
 .bss.g_subscriber_count
                0x2000187a        0x7 CMakeFiles/n7six.ApeX-k1.v7.6.5br1.dir/App/app/events.c.obj
 *fill*         0x20001881        0x3 
 .bss.g_subscribers
                0x20001884       0x70 CMakeFiles/n7six.ApeX-k1.v7.6.5br1.dir/App/app/events.c.obj
 .bss.gUnlockAllTxConfCnt
                0x200018f4        0x1 CMakeFiles/n7six.ApeX-k1.v7.6.5br1.dir/App/app/menu.c.obj
                0x200018f4                gUnlockAllTxConfCnt
 .bss.scanHitCount
                0x200018f5        0x1 CMakeFiles/n7six.ApeX-k1.v7.6.5br1.dir/App/app/scanner.c.obj
                0x200018f5                scanHitCount
 .bss.stepSetting
                0x200018f6        0x1 CMakeFiles/n7six.ApeX-k1.v7.6.5br1.dir/App/app/scanner.c.obj
                0x200018f6                stepSetting
 .bss.gScanUseCssResult
                0x200018f7        0x1 CMakeFiles/n7six.ApeX-k1.v7.6.5br1.dir/App/app/scanner.c.obj
                0x200018f7                gScanUseCssResult
 .bss.gScanProgressIndicator
                0x200018f8        0x1 CMakeFiles/n7six.ApeX-k1.v7.6.5br1.dir/App/app/scanner.c.obj
                0x200018f8                gScanProgressIndicator
 .bss.gScanCssState
                0x200018f9        0x1 CMakeFiles/n7six.ApeX-k1.v7.6.5br1.dir/App/app/scanner.c.obj
                0x200018f9                gScanCssState
 *fill*         0x200018fa        0x2 
 .bss.gScanFrequency
                0x200018fc        0x4 CMakeFiles/n7six.ApeX-k1.v7.6.5br1.dir/App/app/scanner.c.obj
                0x200018fc                gScanFrequency
 .bss.gScanChannel
                0x20001900        0x1 CMakeFiles/n7six.ApeX-k1.v7.6.5br1.dir/App/app/scanner.c.obj
                0x20001900                gScanChannel
 .bss.gScannerSaveState
                0x20001901        0x1 CMakeFiles/n7six.ApeX-k1.v7.6.5br1.dir/App/app/scanner.c.obj
                0x20001901                gScannerSaveState
 .bss.gScanSingleFrequency
                0x20001902        0x1 CMakeFiles/n7six.ApeX-k1.v7.6.5br1.dir/App/app/scanner.c.obj
                0x20001902                gScanSingleFrequency
 .bss.gScanCssResultCode
                0x20001903        0x1 CMakeFiles/n7six.ApeX-k1.v7.6.5br1.dir/App/app/scanner.c.obj
                0x20001903                gScanCssResultCode
 .bss.gScanCssResultType
                0x20001904        0x1 CMakeFiles/n7six.ApeX-k1.v7.6.5br1.dir/App/app/scanner.c.obj
                0x20001904                gScanCssResultType
 .bss.gBeepToPlay
                0x20001905        0x1 CMakeFiles/n7six.ApeX-k1.v7.6.5br1.dir/App/audio.c.obj
                0x20001905                gBeepToPlay
 .bss.gCurrentFunction
                0x20001906        0x1 CMakeFiles/n7six.ApeX-k1.v7.6.5br1.dir/App/functions.c.obj
                0x20001906                gCurrentFunction
 *fill*         0x20001907        0x1 
 .bss.gPowerSave_10ms
                0x20001908        0x2 CMakeFiles/n7six.ApeX-k1.v7.6.5br1.dir/App/helper/battery.c.obj
                0x20001908                gPowerSave_10ms
 .bss.lowBatteryCountdown
                0x2000190a        0x2 CMakeFiles/n7six.ApeX-k1.v7.6.5br1.dir/App/helper/battery.c.obj
                0x2000190a                lowBatteryCountdown
 .bss.gBatteryCheckCounter
                0x2000190c        0x2 CMakeFiles/n7six.ApeX-k1.v7.6.5br1.dir/App/helper/battery.c.obj
                0x2000190c                gBatteryCheckCounter
 .bss.gLowBatteryConfirmed
                0x2000190e        0x1 CMakeFiles/n7six.ApeX-k1.v7.6.5br1.dir/App/helper/battery.c.obj
                0x2000190e                gLowBatteryConfirmed
 .bss.gLowBattery
                0x2000190f        0x1 CMakeFiles/n7six.ApeX-k1.v7.6.5br1.dir/App/helper/battery.c.obj
                0x2000190f                gLowBattery
 .bss.gLowBatteryBlink
                0x20001910        0x1 CMakeFiles/n7six.ApeX-k1.v7.6.5br1.dir/App/helper/battery.c.obj
                0x20001910                gLowBatteryBlink
 .bss.gChargingWithTypeC
                0x20001911        0x1 CMakeFiles/n7six.ApeX-k1.v7.6.5br1.dir/App/helper/battery.c.obj
                0x20001911                gChargingWithTypeC
 .bss.gBatteryDisplayLevel
                0x20001912        0x1 CMakeFiles/n7six.ApeX-k1.v7.6.5br1.dir/App/helper/battery.c.obj
                0x20001912                gBatteryDisplayLevel
 *fill*         0x20001913        0x1 
 .bss.gBatteryVoltageAverage
                0x20001914        0x2 CMakeFiles/n7six.ApeX-k1.v7.6.5br1.dir/App/helper/battery.c.obj
                0x20001914                gBatteryVoltageAverage
 .bss.gBatteryVoltages
                0x20001916        0x8 CMakeFiles/n7six.ApeX-k1.v7.6.5br1.dir/App/helper/battery.c.obj
                0x20001916                gBatteryVoltages
 .bss.gBatteryCurrent
                0x2000191e        0x2 CMakeFiles/n7six.ApeX-k1.v7.6.5br1.dir/App/helper/battery.c.obj
                0x2000191e                gBatteryCurrent
 .bss.gBatteryCurrentVoltage
                0x20001920        0x2 CMakeFiles/n7six.ApeX-k1.v7.6.5br1.dir/App/helper/battery.c.obj
                0x20001920                gBatteryCurrentVoltage
 .bss.gBatteryCalibration
                0x20001922        0xc CMakeFiles/n7six.ApeX-k1.v7.6.5br1.dir/App/helper/battery.c.obj
                0x20001922                gBatteryCalibration
 *fill*         0x2000192e        0x2 
 .bss.gBlinkCounter
                0x20001930        0x4 CMakeFiles/n7six.ApeX-k1.v7.6.5br1.dir/App/misc.c.obj
                0x20001930                gBlinkCounter
 .bss.gPttOnePushCounter
                0x20001934        0x1 CMakeFiles/n7six.ApeX-k1.v7.6.5br1.dir/App/misc.c.obj
                0x20001934                gPttOnePushCounter
 .bss.gBacklightBrightnessOld
                0x20001935        0x1 CMakeFiles/n7six.ApeX-k1.v7.6.5br1.dir/App/misc.c.obj
                0x20001935                gBacklightBrightnessOld
 .bss.gBacklightTimeOriginal
                0x20001936        0x1 CMakeFiles/n7six.ApeX-k1.v7.6.5br1.dir/App/misc.c.obj
                0x20001936                gBacklightTimeOriginal
 .bss.gMute     0x20001937        0x1 CMakeFiles/n7six.ApeX-k1.v7.6.5br1.dir/App/misc.c.obj
                0x20001937                gMute
 .bss.gBackLight
                0x20001938        0x1 CMakeFiles/n7six.ApeX-k1.v7.6.5br1.dir/App/misc.c.obj
                0x20001938                gBackLight
 .bss.gScheduleFM
                0x20001939        0x1 CMakeFiles/n7six.ApeX-k1.v7.6.5br1.dir/App/misc.c.obj
                0x20001939                gScheduleFM
 .bss.gFlagTailNoteEliminationComplete
                0x2000193a        0x1 CMakeFiles/n7six.ApeX-k1.v7.6.5br1.dir/App/misc.c.obj
                0x2000193a                gFlagTailNoteEliminationComplete
 .bss.gNextTimeslice40ms
                0x2000193b        0x1 CMakeFiles/n7six.ApeX-k1.v7.6.5br1.dir/App/misc.c.obj
                0x2000193b                gNextTimeslice40ms
 .bss.gVoxStopCountdown_10ms
                0x2000193c        0x2 CMakeFiles/n7six.ApeX-k1.v7.6.5br1.dir/App/misc.c.obj
                0x2000193c                gVoxStopCountdown_10ms
 .bss.gFoundCTCSSCountdown_10ms
                0x2000193e        0x1 CMakeFiles/n7six.ApeX-k1.v7.6.5br1.dir/App/misc.c.obj
                0x2000193e                gFoundCTCSSCountdown_10ms
 .bss.gFoundCDCSSCountdown_10ms
                0x2000193f        0x1 CMakeFiles/n7six.ApeX-k1.v7.6.5br1.dir/App/misc.c.obj
                0x2000193f                gFoundCDCSSCountdown_10ms
 .bss.gNextTimeslice
                0x20001940        0x1 CMakeFiles/n7six.ApeX-k1.v7.6.5br1.dir/App/misc.c.obj
                0x20001940                gNextTimeslice
 .bss.gShowChPrefix
                0x20001941        0x1 CMakeFiles/n7six.ApeX-k1.v7.6.5br1.dir/App/misc.c.obj
                0x20001941                gShowChPrefix
 .bss.gF_LOCK   0x20001942        0x1 CMakeFiles/n7six.ApeX-k1.v7.6.5br1.dir/App/misc.c.obj
                0x20001942                gF_LOCK
 .bss.gUpdateDisplay
                0x20001943        0x1 CMakeFiles/n7six.ApeX-k1.v7.6.5br1.dir/App/misc.c.obj
                0x20001943                gUpdateDisplay
 .bss.gFSKWriteIndex
                0x20001944        0x1 CMakeFiles/n7six.ApeX-k1.v7.6.5br1.dir/App/misc.c.obj
                0x20001944                gFSKWriteIndex
 .bss.gScanDelay_10ms
                0x20001945        0x1 CMakeFiles/n7six.ApeX-k1.v7.6.5br1.dir/App/misc.c.obj
                0x20001945                gScanDelay_10ms
 .bss.gBackup_CROSS_BAND_RX_TX
                0x20001946        0x1 CMakeFiles/n7six.ApeX-k1.v7.6.5br1.dir/App/misc.c.obj
                0x20001946                gBackup_CROSS_BAND_RX_TX
 .bss.gMenuListCount
                0x20001947        0x1 CMakeFiles/n7six.ApeX-k1.v7.6.5br1.dir/App/misc.c.obj
                0x20001947                gMenuListCount
 .bss.gPttDebounceCounter
                0x20001948        0x1 CMakeFiles/n7six.ApeX-k1.v7.6.5br1.dir/App/misc.c.obj
                0x20001948                gPttDebounceCounter
 .bss.gPttIsPressed
                0x20001949        0x1 CMakeFiles/n7six.ApeX-k1.v7.6.5br1.dir/App/misc.c.obj
                0x20001949                gPttIsPressed
 .bss.gKeyBeingHeld
                0x2000194a        0x1 CMakeFiles/n7six.ApeX-k1.v7.6.5br1.dir/App/misc.c.obj
                0x2000194a                gKeyBeingHeld
 .bss.gRxVfoIsActive
                0x2000194b        0x1 CMakeFiles/n7six.ApeX-k1.v7.6.5br1.dir/App/misc.c.obj
                0x2000194b                gRxVfoIsActive
 .bss.gRxReceptionMode
                0x2000194c        0x1 CMakeFiles/n7six.ApeX-k1.v7.6.5br1.dir/App/misc.c.obj
                0x2000194c                gRxReceptionMode
 .bss.gNextMrChannel
                0x2000194d        0x1 CMakeFiles/n7six.ApeX-k1.v7.6.5br1.dir/App/misc.c.obj
                0x2000194d                gNextMrChannel
 .bss.gFlagEndTransmission
                0x2000194e        0x1 CMakeFiles/n7six.ApeX-k1.v7.6.5br1.dir/App/misc.c.obj
                0x2000194e                gFlagEndTransmission
 *fill*         0x2000194f        0x1 
 .bss.gFlashLightBlinkCounter
                0x20001950        0x2 CMakeFiles/n7six.ApeX-k1.v7.6.5br1.dir/App/misc.c.obj
                0x20001950                gFlashLightBlinkCounter
 .bss.g_SquelchLost
                0x20001952        0x1 CMakeFiles/n7six.ApeX-k1.v7.6.5br1.dir/App/misc.c.obj
                0x20001952                g_SquelchLost
 *fill*         0x20001953        0x1 
 .bss.gVoxPauseCountdown
                0x20001954        0x2 CMakeFiles/n7six.ApeX-k1.v7.6.5br1.dir/App/misc.c.obj
                0x20001954                gVoxPauseCountdown
 .bss.gVoxResumeCountdown
                0x20001956        0x2 CMakeFiles/n7six.ApeX-k1.v7.6.5br1.dir/App/misc.c.obj
                0x20001956                gVoxResumeCountdown
 .bss.gVOX_NoiseDetected
                0x20001958        0x1 CMakeFiles/n7six.ApeX-k1.v7.6.5br1.dir/App/misc.c.obj
                0x20001958                gVOX_NoiseDetected
 .bss.g_VOX_Lost
                0x20001959        0x1 CMakeFiles/n7six.ApeX-k1.v7.6.5br1.dir/App/misc.c.obj
                0x20001959                g_VOX_Lost
 .bss.g_CxCSS_TAIL_Found
                0x2000195a        0x1 CMakeFiles/n7six.ApeX-k1.v7.6.5br1.dir/App/misc.c.obj
                0x2000195a                g_CxCSS_TAIL_Found
 .bss.g_CTCSS_Lost
                0x2000195b        0x1 CMakeFiles/n7six.ApeX-k1.v7.6.5br1.dir/App/misc.c.obj
                0x2000195b                g_CTCSS_Lost
 .bss.gCDCSSCodeType
                0x2000195c        0x1 CMakeFiles/n7six.ApeX-k1.v7.6.5br1.dir/App/misc.c.obj
                0x2000195c                gCDCSSCodeType
 .bss.g_CDCSS_Lost
                0x2000195d        0x1 CMakeFiles/n7six.ApeX-k1.v7.6.5br1.dir/App/misc.c.obj
                0x2000195d                g_CDCSS_Lost
 .bss.gFlagSaveFM
                0x2000195e        0x1 CMakeFiles/n7six.ApeX-k1.v7.6.5br1.dir/App/misc.c.obj
                0x2000195e                gFlagSaveFM
 .bss.gFlagRefreshSetting
                0x2000195f        0x1 CMakeFiles/n7six.ApeX-k1.v7.6.5br1.dir/App/misc.c.obj
                0x2000195f                gFlagRefreshSetting
 .bss.gFlagAcceptSetting
                0x20001960        0x1 CMakeFiles/n7six.ApeX-k1.v7.6.5br1.dir/App/misc.c.obj
                0x20001960                gFlagAcceptSetting
 .bss.gFlagPrepareTX
                0x20001961        0x1 CMakeFiles/n7six.ApeX-k1.v7.6.5br1.dir/App/misc.c.obj
                0x20001961                gFlagPrepareTX
 .bss.gRequestSaveFM
                0x20001962        0x1 CMakeFiles/n7six.ApeX-k1.v7.6.5br1.dir/App/misc.c.obj
                0x20001962                gRequestSaveFM
 .bss.gRequestSaveSettings
                0x20001963        0x1 CMakeFiles/n7six.ApeX-k1.v7.6.5br1.dir/App/misc.c.obj
                0x20001963                gRequestSaveSettings
 .bss.gRequestSaveChannel
                0x20001964        0x1 CMakeFiles/n7six.ApeX-k1.v7.6.5br1.dir/App/misc.c.obj
                0x20001964                gRequestSaveChannel
 .bss.gRequestSaveVFO
                0x20001965        0x1 CMakeFiles/n7six.ApeX-k1.v7.6.5br1.dir/App/misc.c.obj
                0x20001965                gRequestSaveVFO
 .bss.gFlagResetVfos
                0x20001966        0x1 CMakeFiles/n7six.ApeX-k1.v7.6.5br1.dir/App/misc.c.obj
                0x20001966                gFlagResetVfos
 .bss.gVfoConfigureMode
                0x20001967        0x1 CMakeFiles/n7six.ApeX-k1.v7.6.5br1.dir/App/misc.c.obj
                0x20001967                gVfoConfigureMode
 .bss.gFlagReconfigureVfos
                0x20001968        0x1 CMakeFiles/n7six.ApeX-k1.v7.6.5br1.dir/App/misc.c.obj
                0x20001968                gFlagReconfigureVfos
 .bss.gKeypadLocked
                0x20001969        0x1 CMakeFiles/n7six.ApeX-k1.v7.6.5br1.dir/App/misc.c.obj
                0x20001969                gKeypadLocked
 .bss.gPttWasPressed
                0x2000196a        0x1 CMakeFiles/n7six.ApeX-k1.v7.6.5br1.dir/App/misc.c.obj
                0x2000196a                gPttWasPressed
 .bss.gPttWasReleased
                0x2000196b        0x1 CMakeFiles/n7six.ApeX-k1.v7.6.5br1.dir/App/misc.c.obj
                0x2000196b                gPttWasReleased
 .bss.gMenuCountdown
                0x2000196c        0x2 CMakeFiles/n7six.ApeX-k1.v7.6.5br1.dir/App/misc.c.obj
                0x2000196c                gMenuCountdown
 .bss.gAlarmState
                0x2000196e        0x1 CMakeFiles/n7six.ApeX-k1.v7.6.5br1.dir/App/misc.c.obj
                0x2000196e                gAlarmState
 *fill*         0x2000196f        0x1 
 .bss.gScanPauseDelayIn_10ms
                0x20001970        0x2 CMakeFiles/n7six.ApeX-k1.v7.6.5br1.dir/App/misc.c.obj
                0x20001970                gScanPauseDelayIn_10ms
 .bss.gCssBackgroundScan
                0x20001972        0x1 CMakeFiles/n7six.ApeX-k1.v7.6.5br1.dir/App/misc.c.obj
                0x20001972                gCssBackgroundScan
 .bss.gBatteryVoltageIndex
                0x20001973        0x1 CMakeFiles/n7six.ApeX-k1.v7.6.5br1.dir/App/misc.c.obj
                0x20001973                gBatteryVoltageIndex
 .bss.gReducedService
                0x20001974        0x1 CMakeFiles/n7six.ApeX-k1.v7.6.5br1.dir/App/misc.c.obj
                0x20001974                gReducedService
 .bss.gVFO_RSSI_bar_level
                0x20001975        0x2 CMakeFiles/n7six.ApeX-k1.v7.6.5br1.dir/App/misc.c.obj
                0x20001975                gVFO_RSSI_bar_level
 .bss.gEndOfRxDetectedMaybe
                0x20001977        0x1 CMakeFiles/n7six.ApeX-k1.v7.6.5br1.dir/App/misc.c.obj
                0x20001977                gEndOfRxDetectedMaybe
 .bss.gFoundCDCSS
                0x20001978        0x1 CMakeFiles/n7six.ApeX-k1.v7.6.5br1.dir/App/misc.c.obj
                0x20001978                gFoundCDCSS
 .bss.gFoundCTCSS
                0x20001979        0x1 CMakeFiles/n7six.ApeX-k1.v7.6.5br1.dir/App/misc.c.obj
                0x20001979                gFoundCTCSS
 .bss.gUpdateStatus
                0x2000197a        0x1 CMakeFiles/n7six.ApeX-k1.v7.6.5br1.dir/App/misc.c.obj
                0x2000197a                gUpdateStatus
 .bss.bIsInLockScreen
                0x2000197b        0x1 CMakeFiles/n7six.ApeX-k1.v7.6.5br1.dir/App/misc.c.obj
                0x2000197b                bIsInLockScreen
 .bss.gRTTECountdown_10ms
                0x2000197c        0x1 CMakeFiles/n7six.ApeX-k1.v7.6.5br1.dir/App/misc.c.obj
                0x2000197c                gRTTECountdown_10ms
 .bss.gKeyLockCountdown
                0x2000197d        0x1 CMakeFiles/n7six.ApeX-k1.v7.6.5br1.dir/App/misc.c.obj
                0x2000197d                gKeyLockCountdown
 .bss.gKeyInputCountdown
                0x2000197e        0x1 CMakeFiles/n7six.ApeX-k1.v7.6.5br1.dir/App/misc.c.obj
                0x2000197e                gKeyInputCountdown
 .bss.gEnableSpeaker
                0x2000197f        0x1 CMakeFiles/n7six.ApeX-k1.v7.6.5br1.dir/App/misc.c.obj
                0x2000197f                gEnableSpeaker
 .bss.gVFOStateResumeCountdown_500ms
                0x20001980        0x1 CMakeFiles/n7six.ApeX-k1.v7.6.5br1.dir/App/misc.c.obj
                0x20001980                gVFOStateResumeCountdown_500ms
 *fill*         0x20001981        0x1 
 .bss.gTailNoteEliminationCountdown_10ms
                0x20001982        0x2 CMakeFiles/n7six.ApeX-k1.v7.6.5br1.dir/App/misc.c.obj
                0x20001982                gTailNoteEliminationCountdown_10ms
 .bss.gUART_LockScreenshot
                0x20001984        0x1 CMakeFiles/n7six.ApeX-k1.v7.6.5br1.dir/App/misc.c.obj
                0x20001984                gUART_LockScreenshot
 *fill*         0x20001985        0x1 
 .bss.gRxTimerCountdown_500ms
                0x20001986        0x2 CMakeFiles/n7six.ApeX-k1.v7.6.5br1.dir/App/misc.c.obj
                0x20001986                gRxTimerCountdown_500ms
 .bss.gTxTimeoutReachedAlert
                0x20001988        0x1 CMakeFiles/n7six.ApeX-k1.v7.6.5br1.dir/App/misc.c.obj
                0x20001988                gTxTimeoutReachedAlert
 *fill*         0x20001989        0x1 
 .bss.gTxTimerCountdownAlert_500ms
                0x2000198a        0x2 CMakeFiles/n7six.ApeX-k1.v7.6.5br1.dir/App/misc.c.obj
                0x2000198a                gTxTimerCountdownAlert_500ms
 .bss.gTxTimeoutReached
                0x2000198c        0x1 CMakeFiles/n7six.ApeX-k1.v7.6.5br1.dir/App/misc.c.obj
                0x2000198c                gTxTimeoutReached
 *fill*         0x2000198d        0x1 
 .bss.gTxTimerCountdown_500ms
                0x2000198e        0x2 CMakeFiles/n7six.ApeX-k1.v7.6.5br1.dir/App/misc.c.obj
                0x2000198e                gTxTimerCountdown_500ms
 .bss.gNextTimeslice_500ms
                0x20001990        0x1 CMakeFiles/n7six.ApeX-k1.v7.6.5br1.dir/App/misc.c.obj
                0x20001990                gNextTimeslice_500ms
 .bss.gSerialConfigCountDown_500ms
                0x20001991        0x1 CMakeFiles/n7six.ApeX-k1.v7.6.5br1.dir/App/misc.c.obj
                0x20001991                gSerialConfigCountDown_500ms
 .bss.gDualWatchActive
                0x20001992        0x1 CMakeFiles/n7six.ApeX-k1.v7.6.5br1.dir/App/misc.c.obj
                0x20001992                gDualWatchActive
 *fill*         0x20001993        0x1 
 .bss.gDualWatchCountdown_10ms
                0x20001994        0x2 CMakeFiles/n7six.ApeX-k1.v7.6.5br1.dir/App/misc.c.obj
                0x20001994                gDualWatchCountdown_10ms
 .bss.gSchedulePowerSave
                0x20001996        0x1 CMakeFiles/n7six.ApeX-k1.v7.6.5br1.dir/App/misc.c.obj
                0x20001996                gSchedulePowerSave
 .bss.gPowerSaveCountdownExpired
                0x20001997        0x1 CMakeFiles/n7six.ApeX-k1.v7.6.5br1.dir/App/misc.c.obj
                0x20001997                gPowerSaveCountdownExpired
 .bss.gMR_ChannelExclude
                0x20001998       0xcf CMakeFiles/n7six.ApeX-k1.v7.6.5br1.dir/App/misc.c.obj
                0x20001998                gMR_ChannelExclude
 .bss.gMR_ChannelAttributes
                0x20001a67       0xcf CMakeFiles/n7six.ApeX-k1.v7.6.5br1.dir/App/misc.c.obj
                0x20001a67                gMR_ChannelAttributes
 .bss.gEEPROM_1F8C
                0x20001b36        0x2 CMakeFiles/n7six.ApeX-k1.v7.6.5br1.dir/App/misc.c.obj
                0x20001b36                gEEPROM_1F8C
 .bss.gEEPROM_1F8A
                0x20001b38        0x2 CMakeFiles/n7six.ApeX-k1.v7.6.5br1.dir/App/misc.c.obj
                0x20001b38                gEEPROM_1F8A
 .bss.gEEPROM_RSSI_CALIB
                0x20001b3a       0x38 CMakeFiles/n7six.ApeX-k1.v7.6.5br1.dir/App/misc.c.obj
                0x20001b3a                gEEPROM_RSSI_CALIB
 *fill*         0x20001b72        0x2 
 .bss.gChallenge
                0x20001b74       0x10 CMakeFiles/n7six.ApeX-k1.v7.6.5br1.dir/App/misc.c.obj
                0x20001b74                gChallenge
 .bss.bHasCustomAesKey
                0x20001b84        0x1 CMakeFiles/n7six.ApeX-k1.v7.6.5br1.dir/App/misc.c.obj
                0x20001b84                bHasCustomAesKey
 *fill*         0x20001b85        0x3 
 .bss.gCustomAesKey
                0x20001b88       0x10 CMakeFiles/n7six.ApeX-k1.v7.6.5br1.dir/App/misc.c.obj
                0x20001b88                gCustomAesKey
 .bss.gMonitor  0x20001b98        0x1 CMakeFiles/n7six.ApeX-k1.v7.6.5br1.dir/App/misc.c.obj
                0x20001b98                gMonitor
 .bss.gSetting_battery_text
                0x20001b99        0x1 CMakeFiles/n7six.ApeX-k1.v7.6.5br1.dir/App/misc.c.obj
                0x20001b99                gSetting_battery_text
 .bss.gSetting_live_DTMF_decoder
                0x20001b9a        0x1 CMakeFiles/n7six.ApeX-k1.v7.6.5br1.dir/App/misc.c.obj
                0x20001b9a                gSetting_live_DTMF_decoder
 .bss.gSetting_mic_bar
                0x20001b9b        0x1 CMakeFiles/n7six.ApeX-k1.v7.6.5br1.dir/App/misc.c.obj
                0x20001b9b                gSetting_mic_bar
 .bss.gRemoveOffset
                0x20001b9c        0x1 CMakeFiles/n7six.ApeX-k1.v7.6.5br1.dir/App/misc.c.obj
                0x20001b9c                gRemoveOffset
 .bss.gPowerHigh
                0x20001b9d        0x1 CMakeFiles/n7six.ApeX-k1.v7.6.5br1.dir/App/misc.c.obj
                0x20001b9d                gPowerHigh
 .bss.gAircopyStep
                0x20001b9e        0x1 CMakeFiles/n7six.ApeX-k1.v7.6.5br1.dir/App/misc.c.obj
                0x20001b9e                gAircopyStep
 .bss.lErrorsDuringAirCopy
                0x20001b9f        0x1 CMakeFiles/n7six.ApeX-k1.v7.6.5br1.dir/App/misc.c.obj
                0x20001b9f                lErrorsDuringAirCopy
 .bss.crc       0x20001ba0        0xf CMakeFiles/n7six.ApeX-k1.v7.6.5br1.dir/App/misc.c.obj
                0x20001ba0                crc
 .bss.gSaveRxMode
                0x20001baf        0x1 CMakeFiles/n7six.ApeX-k1.v7.6.5br1.dir/App/misc.c.obj
                0x20001baf                gSaveRxMode
 .bss.gCB       0x20001bb0        0x1 CMakeFiles/n7six.ApeX-k1.v7.6.5br1.dir/App/misc.c.obj
                0x20001bb0                gCB
 .bss.gDW       0x20001bb1        0x1 CMakeFiles/n7six.ApeX-k1.v7.6.5br1.dir/App/misc.c.obj
                0x20001bb1                gDW
 .bss.gSetting_set_ptt_session
                0x20001bb2        0x1 CMakeFiles/n7six.ApeX-k1.v7.6.5br1.dir/App/misc.c.obj
                0x20001bb2                gSetting_set_ptt_session
 .bss.gSetting_set_tmr
                0x20001bb3        0x1 CMakeFiles/n7six.ApeX-k1.v7.6.5br1.dir/App/misc.c.obj
                0x20001bb3                gSetting_set_tmr
 .bss.gSetting_set_nfm
                0x20001bb4        0x1 CMakeFiles/n7six.ApeX-k1.v7.6.5br1.dir/App/misc.c.obj
                0x20001bb4                gSetting_set_nfm
 .bss.gSetting_set_gui
                0x20001bb5        0x1 CMakeFiles/n7six.ApeX-k1.v7.6.5br1.dir/App/misc.c.obj
                0x20001bb5                gSetting_set_gui
 .bss.gSetting_set_met
                0x20001bb6        0x1 CMakeFiles/n7six.ApeX-k1.v7.6.5br1.dir/App/misc.c.obj
                0x20001bb6                gSetting_set_met
 .bss.gSetting_set_lck
                0x20001bb7        0x1 CMakeFiles/n7six.ApeX-k1.v7.6.5br1.dir/App/misc.c.obj
                0x20001bb7                gSetting_set_lck
 .bss.gSetting_set_eot
                0x20001bb8        0x1 CMakeFiles/n7six.ApeX-k1.v7.6.5br1.dir/App/misc.c.obj
                0x20001bb8                gSetting_set_eot
 .bss.gSetting_set_inv
                0x20001bb9        0x1 CMakeFiles/n7six.ApeX-k1.v7.6.5br1.dir/App/misc.c.obj
                0x20001bb9                gSetting_set_inv
 .bss.gSetting_set_tot
                0x20001bba        0x1 CMakeFiles/n7six.ApeX-k1.v7.6.5br1.dir/App/misc.c.obj
                0x20001bba                gSetting_set_tot
 .bss.gSetting_set_ptt
                0x20001bbb        0x1 CMakeFiles/n7six.ApeX-k1.v7.6.5br1.dir/App/misc.c.obj
                0x20001bbb                gSetting_set_ptt
 .bss.gWakeUp   0x20001bbc        0x1 CMakeFiles/n7six.ApeX-k1.v7.6.5br1.dir/App/misc.c.obj
                0x20001bbc                gWakeUp
 .bss.gSetting_backlight_on_tx_rx
                0x20001bbd        0x1 CMakeFiles/n7six.ApeX-k1.v7.6.5br1.dir/App/misc.c.obj
                0x20001bbd                gSetting_backlight_on_tx_rx
 .bss.gSetting_ScrambleEnable
                0x20001bbe        0x1 CMakeFiles/n7six.ApeX-k1.v7.6.5br1.dir/App/misc.c.obj
                0x20001bbe                gSetting_ScrambleEnable
 .bss.gSetting_F_LOCK
                0x20001bbf        0x1 CMakeFiles/n7six.ApeX-k1.v7.6.5br1.dir/App/misc.c.obj
                0x20001bbf                gSetting_F_LOCK
 .bss.gSetting_350EN
                0x20001bc0        0x1 CMakeFiles/n7six.ApeX-k1.v7.6.5br1.dir/App/misc.c.obj
                0x20001bc0                gSetting_350EN
 *fill*         0x20001bc1        0x1 
 .bss.boot_counter_10ms
                0x20001bc2        0x2 CMakeFiles/n7six.ApeX-k1.v7.6.5br1.dir/App/misc.c.obj
                0x20001bc2                boot_counter_10ms
 .bss.lastSettings.0
                0x20001bc4        0x1 CMakeFiles/n7six.ApeX-k1.v7.6.5br1.dir/App/radio.c.obj
 .bss.VfoState  0x20001bc5        0x2 CMakeFiles/n7six.ApeX-k1.v7.6.5br1.dir/App/radio.c.obj
                0x20001bc5                VfoState
 .bss.gCurrentCodeType
                0x20001bc7        0x1 CMakeFiles/n7six.ApeX-k1.v7.6.5br1.dir/App/radio.c.obj
                0x20001bc7                gCurrentCodeType
 .bss.gCurrentVfo
                0x20001bc8        0x4 CMakeFiles/n7six.ApeX-k1.v7.6.5br1.dir/App/radio.c.obj
                0x20001bc8                gCurrentVfo
 .bss.gRxVfo    0x20001bcc        0x4 CMakeFiles/n7six.ApeX-k1.v7.6.5br1.dir/App/radio.c.obj
                0x20001bcc                gRxVfo
 .bss.gTxVfo    0x20001bd0        0x4 CMakeFiles/n7six.ApeX-k1.v7.6.5br1.dir/App/radio.c.obj
                0x20001bd0                gTxVfo
 .bss.gGlobalSysTickCounter
                0x20001bd4        0x4 CMakeFiles/n7six.ApeX-k1.v7.6.5br1.dir/App/scheduler.c.obj
 .bss.gEeprom   0x20001bd8      0x118 CMakeFiles/n7six.ApeX-k1.v7.6.5br1.dir/App/settings.c.obj
                0x20001bd8                gEeprom
 .bss.gInputBoxIndex
                0x20001cf0        0x1 CMakeFiles/n7six.ApeX-k1.v7.6.5br1.dir/App/ui/inputbox.c.obj
                0x20001cf0                gInputBoxIndex
 .bss.inputBoxAscii
                0x20001cf1        0x9 CMakeFiles/n7six.ApeX-k1.v7.6.5br1.dir/App/ui/inputbox.c.obj
                0x20001cf1                inputBoxAscii
 .bss.gInputBox
                0x20001cfa        0x8 CMakeFiles/n7six.ApeX-k1.v7.6.5br1.dir/App/ui/inputbox.c.obj
                0x20001cfa                gInputBox
 .bss.barsOld.0
                0x20001d02        0x1 CMakeFiles/n7six.ApeX-k1.v7.6.5br1.dir/App/ui/main.c.obj
 .bss.isMainOnlyInputDTMF
                0x20001d03        0x1 CMakeFiles/n7six.ApeX-k1.v7.6.5br1.dir/App/ui/main.c.obj
                0x20001d03                isMainOnlyInputDTMF
 .bss.RxOnVfofrequency
                0x20001d04        0x4 CMakeFiles/n7six.ApeX-k1.v7.6.5br1.dir/App/ui/main.c.obj
 .bss.RxLine    0x20001d08        0x1 CMakeFiles/n7six.ApeX-k1.v7.6.5br1.dir/App/ui/main.c.obj
 .bss.RxBlinkLedCounter
                0x20001d09        0x1 CMakeFiles/n7six.ApeX-k1.v7.6.5br1.dir/App/ui/main.c.obj
 .bss.RxBlinkLed
                0x20001d0a        0x1 CMakeFiles/n7six.ApeX-k1.v7.6.5br1.dir/App/ui/main.c.obj
 .bss.RxBlink   0x20001d0b        0x1 CMakeFiles/n7six.ApeX-k1.v7.6.5br1.dir/App/ui/main.c.obj
 .bss.center_line
                0x20001d0c        0x1 CMakeFiles/n7six.ApeX-k1.v7.6.5br1.dir/App/ui/main.c.obj
                0x20001d0c                center_line
 *fill*         0x20001d0d        0x3 
 .bss.edit_index
                0x20001d10        0x4 CMakeFiles/n7six.ApeX-k1.v7.6.5br1.dir/App/ui/menu.c.obj
                0x20001d10                edit_index
 .bss.edit      0x20001d14       0x11 CMakeFiles/n7six.ApeX-k1.v7.6.5br1.dir/App/ui/menu.c.obj
                0x20001d14                edit
 .bss.edit_original
                0x20001d25       0x11 CMakeFiles/n7six.ApeX-k1.v7.6.5br1.dir/App/ui/menu.c.obj
                0x20001d25                edit_original
 *fill*         0x20001d36        0x2 
 .bss.gSubMenuSelection
                0x20001d38        0x4 CMakeFiles/n7six.ApeX-k1.v7.6.5br1.dir/App/ui/menu.c.obj
                0x20001d38                gSubMenuSelection
 .bss.gMenuCursor
                0x20001d3c        0x1 CMakeFiles/n7six.ApeX-k1.v7.6.5br1.dir/App/ui/menu.c.obj
                0x20001d3c                gMenuCursor
 .bss.gIsInSubMenu
                0x20001d3d        0x1 CMakeFiles/n7six.ApeX-k1.v7.6.5br1.dir/App/ui/menu.c.obj
                0x20001d3d                gIsInSubMenu
 .bss.gAskToDelete
                0x20001d3e        0x1 CMakeFiles/n7six.ApeX-k1.v7.6.5br1.dir/App/ui/ui.c.obj
                0x20001d3e                gAskToDelete
 .bss.gAskToSave
                0x20001d3f        0x1 CMakeFiles/n7six.ApeX-k1.v7.6.5br1.dir/App/ui/ui.c.obj
                0x20001d3f                gAskToSave
 .bss.gAskForConfirmation
                0x20001d40        0x1 CMakeFiles/n7six.ApeX-k1.v7.6.5br1.dir/App/ui/ui.c.obj
                0x20001d40                gAskForConfirmation
 .bss.gScreenToDisplay
                0x20001d41        0x1 CMakeFiles/n7six.ApeX-k1.v7.6.5br1.dir/App/ui/ui.c.obj
                0x20001d41                gScreenToDisplay
 .bss.UART_DMA_Buffer
                0x20001d42      0x100 CMakeFiles/n7six.ApeX-k1.v7.6.5br1.dir/App/driver/uart.c.obj
                0x20001d42                UART_DMA_Buffer
 .bss.VCP_ReplyBuf.0
                0x20001e42       0x98 CMakeFiles/n7six.ApeX-k1.v7.6.5br1.dir/App/app/uart.c.obj
 .bss.VCP_ReadIndex
                0x20001eda        0x2 CMakeFiles/n7six.ApeX-k1.v7.6.5br1.dir/App/app/uart.c.obj
 .bss.VCP_Command
                0x20001edc      0x100 CMakeFiles/n7six.ApeX-k1.v7.6.5br1.dir/App/app/uart.c.obj
 .bss.VCP_Timestamp
                0x20001fdc        0x4 CMakeFiles/n7six.ApeX-k1.v7.6.5br1.dir/App/app/uart.c.obj
 .bss.gUART_WriteIndex
                0x20001fe0        0x2 CMakeFiles/n7six.ApeX-k1.v7.6.5br1.dir/App/app/uart.c.obj
 *fill*         0x20001fe2        0x2 
 .bss.UART_Command
                0x20001fe4      0x100 CMakeFiles/n7six.ApeX-k1.v7.6.5br1.dir/App/app/uart.c.obj
 .bss.UART_Timestamp
                0x200020e4        0x4 CMakeFiles/n7six.ApeX-k1.v7.6.5br1.dir/App/app/uart.c.obj
 .bss.VCP_RxBufPointer
                0x200020e8        0x4 CMakeFiles/n7six.ApeX-k1.v7.6.5br1.dir/App/driver/vcp.c.obj
                0x200020e8                VCP_RxBufPointer
 .bss.VCP_RxBuf
                0x200020ec      0x100 CMakeFiles/n7six.ApeX-k1.v7.6.5br1.dir/App/driver/vcp.c.obj
                0x200020ec                VCP_RxBuf
 .bss.dtr_enable
                0x200021ec        0x1 CMakeFiles/n7six.ApeX-k1.v7.6.5br1.dir/App/usb/usbd_cdc_if.c.obj
                0x200021ec                dtr_enable
 *fill*         0x200021ed        0x3 
 .bss.intf1     0x200021f0       0x24 CMakeFiles/n7six.ApeX-k1.v7.6.5br1.dir/App/usb/usbd_cdc_if.c.obj
                0x200021f0                intf1
 .bss.intf0     0x20002214       0x24 CMakeFiles/n7six.ApeX-k1.v7.6.5br1.dir/App/usb/usbd_cdc_if.c.obj
                0x20002214                intf0
 .bss.ep_tx_busy_flag
                0x20002238        0x1 CMakeFiles/n7six.ApeX-k1.v7.6.5br1.dir/App/usb/usbd_cdc_if.c.obj
                0x20002238                ep_tx_busy_flag
 *fill*         0x20002239        0x3 
 .bss.client_rx_buf
                0x2000223c        0xc CMakeFiles/n7six.ApeX-k1.v7.6.5br1.dir/App/usb/usbd_cdc_if.c.obj
 .bss.read_buffer
                0x20002248       0x80 CMakeFiles/n7six.ApeX-k1.v7.6.5br1.dir/App/usb/usbd_cdc_if.c.obj
                0x20002248                read_buffer
 .bss.BK1080_FrequencyDeviation
                0x200022c8        0x2 CMakeFiles/n7six.ApeX-k1.v7.6.5br1.dir/App/driver/bk1080.c.obj
                0x200022c8                BK1080_FrequencyDeviation
 .bss.BK1080_BaseFrequency
                0x200022ca        0x2 CMakeFiles/n7six.ApeX-k1.v7.6.5br1.dir/App/driver/bk1080.c.obj
                0x200022ca                BK1080_BaseFrequency
 .bss.gIsInitBK1080
                0x200022cc        0x1 CMakeFiles/n7six.ApeX-k1.v7.6.5br1.dir/App/driver/bk1080.c.obj
 *fill*         0x200022cd        0x1 
 .bss.gFM_RestoreCountdown_10ms
                0x200022ce        0x2 CMakeFiles/n7six.ApeX-k1.v7.6.5br1.dir/App/app/fm.c.obj
                0x200022ce                gFM_RestoreCountdown_10ms
 .bss.gFM_FoundFrequency
                0x200022d0        0x1 CMakeFiles/n7six.ApeX-k1.v7.6.5br1.dir/App/app/fm.c.obj
                0x200022d0                gFM_FoundFrequency
 .bss.gFM_ChannelPosition
                0x200022d1        0x1 CMakeFiles/n7six.ApeX-k1.v7.6.5br1.dir/App/app/fm.c.obj
                0x200022d1                gFM_ChannelPosition
 .bss.gFM_AutoScan
                0x200022d2        0x1 CMakeFiles/n7six.ApeX-k1.v7.6.5br1.dir/App/app/fm.c.obj
                0x200022d2                gFM_AutoScan
 .bss.gFM_ScanState
                0x200022d3        0x1 CMakeFiles/n7six.ApeX-k1.v7.6.5br1.dir/App/app/fm.c.obj
                0x200022d3                gFM_ScanState
 .bss.gFmPlayCountdown_10ms
                0x200022d4        0x2 CMakeFiles/n7six.ApeX-k1.v7.6.5br1.dir/App/app/fm.c.obj
                0x200022d4                gFmPlayCountdown_10ms
 .bss.gFmRadioCountdown_500ms
                0x200022d6        0x1 CMakeFiles/n7six.ApeX-k1.v7.6.5br1.dir/App/app/fm.c.obj
                0x200022d6                gFmRadioCountdown_500ms
 .bss.gFmRadioMode
                0x200022d7        0x1 CMakeFiles/n7six.ApeX-k1.v7.6.5br1.dir/App/app/fm.c.obj
                0x200022d7                gFmRadioMode
 .bss.gFM_Channels
                0x200022d8       0x28 CMakeFiles/n7six.ApeX-k1.v7.6.5br1.dir/App/app/fm.c.obj
                0x200022d8                gFM_Channels
 .bss.g_FSK_Buffer
                0x20002300       0x48 CMakeFiles/n7six.ApeX-k1.v7.6.5br1.dir/App/app/aircopy.c.obj
                0x20002300                g_FSK_Buffer
 .bss.gAirCopyIsSendMode
                0x20002348        0x1 CMakeFiles/n7six.ApeX-k1.v7.6.5br1.dir/App/app/aircopy.c.obj
                0x20002348                gAirCopyIsSendMode
 *fill*         0x20002349        0x1 
 .bss.gErrorsDuringAirCopy
                0x2000234a        0x2 CMakeFiles/n7six.ApeX-k1.v7.6.5br1.dir/App/app/aircopy.c.obj
                0x2000234a                gErrorsDuringAirCopy
 .bss.gAirCopyBlockNumber
                0x2000234c        0x2 CMakeFiles/n7six.ApeX-k1.v7.6.5br1.dir/App/app/aircopy.c.obj
                0x2000234c                gAirCopyBlockNumber
 .bss.gAircopyState
                0x2000234e        0x1 CMakeFiles/n7six.ApeX-k1.v7.6.5br1.dir/App/app/aircopy.c.obj
                0x2000234e                gAircopyState
 .bss.c.0       0x2000234f        0x1 CMakeFiles/n7six.ApeX-k1.v7.6.5br1.dir/App/app/flashlight.c.obj
 .bss.next.1    0x20002350        0x2 CMakeFiles/n7six.ApeX-k1.v7.6.5br1.dir/App/app/flashlight.c.obj
 .bss.gFlashLightState
                0x20002352        0x1 CMakeFiles/n7six.ApeX-k1.v7.6.5br1.dir/App/app/flashlight.c.obj
                0x20002352                gFlashLightState
 .bss.channelName.1
                0x20002353        0xc CMakeFiles/n7six.ApeX-k1.v7.6.5br1.dir/App/app/spectrum.c.obj
 *fill*         0x2000235f        0x1 
 .bss.channelF.2
                0x20002360        0x4 CMakeFiles/n7six.ApeX-k1.v7.6.5br1.dir/App/app/spectrum.c.obj
 .bss.String.3  0x20002364       0x20 CMakeFiles/n7six.ApeX-k1.v7.6.5br1.dir/App/app/spectrum.c.obj
 .bss.rxAudioSmooth.5
                0x20002384        0x1 CMakeFiles/n7six.ApeX-k1.v7.6.5br1.dir/App/app/spectrum.c.obj
 .bss.quietCounter.6
                0x20002385        0x1 CMakeFiles/n7six.ApeX-k1.v7.6.5br1.dir/App/app/spectrum.c.obj
 .bss.listenWatchdog.7
                0x20002386        0x1 CMakeFiles/n7six.ApeX-k1.v7.6.5br1.dir/App/app/spectrum.c.obj
 *fill*         0x20002387        0x1 
 .bss.noisePersistence
                0x20002388      0x100 CMakeFiles/n7six.ApeX-k1.v7.6.5br1.dir/App/app/spectrum.c.obj
 .bss.registers_stack
                0x20002488        0xe CMakeFiles/n7six.ApeX-k1.v7.6.5br1.dir/App/app/spectrum.c.obj
 .bss.blacklistFreqsIdx
                0x20002496        0x1 CMakeFiles/n7six.ApeX-k1.v7.6.5br1.dir/App/app/spectrum.c.obj
 *fill*         0x20002497        0x1 
 .bss.blacklistFreqs
                0x20002498       0x1e CMakeFiles/n7six.ApeX-k1.v7.6.5br1.dir/App/app/spectrum.c.obj
 .bss.statuslineUpdateTimer
                0x200024b6        0x2 CMakeFiles/n7six.ApeX-k1.v7.6.5br1.dir/App/app/spectrum.c.obj
                0x200024b6                statuslineUpdateTimer
 .bss.String    0x200024b8       0x20 CMakeFiles/n7six.ApeX-k1.v7.6.5br1.dir/App/app/spectrum.c.obj
 .bss.listenT   0x200024d8        0x2 CMakeFiles/n7six.ApeX-k1.v7.6.5br1.dir/App/app/spectrum.c.obj
                0x200024d8                listenT
 .bss.menuState
                0x200024da        0x1 CMakeFiles/n7six.ApeX-k1.v7.6.5br1.dir/App/app/spectrum.c.obj
                0x200024da                menuState
 .bss.freqInputString
                0x200024db        0xb CMakeFiles/n7six.ApeX-k1.v7.6.5br1.dir/App/app/spectrum.c.obj
                0x200024db                freqInputString
 .bss.freqInputArr
                0x200024e6        0xa CMakeFiles/n7six.ApeX-k1.v7.6.5br1.dir/App/app/spectrum.c.obj
                0x200024e6                freqInputArr
 .bss.freqInputDotIndex
                0x200024f0        0x1 CMakeFiles/n7six.ApeX-k1.v7.6.5br1.dir/App/app/spectrum.c.obj
                0x200024f0                freqInputDotIndex
 .bss.freqInputIndex
                0x200024f1        0x1 CMakeFiles/n7six.ApeX-k1.v7.6.5br1.dir/App/app/spectrum.c.obj
                0x200024f1                freqInputIndex
 .bss.spectrumMeterBackgroundInit
                0x200024f2        0x1 CMakeFiles/n7six.ApeX-k1.v7.6.5br1.dir/App/app/spectrum.c.obj
 .bss.spectrumMeterBackground
                0x200024f3       0x79 CMakeFiles/n7six.ApeX-k1.v7.6.5br1.dir/App/app/spectrum.c.obj
 .bss.peakAge   0x2000256c       0x80 CMakeFiles/n7six.ApeX-k1.v7.6.5br1.dir/App/app/spectrum.c.obj
 .bss.peakHold  0x200025ec       0x80 CMakeFiles/n7six.ApeX-k1.v7.6.5br1.dir/App/app/spectrum.c.obj
 .bss.smoothedRssi
                0x2000266c      0x100 CMakeFiles/n7six.ApeX-k1.v7.6.5br1.dir/App/app/spectrum.c.obj
 .bss.waterfallIndex
                0x2000276c        0x1 CMakeFiles/n7six.ApeX-k1.v7.6.5br1.dir/App/app/spectrum.c.obj
                0x2000276c                waterfallIndex
 .bss.waterfallHistory
                0x2000276d      0x400 CMakeFiles/n7six.ApeX-k1.v7.6.5br1.dir/App/app/spectrum.c.obj
                0x2000276d                waterfallHistory
 *fill*         0x20002b6d        0x1 
 .bss.rssiHistory
                0x20002b6e      0x100 CMakeFiles/n7six.ApeX-k1.v7.6.5br1.dir/App/app/spectrum.c.obj
                0x20002b6e                rssiHistory
 *fill*         0x20002c6e        0x2 
 .bss.vfo       0x20002c70        0x4 CMakeFiles/n7six.ApeX-k1.v7.6.5br1.dir/App/app/spectrum.c.obj
                0x20002c70                vfo
 .bss.tempFreq  0x20002c74        0x4 CMakeFiles/n7six.ApeX-k1.v7.6.5br1.dir/App/app/spectrum.c.obj
                0x20002c74                tempFreq
 .bss.currentFreq
                0x20002c78        0x4 CMakeFiles/n7six.ApeX-k1.v7.6.5br1.dir/App/app/spectrum.c.obj
                0x20002c78                currentFreq
 .bss.fMeasure  0x20002c7c        0x4 CMakeFiles/n7six.ApeX-k1.v7.6.5br1.dir/App/app/spectrum.c.obj
                0x20002c7c                fMeasure
 .bss.initialFreq
                0x20002c80        0x4 CMakeFiles/n7six.ApeX-k1.v7.6.5br1.dir/App/app/spectrum.c.obj
 .bss.displayRssi
                0x20002c84        0x2 CMakeFiles/n7six.ApeX-k1.v7.6.5br1.dir/App/app/spectrum.c.obj
 *fill*         0x20002c86        0x2 
 .bss.scanInfo  0x20002c88       0x18 CMakeFiles/n7six.ApeX-k1.v7.6.5br1.dir/App/app/spectrum.c.obj
                0x20002c88                scanInfo
 .bss.peak      0x20002ca0        0xc CMakeFiles/n7six.ApeX-k1.v7.6.5br1.dir/App/app/spectrum.c.obj
                0x20002ca0                peak
 .bss.previousState
                0x20002cac        0x1 CMakeFiles/n7six.ApeX-k1.v7.6.5br1.dir/App/app/spectrum.c.obj
                0x20002cac                previousState
 .bss.currentState
                0x20002cad        0x1 CMakeFiles/n7six.ApeX-k1.v7.6.5br1.dir/App/app/spectrum.c.obj
                0x20002cad                currentState
 .bss.lockAGC   0x20002cae        0x1 CMakeFiles/n7six.ApeX-k1.v7.6.5br1.dir/App/app/spectrum.c.obj
                0x20002cae                lockAGC
 .bss.redrawScreen
                0x20002caf        0x1 CMakeFiles/n7six.ApeX-k1.v7.6.5br1.dir/App/app/spectrum.c.obj
                0x20002caf                redrawScreen
 .bss.monitorMode
                0x20002cb0        0x1 CMakeFiles/n7six.ApeX-k1.v7.6.5br1.dir/App/app/spectrum.c.obj
                0x20002cb0                monitorMode
 .bss.isInitialized
                0x20002cb1        0x1 CMakeFiles/n7six.ApeX-k1.v7.6.5br1.dir/App/app/spectrum.c.obj
 .bss.swap.0    0x20002cb2        0x1 CMakeFiles/n7six.ApeX-k1.v7.6.5br1.dir/App/app/breakout.c.obj
 *fill*         0x20002cb3        0x1 
 .bss.ball      0x20002cb4        0x8 CMakeFiles/n7six.ApeX-k1.v7.6.5br1.dir/App/app/breakout.c.obj
                0x20002cb4                ball
 .bss.racket    0x20002cbc        0x5 CMakeFiles/n7six.ApeX-k1.v7.6.5br1.dir/App/app/breakout.c.obj
                0x20002cbc                racket
 .bss.brick     0x20002cc1       0x6c CMakeFiles/n7six.ApeX-k1.v7.6.5br1.dir/App/app/breakout.c.obj
                0x20002cc1                brick
 .bss.str       0x20002d2d        0xc CMakeFiles/n7six.ApeX-k1.v7.6.5br1.dir/App/app/breakout.c.obj
                0x20002d2d                str
 *fill*         0x20002d39        0x1 
 .bss.score     0x20002d3a        0x2 CMakeFiles/n7six.ApeX-k1.v7.6.5br1.dir/App/app/breakout.c.obj
                0x20002d3a                score
 .bss.tone      0x20002d3c        0x2 CMakeFiles/n7six.ApeX-k1.v7.6.5br1.dir/App/app/breakout.c.obj
                0x20002d3c                tone
 .bss.isBeep    0x20002d3e        0x1 CMakeFiles/n7six.ApeX-k1.v7.6.5br1.dir/App/app/breakout.c.obj
                0x20002d3e                isBeep
 .bss.isPaused  0x20002d3f        0x1 CMakeFiles/n7six.ApeX-k1.v7.6.5br1.dir/App/app/breakout.c.obj
                0x20002d3f                isPaused
 .bss.isInitialized
                0x20002d40        0x1 CMakeFiles/n7six.ApeX-k1.v7.6.5br1.dir/App/app/breakout.c.obj
 .bss.blockAnim
                0x20002d41        0x1 CMakeFiles/n7six.ApeX-k1.v7.6.5br1.dir/App/app/breakout.c.obj
 .bss.forcedBlock
                0x20002d42        0x1 CMakeFiles/n7six.ApeX-k1.v7.6.5br1.dir/App/screenshot.c.obj
 .bss.previousFrame
                0x20002d43      0x400 CMakeFiles/n7six.ApeX-k1.v7.6.5br1.dir/App/screenshot.c.obj
 *fill*         0x20003143        0x1 
 .bss.bos_desc  0x20003144        0x4 CMakeFiles/n7six.ApeX-k1.v7.6.5br1.dir/Middlewares/CherryUSB/core/usbd_core.c.obj
 .bss.msosv2_desc
                0x20003148        0x4 CMakeFiles/n7six.ApeX-k1.v7.6.5br1.dir/Middlewares/CherryUSB/core/usbd_core.c.obj
 .bss.msosv1_desc
                0x2000314c        0x4 CMakeFiles/n7six.ApeX-k1.v7.6.5br1.dir/Middlewares/CherryUSB/core/usbd_core.c.obj
 .bss.usbd_intf_head
                0x20003150        0x4 CMakeFiles/n7six.ApeX-k1.v7.6.5br1.dir/Middlewares/CherryUSB/core/usbd_core.c.obj
                0x20003150                usbd_intf_head
 .bss.zlp_flag  0x20003154        0x1 CMakeFiles/n7six.ApeX-k1.v7.6.5br1.dir/Middlewares/CherryUSB/port/usb_dc_py32.c.obj
                0x20003154                zlp_flag
 .bss.usb_ep0_state
                0x20003155        0x1 CMakeFiles/n7six.ApeX-k1.v7.6.5br1.dir/Middlewares/CherryUSB/port/usb_dc_py32.c.obj
 *fill*         0x20003156        0xa 
 .bss.g_pyusb_udc
                0x20003160      0x180 CMakeFiles/n7six.ApeX-k1.v7.6.5br1.dir/Middlewares/CherryUSB/port/usb_dc_py32.c.obj
                0x20003160                g_pyusb_udc
 *(COMMON)
                0x200032e0                        . = ALIGN (0x4)
                0x200032e0                        _ebss = .
                0x200032e0                        __bss_end__ = _ebss

._user_heap_stack
                0x200032e0      0x600 load address 0x080181f4
                0x200032e0                        . = ALIGN (0x8)
                [!provide]                        PROVIDE (end = .)
                [!provide]                        PROVIDE (_end = .)
                0x200034e0                        . = (. + _Min_Heap_Size)
 *fill*         0x200032e0      0x200 
                0x200038e0                        . = (. + _Min_Stack_Size)
 *fill*         0x200034e0      0x400 
                0x200038e0                        . = ALIGN (0x8)

/DISCARD/
 libc.a(*)
 libm.a(*)
 libgcc.a(*)

.ARM.attributes
                0x00000000       0x28
 *(.ARM.attributes)
 .ARM.attributes
                0x00000000       0x1e /opt/toolchain/bin/../lib/gcc/arm-none-eabi/13.3.1/thumb/v6-m/nofp/crti.o
 .ARM.attributes
                0x0000001e       0x2c /opt/toolchain/bin/../lib/gcc/arm-none-eabi/13.3.1/thumb/v6-m/nofp/crtbegin.o
 .ARM.attributes
                0x0000004a       0x2c CMakeFiles/n7six.ApeX-k1.v7.6.5br1.dir/Core/Src/main.c.obj
 .ARM.attributes
                0x00000076       0x2c CMakeFiles/n7six.ApeX-k1.v7.6.5br1.dir/Core/Src/py32f071_it.c.obj
 .ARM.attributes
                0x000000a2       0x2c CMakeFiles/n7six.ApeX-k1.v7.6.5br1.dir/Core/Src/system_py32f071.c.obj
 .ARM.attributes
                0x000000ce       0x22 CMakeFiles/n7six.ApeX-k1.v7.6.5br1.dir/Core/startup_py32f071xx.s.obj
 .ARM.attributes
                0x000000f0       0x2c CMakeFiles/n7six.ApeX-k1.v7.6.5br1.dir/Drivers/PY32F071_HAL_Driver/Src/py32f071_ll_rcc.c.obj
 .ARM.attributes
                0x0000011c       0x2c CMakeFiles/n7six.ApeX-k1.v7.6.5br1.dir/Drivers/PY32F071_HAL_Driver/Src/py32f071_ll_dma.c.obj
 .ARM.attributes
                0x00000148       0x2c CMakeFiles/n7six.ApeX-k1.v7.6.5br1.dir/Drivers/PY32F071_HAL_Driver/Src/py32f071_ll_gpio.c.obj
 .ARM.attributes
                0x00000174       0x2c CMakeFiles/n7six.ApeX-k1.v7.6.5br1.dir/Drivers/PY32F071_HAL_Driver/Src/py32f071_ll_utils.c.obj
 .ARM.attributes
                0x000001a0       0x2c CMakeFiles/n7six.ApeX-k1.v7.6.5br1.dir/Drivers/PY32F071_HAL_Driver/Src/py32f071_ll_spi.c.obj
 .ARM.attributes
                0x000001cc       0x2c CMakeFiles/n7six.ApeX-k1.v7.6.5br1.dir/Drivers/PY32F071_HAL_Driver/Src/py32f071_ll_usart.c.obj
 .ARM.attributes
                0x000001f8       0x2c CMakeFiles/n7six.ApeX-k1.v7.6.5br1.dir/App/driver/backlight.c.obj
 .ARM.attributes
                0x00000224       0x2c CMakeFiles/n7six.ApeX-k1.v7.6.5br1.dir/App/driver/bk4829.c.obj
 .ARM.attributes
                0x00000250       0x2c CMakeFiles/n7six.ApeX-k1.v7.6.5br1.dir/App/driver/py25q16.c.obj
 .ARM.attributes
                0x0000027c       0x2c CMakeFiles/n7six.ApeX-k1.v7.6.5br1.dir/App/driver/i2c.c.obj
 .ARM.attributes
                0x000002a8       0x2c CMakeFiles/n7six.ApeX-k1.v7.6.5br1.dir/App/driver/keyboard.c.obj
 .ARM.attributes
                0x000002d4       0x2c CMakeFiles/n7six.ApeX-k1.v7.6.5br1.dir/App/driver/st7565.c.obj
 .ARM.attributes
                0x00000300       0x2c CMakeFiles/n7six.ApeX-k1.v7.6.5br1.dir/App/driver/system.c.obj
 .ARM.attributes
                0x0000032c       0x2c CMakeFiles/n7six.ApeX-k1.v7.6.5br1.dir/App/driver/systick.c.obj
 .ARM.attributes
                0x00000358       0x2c CMakeFiles/n7six.ApeX-k1.v7.6.5br1.dir/App/app/action.c.obj
 .ARM.attributes
                0x00000384       0x2c CMakeFiles/n7six.ApeX-k1.v7.6.5br1.dir/App/app/app.c.obj
 .ARM.attributes
                0x000003b0       0x2c CMakeFiles/n7six.ApeX-k1.v7.6.5br1.dir/App/app/chFrScanner.c.obj
 .ARM.attributes
                0x000003dc       0x2c CMakeFiles/n7six.ApeX-k1.v7.6.5br1.dir/App/app/common.c.obj
 .ARM.attributes
                0x00000408       0x2c CMakeFiles/n7six.ApeX-k1.v7.6.5br1.dir/App/app/dtmf.c.obj
 .ARM.attributes
                0x00000434       0x2c CMakeFiles/n7six.ApeX-k1.v7.6.5br1.dir/App/app/events.c.obj
 .ARM.attributes
                0x00000460       0x2c CMakeFiles/n7six.ApeX-k1.v7.6.5br1.dir/App/app/events_handlers.c.obj
 .ARM.attributes
                0x0000048c       0x2c CMakeFiles/n7six.ApeX-k1.v7.6.5br1.dir/App/app/generic.c.obj
 .ARM.attributes
                0x000004b8       0x2c CMakeFiles/n7six.ApeX-k1.v7.6.5br1.dir/App/app/main.c.obj
 .ARM.attributes
                0x000004e4       0x2c CMakeFiles/n7six.ApeX-k1.v7.6.5br1.dir/App/app/menu.c.obj
 .ARM.attributes
                0x00000510       0x2c CMakeFiles/n7six.ApeX-k1.v7.6.5br1.dir/App/app/scanner.c.obj
 .ARM.attributes
                0x0000053c       0x2c CMakeFiles/n7six.ApeX-k1.v7.6.5br1.dir/App/audio.c.obj
 .ARM.attributes
                0x00000568       0x2c CMakeFiles/n7six.ApeX-k1.v7.6.5br1.dir/App/bitmaps.c.obj
 .ARM.attributes
                0x00000594       0x2c CMakeFiles/n7six.ApeX-k1.v7.6.5br1.dir/App/board.c.obj
 .ARM.attributes
                0x000005c0       0x2c CMakeFiles/n7six.ApeX-k1.v7.6.5br1.dir/App/dcs.c.obj
 .ARM.attributes
                0x000005ec       0x2c CMakeFiles/n7six.ApeX-k1.v7.6.5br1.dir/App/font.c.obj
 .ARM.attributes
                0x00000618       0x2c CMakeFiles/n7six.ApeX-k1.v7.6.5br1.dir/App/frequencies.c.obj
 .ARM.attributes
                0x00000644       0x2c CMakeFiles/n7six.ApeX-k1.v7.6.5br1.dir/App/functions.c.obj
 .ARM.attributes
                0x00000670       0x2c CMakeFiles/n7six.ApeX-k1.v7.6.5br1.dir/App/helper/battery.c.obj
 .ARM.attributes
                0x0000069c       0x2c CMakeFiles/n7six.ApeX-k1.v7.6.5br1.dir/App/helper/boot.c.obj
 .ARM.attributes
                0x000006c8       0x2c CMakeFiles/n7six.ApeX-k1.v7.6.5br1.dir/App/misc.c.obj
 .ARM.attributes
                0x000006f4       0x2c CMakeFiles/n7six.ApeX-k1.v7.6.5br1.dir/App/radio.c.obj
 .ARM.attributes
                0x00000720       0x2c CMakeFiles/n7six.ApeX-k1.v7.6.5br1.dir/App/scheduler.c.obj
 .ARM.attributes
                0x0000074c       0x2c CMakeFiles/n7six.ApeX-k1.v7.6.5br1.dir/App/settings.c.obj
 .ARM.attributes
                0x00000778       0x2c CMakeFiles/n7six.ApeX-k1.v7.6.5br1.dir/App/ui/battery.c.obj
 .ARM.attributes
                0x000007a4       0x2c CMakeFiles/n7six.ApeX-k1.v7.6.5br1.dir/App/ui/helper.c.obj
 .ARM.attributes
                0x000007d0       0x2c CMakeFiles/n7six.ApeX-k1.v7.6.5br1.dir/App/ui/inputbox.c.obj
 .ARM.attributes
                0x000007fc       0x2c CMakeFiles/n7six.ApeX-k1.v7.6.5br1.dir/App/ui/main.c.obj
 .ARM.attributes
                0x00000828       0x2c CMakeFiles/n7six.ApeX-k1.v7.6.5br1.dir/App/ui/menu.c.obj
 .ARM.attributes
                0x00000854       0x2c CMakeFiles/n7six.ApeX-k1.v7.6.5br1.dir/App/ui/scanner.c.obj
 .ARM.attributes
                0x00000880       0x2c CMakeFiles/n7six.ApeX-k1.v7.6.5br1.dir/App/ui/status.c.obj
 .ARM.attributes
                0x000008ac       0x2c CMakeFiles/n7six.ApeX-k1.v7.6.5br1.dir/App/ui/ui.c.obj
 .ARM.attributes
                0x000008d8       0x2c CMakeFiles/n7six.ApeX-k1.v7.6.5br1.dir/App/ui/welcome.c.obj
 .ARM.attributes
                0x00000904       0x2c CMakeFiles/n7six.ApeX-k1.v7.6.5br1.dir/App/version.c.obj
 .ARM.attributes
                0x00000930       0x2c CMakeFiles/n7six.ApeX-k1.v7.6.5br1.dir/App/main.c.obj
 .ARM.attributes
                0x0000095c       0x2c CMakeFiles/n7six.ApeX-k1.v7.6.5br1.dir/App/external/printf/printf.c.obj
 .ARM.attributes
                0x00000988       0x2c CMakeFiles/n7six.ApeX-k1.v7.6.5br1.dir/App/driver/crc.c.obj
 .ARM.attributes
                0x000009b4       0x2c CMakeFiles/n7six.ApeX-k1.v7.6.5br1.dir/App/driver/eeprom_compat.c.obj
 .ARM.attributes
                0x000009e0       0x2c CMakeFiles/n7six.ApeX-k1.v7.6.5br1.dir/App/driver/uart.c.obj
 .ARM.attributes
                0x00000a0c       0x2c CMakeFiles/n7six.ApeX-k1.v7.6.5br1.dir/App/app/uart.c.obj
 .ARM.attributes
                0x00000a38       0x2c CMakeFiles/n7six.ApeX-k1.v7.6.5br1.dir/App/driver/vcp.c.obj
 .ARM.attributes
                0x00000a64       0x2c CMakeFiles/n7six.ApeX-k1.v7.6.5br1.dir/App/usb/usbd_cdc_if.c.obj
 .ARM.attributes
                0x00000a90       0x2c CMakeFiles/n7six.ApeX-k1.v7.6.5br1.dir/App/driver/bk1080.c.obj
 .ARM.attributes
                0x00000abc       0x2c CMakeFiles/n7six.ApeX-k1.v7.6.5br1.dir/App/app/fm.c.obj
 .ARM.attributes
                0x00000ae8       0x2c CMakeFiles/n7six.ApeX-k1.v7.6.5br1.dir/App/ui/fmradio.c.obj
 .ARM.attributes
                0x00000b14       0x2c CMakeFiles/n7six.ApeX-k1.v7.6.5br1.dir/App/app/aircopy.c.obj
 .ARM.attributes
                0x00000b40       0x2c CMakeFiles/n7six.ApeX-k1.v7.6.5br1.dir/App/ui/aircopy.c.obj
 .ARM.attributes
                0x00000b6c       0x2c CMakeFiles/n7six.ApeX-k1.v7.6.5br1.dir/App/app/flashlight.c.obj
 .ARM.attributes
                0x00000b98       0x2c CMakeFiles/n7six.ApeX-k1.v7.6.5br1.dir/App/app/spectrum.c.obj
 .ARM.attributes
                0x00000bc4       0x2c CMakeFiles/n7six.ApeX-k1.v7.6.5br1.dir/App/app/breakout.c.obj
 .ARM.attributes
                0x00000bf0       0x2c CMakeFiles/n7six.ApeX-k1.v7.6.5br1.dir/App/screenshot.c.obj
 .ARM.attributes
                0x00000c1c       0x2c CMakeFiles/n7six.ApeX-k1.v7.6.5br1.dir/Middlewares/CherryUSB/core/usbd_core.c.obj
 .ARM.attributes
                0x00000c48       0x2c CMakeFiles/n7six.ApeX-k1.v7.6.5br1.dir/Middlewares/CherryUSB/port/usb_dc_py32.c.obj
 .ARM.attributes
                0x00000c74       0x2c CMakeFiles/n7six.ApeX-k1.v7.6.5br1.dir/Middlewares/CherryUSB/class/cdc/usbd_cdc.c.obj
 .ARM.attributes
                0x00000ca0       0x1e /opt/toolchain/bin/../lib/gcc/arm-none-eabi/13.3.1/thumb/v6-m/nofp/libgcc.a(_thumb1_case_sqi.o)
 .ARM.attributes
                0x00000cbe       0x1e /opt/toolchain/bin/../lib/gcc/arm-none-eabi/13.3.1/thumb/v6-m/nofp/libgcc.a(_thumb1_case_uqi.o)
 .ARM.attributes
                0x00000cdc       0x1e /opt/toolchain/bin/../lib/gcc/arm-none-eabi/13.3.1/thumb/v6-m/nofp/libgcc.a(_thumb1_case_shi.o)
 .ARM.attributes
                0x00000cfa       0x1e /opt/toolchain/bin/../lib/gcc/arm-none-eabi/13.3.1/thumb/v6-m/nofp/libgcc.a(_thumb1_case_uhi.o)
 .ARM.attributes
                0x00000d18       0x1e /opt/toolchain/bin/../lib/gcc/arm-none-eabi/13.3.1/thumb/v6-m/nofp/libgcc.a(_udivsi3.o)
 .ARM.attributes
                0x00000d36       0x1e /opt/toolchain/bin/../lib/gcc/arm-none-eabi/13.3.1/thumb/v6-m/nofp/libgcc.a(_divsi3.o)
 .ARM.attributes
                0x00000d54       0x1e /opt/toolchain/bin/../lib/gcc/arm-none-eabi/13.3.1/thumb/v6-m/nofp/libgcc.a(_dvmd_tls.o)
 .ARM.attributes
                0x00000d72       0x1e /opt/toolchain/bin/../lib/gcc/arm-none-eabi/13.3.1/thumb/v6-m/nofp/libgcc.a(_clzsi2.o)
 .ARM.attributes
                0x00000d90       0x2c /opt/toolchain/bin/../lib/gcc/arm-none-eabi/13.3.1/thumb/v6-m/nofp/libgcc.a(_muldi3.o)
 .ARM.attributes
                0x00000dbc       0x2c /opt/toolchain/bin/../lib/gcc/arm-none-eabi/13.3.1/thumb/v6-m/nofp/libgcc.a(_fixunssfsi.o)
 .ARM.attributes
                0x00000de8       0x2c /opt/toolchain/bin/../lib/gcc/arm-none-eabi/13.3.1/thumb/v6-m/nofp/libgcc.a(addsf3.o)
 .ARM.attributes
                0x00000e14       0x2c /opt/toolchain/bin/../lib/gcc/arm-none-eabi/13.3.1/thumb/v6-m/nofp/libgcc.a(mulsf3.o)
 .ARM.attributes
                0x00000e40       0x2c /opt/toolchain/bin/../lib/gcc/arm-none-eabi/13.3.1/thumb/v6-m/nofp/libgcc.a(subsf3.o)
 .ARM.attributes
                0x00000e6c       0x2c /opt/toolchain/bin/../lib/gcc/arm-none-eabi/13.3.1/thumb/v6-m/nofp/libgcc.a(fixsfsi.o)
 .ARM.attributes
                0x00000e98       0x2c /opt/toolchain/bin/../lib/gcc/arm-none-eabi/13.3.1/thumb/v6-m/nofp/libgcc.a(floatsisf.o)
 .ARM.attributes
                0x00000ec4       0x1e /opt/toolchain/bin/../lib/gcc/arm-none-eabi/13.3.1/thumb/v6-m/nofp/libgcc.a(_arm_cmpsf2.o)
 .ARM.attributes
                0x00000ee2       0x2c /opt/toolchain/bin/../lib/gcc/arm-none-eabi/13.3.1/thumb/v6-m/nofp/libgcc.a(eqsf2.o)
 .ARM.attributes
                0x00000f0e       0x2c /opt/toolchain/bin/../lib/gcc/arm-none-eabi/13.3.1/thumb/v6-m/nofp/libgcc.a(gesf2.o)
 .ARM.attributes
                0x00000f3a       0x2c /opt/toolchain/bin/../lib/gcc/arm-none-eabi/13.3.1/thumb/v6-m/nofp/libgcc.a(lesf2.o)
 .ARM.attributes
                0x00000f66       0x2c /opt/toolchain/bin/../lib/gcc/arm-none-eabi/13.3.1/../../../../arm-none-eabi/lib/thumb/v6-m/nofp/libg_nano.a(libc_a-init.o)
 .ARM.attributes
                0x00000f92       0x2c /opt/toolchain/bin/../lib/gcc/arm-none-eabi/13.3.1/../../../../arm-none-eabi/lib/thumb/v6-m/nofp/libg_nano.a(libc_a-memmove.o)
 .ARM.attributes
                0x00000fbe       0x2c /opt/toolchain/bin/../lib/gcc/arm-none-eabi/13.3.1/../../../../arm-none-eabi/lib/thumb/v6-m/nofp/libg_nano.a(libc_a-memset.o)
 .ARM.attributes
                0x00000fea       0x2c /opt/toolchain/bin/../lib/gcc/arm-none-eabi/13.3.1/../../../../arm-none-eabi/lib/thumb/v6-m/nofp/libg_nano.a(libc_a-memcpy-stub.o)
 .ARM.attributes
                0x00001016       0x1c /opt/toolchain/bin/../lib/gcc/arm-none-eabi/13.3.1/../../../../arm-none-eabi/lib/thumb/v6-m/nofp/libg_nano.a(libc_a-strlen.o)
 .ARM.attributes
                0x00001032       0x2c /opt/toolchain/bin/../lib/gcc/arm-none-eabi/13.3.1/../../../../arm-none-eabi/lib/thumb/v6-m/nofp/libg_nano.a(libc_a-strncpy.o)
 .ARM.attributes
                0x0000105e       0x2c /opt/toolchain/bin/../lib/gcc/arm-none-eabi/13.3.1/../../../../arm-none-eabi/lib/thumb/v6-m/nofp/libg_nano.a(libc_a-strnlen.o)
 .ARM.attributes
                0x0000108a       0x2c /opt/toolchain/bin/../lib/gcc/arm-none-eabi/13.3.1/../../../../arm-none-eabi/lib/thumb/v6-m/nofp/libg_nano.a(libc_a-memcmp.o)
 .ARM.attributes
                0x000010b6       0x2c /opt/toolchain/bin/../lib/gcc/arm-none-eabi/13.3.1/thumb/v6-m/nofp/crtend.o
 .ARM.attributes
                0x000010e2       0x1e /opt/toolchain/bin/../lib/gcc/arm-none-eabi/13.3.1/thumb/v6-m/nofp/crtn.o
OUTPUT(n7six.ApeX-k1.v7.6.5br1.elf elf32-littlearm)
LOAD linker stubs
LOAD /opt/toolchain/bin/../lib/gcc/arm-none-eabi/13.3.1/../../../../arm-none-eabi/lib/thumb/v6-m/nofp/libc.a
LOAD /opt/toolchain/bin/../lib/gcc/arm-none-eabi/13.3.1/../../../../arm-none-eabi/lib/thumb/v6-m/nofp/libm.a
LOAD /opt/toolchain/bin/../lib/gcc/arm-none-eabi/13.3.1/thumb/v6-m/nofp/libgcc.a

.comment        0x00000000       0x45
 .comment       0x00000000       0x45 CMakeFiles/n7six.ApeX-k1.v7.6.5br1.dir/Core/Src/main.c.obj
                                 0x46 (size before relaxing)
 .comment       0x00000045       0x46 CMakeFiles/n7six.ApeX-k1.v7.6.5br1.dir/Core/Src/py32f071_it.c.obj
 .comment       0x00000045       0x46 CMakeFiles/n7six.ApeX-k1.v7.6.5br1.dir/Core/Src/system_py32f071.c.obj
 .comment       0x00000045       0x46 CMakeFiles/n7six.ApeX-k1.v7.6.5br1.dir/Drivers/PY32F071_HAL_Driver/Src/py32f071_ll_rcc.c.obj
 .comment       0x00000045       0x46 CMakeFiles/n7six.ApeX-k1.v7.6.5br1.dir/Drivers/PY32F071_HAL_Driver/Src/py32f071_ll_dma.c.obj
 .comment       0x00000045       0x46 CMakeFiles/n7six.ApeX-k1.v7.6.5br1.dir/Drivers/PY32F071_HAL_Driver/Src/py32f071_ll_gpio.c.obj
 .comment       0x00000045       0x46 CMakeFiles/n7six.ApeX-k1.v7.6.5br1.dir/Drivers/PY32F071_HAL_Driver/Src/py32f071_ll_utils.c.obj
 .comment       0x00000045       0x46 CMakeFiles/n7six.ApeX-k1.v7.6.5br1.dir/Drivers/PY32F071_HAL_Driver/Src/py32f071_ll_spi.c.obj
 .comment       0x00000045       0x46 CMakeFiles/n7six.ApeX-k1.v7.6.5br1.dir/Drivers/PY32F071_HAL_Driver/Src/py32f071_ll_usart.c.obj
 .comment       0x00000045       0x46 CMakeFiles/n7six.ApeX-k1.v7.6.5br1.dir/App/driver/backlight.c.obj
 .comment       0x00000045       0x46 CMakeFiles/n7six.ApeX-k1.v7.6.5br1.dir/App/driver/bk4829.c.obj
 .comment       0x00000045       0x46 CMakeFiles/n7six.ApeX-k1.v7.6.5br1.dir/App/driver/py25q16.c.obj
 .comment       0x00000045       0x46 CMakeFiles/n7six.ApeX-k1.v7.6.5br1.dir/App/driver/i2c.c.obj
 .comment       0x00000045       0x46 CMakeFiles/n7six.ApeX-k1.v7.6.5br1.dir/App/driver/keyboard.c.obj
 .comment       0x00000045       0x46 CMakeFiles/n7six.ApeX-k1.v7.6.5br1.dir/App/driver/st7565.c.obj
 .comment       0x00000045       0x46 CMakeFiles/n7six.ApeX-k1.v7.6.5br1.dir/App/driver/system.c.obj
 .comment       0x00000045       0x46 CMakeFiles/n7six.ApeX-k1.v7.6.5br1.dir/App/driver/systick.c.obj
 .comment       0x00000045       0x46 CMakeFiles/n7six.ApeX-k1.v7.6.5br1.dir/App/app/action.c.obj
 .comment       0x00000045       0x46 CMakeFiles/n7six.ApeX-k1.v7.6.5br1.dir/App/app/app.c.obj
 .comment       0x00000045       0x46 CMakeFiles/n7six.ApeX-k1.v7.6.5br1.dir/App/app/chFrScanner.c.obj
 .comment       0x00000045       0x46 CMakeFiles/n7six.ApeX-k1.v7.6.5br1.dir/App/app/common.c.obj
 .comment       0x00000045       0x46 CMakeFiles/n7six.ApeX-k1.v7.6.5br1.dir/App/app/dtmf.c.obj
 .comment       0x00000045       0x46 CMakeFiles/n7six.ApeX-k1.v7.6.5br1.dir/App/app/events.c.obj
 .comment       0x00000045       0x46 CMakeFiles/n7six.ApeX-k1.v7.6.5br1.dir/App/app/events_handlers.c.obj
 .comment       0x00000045       0x46 CMakeFiles/n7six.ApeX-k1.v7.6.5br1.dir/App/app/generic.c.obj
 .comment       0x00000045       0x46 CMakeFiles/n7six.ApeX-k1.v7.6.5br1.dir/App/app/main.c.obj
 .comment       0x00000045       0x46 CMakeFiles/n7six.ApeX-k1.v7.6.5br1.dir/App/app/menu.c.obj
 .comment       0x00000045       0x46 CMakeFiles/n7six.ApeX-k1.v7.6.5br1.dir/App/app/scanner.c.obj
 .comment       0x00000045       0x46 CMakeFiles/n7six.ApeX-k1.v7.6.5br1.dir/App/audio.c.obj
 .comment       0x00000045       0x46 CMakeFiles/n7six.ApeX-k1.v7.6.5br1.dir/App/bitmaps.c.obj
 .comment       0x00000045       0x46 CMakeFiles/n7six.ApeX-k1.v7.6.5br1.dir/App/board.c.obj
 .comment       0x00000045       0x46 CMakeFiles/n7six.ApeX-k1.v7.6.5br1.dir/App/dcs.c.obj
 .comment       0x00000045       0x46 CMakeFiles/n7six.ApeX-k1.v7.6.5br1.dir/App/font.c.obj
 .comment       0x00000045       0x46 CMakeFiles/n7six.ApeX-k1.v7.6.5br1.dir/App/frequencies.c.obj
 .comment       0x00000045       0x46 CMakeFiles/n7six.ApeX-k1.v7.6.5br1.dir/App/functions.c.obj
 .comment       0x00000045       0x46 CMakeFiles/n7six.ApeX-k1.v7.6.5br1.dir/App/helper/battery.c.obj
 .comment       0x00000045       0x46 CMakeFiles/n7six.ApeX-k1.v7.6.5br1.dir/App/helper/boot.c.obj
 .comment       0x00000045       0x46 CMakeFiles/n7six.ApeX-k1.v7.6.5br1.dir/App/misc.c.obj
 .comment       0x00000045       0x46 CMakeFiles/n7six.ApeX-k1.v7.6.5br1.dir/App/radio.c.obj
 .comment       0x00000045       0x46 CMakeFiles/n7six.ApeX-k1.v7.6.5br1.dir/App/scheduler.c.obj
 .comment       0x00000045       0x46 CMakeFiles/n7six.ApeX-k1.v7.6.5br1.dir/App/settings.c.obj
 .comment       0x00000045       0x46 CMakeFiles/n7six.ApeX-k1.v7.6.5br1.dir/App/ui/battery.c.obj
 .comment       0x00000045       0x46 CMakeFiles/n7six.ApeX-k1.v7.6.5br1.dir/App/ui/helper.c.obj
 .comment       0x00000045       0x46 CMakeFiles/n7six.ApeX-k1.v7.6.5br1.dir/App/ui/inputbox.c.obj
 .comment       0x00000045       0x46 CMakeFiles/n7six.ApeX-k1.v7.6.5br1.dir/App/ui/main.c.obj
 .comment       0x00000045       0x46 CMakeFiles/n7six.ApeX-k1.v7.6.5br1.dir/App/ui/menu.c.obj
 .comment       0x00000045       0x46 CMakeFiles/n7six.ApeX-k1.v7.6.5br1.dir/App/ui/scanner.c.obj
 .comment       0x00000045       0x46 CMakeFiles/n7six.ApeX-k1.v7.6.5br1.dir/App/ui/status.c.obj
 .comment       0x00000045       0x46 CMakeFiles/n7six.ApeX-k1.v7.6.5br1.dir/App/ui/ui.c.obj
 .comment       0x00000045       0x46 CMakeFiles/n7six.ApeX-k1.v7.6.5br1.dir/App/ui/welcome.c.obj
 .comment       0x00000045       0x46 CMakeFiles/n7six.ApeX-k1.v7.6.5br1.dir/App/version.c.obj
 .comment       0x00000045       0x46 CMakeFiles/n7six.ApeX-k1.v7.6.5br1.dir/App/main.c.obj
 .comment       0x00000045       0x46 CMakeFiles/n7six.ApeX-k1.v7.6.5br1.dir/App/external/printf/printf.c.obj
 .comment       0x00000045       0x46 CMakeFiles/n7six.ApeX-k1.v7.6.5br1.dir/App/driver/crc.c.obj
 .comment       0x00000045       0x46 CMakeFiles/n7six.ApeX-k1.v7.6.5br1.dir/App/driver/eeprom_compat.c.obj
 .comment       0x00000045       0x46 CMakeFiles/n7six.ApeX-k1.v7.6.5br1.dir/App/driver/uart.c.obj
 .comment       0x00000045       0x46 CMakeFiles/n7six.ApeX-k1.v7.6.5br1.dir/App/app/uart.c.obj
 .comment       0x00000045       0x46 CMakeFiles/n7six.ApeX-k1.v7.6.5br1.dir/App/driver/vcp.c.obj
 .comment       0x00000045       0x46 CMakeFiles/n7six.ApeX-k1.v7.6.5br1.dir/App/usb/usbd_cdc_if.c.obj
 .comment       0x00000045       0x46 CMakeFiles/n7six.ApeX-k1.v7.6.5br1.dir/App/driver/bk1080.c.obj
 .comment       0x00000045       0x46 CMakeFiles/n7six.ApeX-k1.v7.6.5br1.dir/App/app/fm.c.obj
 .comment       0x00000045       0x46 CMakeFiles/n7six.ApeX-k1.v7.6.5br1.dir/App/ui/fmradio.c.obj
 .comment       0x00000045       0x46 CMakeFiles/n7six.ApeX-k1.v7.6.5br1.dir/App/app/aircopy.c.obj
 .comment       0x00000045       0x46 CMakeFiles/n7six.ApeX-k1.v7.6.5br1.dir/App/ui/aircopy.c.obj
 .comment       0x00000045       0x46 CMakeFiles/n7six.ApeX-k1.v7.6.5br1.dir/App/app/flashlight.c.obj
 .comment       0x00000045       0x46 CMakeFiles/n7six.ApeX-k1.v7.6.5br1.dir/App/app/spectrum.c.obj
 .comment       0x00000045       0x46 CMakeFiles/n7six.ApeX-k1.v7.6.5br1.dir/App/app/breakout.c.obj
 .comment       0x00000045       0x46 CMakeFiles/n7six.ApeX-k1.v7.6.5br1.dir/App/screenshot.c.obj
 .comment       0x00000045       0x46 CMakeFiles/n7six.ApeX-k1.v7.6.5br1.dir/Middlewares/CherryUSB/core/usbd_core.c.obj
 .comment       0x00000045       0x46 CMakeFiles/n7six.ApeX-k1.v7.6.5br1.dir/Middlewares/CherryUSB/port/usb_dc_py32.c.obj
 .comment       0x00000045       0x46 CMakeFiles/n7six.ApeX-k1.v7.6.5br1.dir/Middlewares/CherryUSB/class/cdc/usbd_cdc.c.obj

.debug_line_str
                0x00000000      0x1ae
 .debug_line_str
                0x00000000      0x1ae /opt/toolchain/bin/../lib/gcc/arm-none-eabi/13.3.1/thumb/v6-m/nofp/libgcc.a(_thumb1_case_sqi.o)
                                 0xc2 (size before relaxing)
 .debug_line_str
                0x000001ae       0xc2 /opt/toolchain/bin/../lib/gcc/arm-none-eabi/13.3.1/thumb/v6-m/nofp/libgcc.a(_thumb1_case_uqi.o)
 .debug_line_str
                0x000001ae       0xc2 /opt/toolchain/bin/../lib/gcc/arm-none-eabi/13.3.1/thumb/v6-m/nofp/libgcc.a(_thumb1_case_shi.o)
 .debug_line_str
                0x000001ae       0xc2 /opt/toolchain/bin/../lib/gcc/arm-none-eabi/13.3.1/thumb/v6-m/nofp/libgcc.a(_thumb1_case_uhi.o)
 .debug_line_str
                0x000001ae       0xc2 /opt/toolchain/bin/../lib/gcc/arm-none-eabi/13.3.1/thumb/v6-m/nofp/libgcc.a(_udivsi3.o)
 .debug_line_str
                0x000001ae       0xc2 /opt/toolchain/bin/../lib/gcc/arm-none-eabi/13.3.1/thumb/v6-m/nofp/libgcc.a(_divsi3.o)
 .debug_line_str
                0x000001ae       0xc2 /opt/toolchain/bin/../lib/gcc/arm-none-eabi/13.3.1/thumb/v6-m/nofp/libgcc.a(_dvmd_tls.o)
 .debug_line_str
                0x000001ae       0xc2 /opt/toolchain/bin/../lib/gcc/arm-none-eabi/13.3.1/thumb/v6-m/nofp/libgcc.a(_clzsi2.o)
 .debug_line_str
                0x000001ae       0xc2 /opt/toolchain/bin/../lib/gcc/arm-none-eabi/13.3.1/thumb/v6-m/nofp/libgcc.a(_arm_cmpsf2.o)
 .debug_line_str
                0x000001ae       0xe0 /opt/toolchain/bin/../lib/gcc/arm-none-eabi/13.3.1/../../../../arm-none-eabi/lib/thumb/v6-m/nofp/libg_nano.a(libc_a-strlen.o)

.debug_frame    0x00000000      0x324
 .debug_frame   0x00000000       0x20 /opt/toolchain/bin/../lib/gcc/arm-none-eabi/13.3.1/thumb/v6-m/nofp/libgcc.a(_udivsi3.o)
 .debug_frame   0x00000020       0x20 /opt/toolchain/bin/../lib/gcc/arm-none-eabi/13.3.1/thumb/v6-m/nofp/libgcc.a(_divsi3.o)
 .debug_frame   0x00000040       0x34 /opt/toolchain/bin/../lib/gcc/arm-none-eabi/13.3.1/thumb/v6-m/nofp/libgcc.a(_muldi3.o)
 .debug_frame   0x00000074       0x28 /opt/toolchain/bin/../lib/gcc/arm-none-eabi/13.3.1/thumb/v6-m/nofp/libgcc.a(_fixunssfsi.o)
 .debug_frame   0x0000009c       0x34 /opt/toolchain/bin/../lib/gcc/arm-none-eabi/13.3.1/thumb/v6-m/nofp/libgcc.a(addsf3.o)
 .debug_frame   0x000000d0       0x38 /opt/toolchain/bin/../lib/gcc/arm-none-eabi/13.3.1/thumb/v6-m/nofp/libgcc.a(mulsf3.o)
 .debug_frame   0x00000108       0x38 /opt/toolchain/bin/../lib/gcc/arm-none-eabi/13.3.1/thumb/v6-m/nofp/libgcc.a(subsf3.o)
 .debug_frame   0x00000140       0x20 /opt/toolchain/bin/../lib/gcc/arm-none-eabi/13.3.1/thumb/v6-m/nofp/libgcc.a(fixsfsi.o)
 .debug_frame   0x00000160       0x2c /opt/toolchain/bin/../lib/gcc/arm-none-eabi/13.3.1/thumb/v6-m/nofp/libgcc.a(floatsisf.o)
 .debug_frame   0x0000018c       0x2c /opt/toolchain/bin/../lib/gcc/arm-none-eabi/13.3.1/thumb/v6-m/nofp/libgcc.a(eqsf2.o)
 .debug_frame   0x000001b8       0x2c /opt/toolchain/bin/../lib/gcc/arm-none-eabi/13.3.1/thumb/v6-m/nofp/libgcc.a(gesf2.o)
 .debug_frame   0x000001e4       0x2c /opt/toolchain/bin/../lib/gcc/arm-none-eabi/13.3.1/thumb/v6-m/nofp/libgcc.a(lesf2.o)
 .debug_frame   0x00000210       0x2c /opt/toolchain/bin/../lib/gcc/arm-none-eabi/13.3.1/../../../../arm-none-eabi/lib/thumb/v6-m/nofp/libg_nano.a(libc_a-init.o)
 .debug_frame   0x0000023c       0x28 /opt/toolchain/bin/../lib/gcc/arm-none-eabi/13.3.1/../../../../arm-none-eabi/lib/thumb/v6-m/nofp/libg_nano.a(libc_a-memmove.o)
 .debug_frame   0x00000264       0x20 /opt/toolchain/bin/../lib/gcc/arm-none-eabi/13.3.1/../../../../arm-none-eabi/lib/thumb/v6-m/nofp/libg_nano.a(libc_a-memset.o)
 .debug_frame   0x00000284       0x28 /opt/toolchain/bin/../lib/gcc/arm-none-eabi/13.3.1/../../../../arm-none-eabi/lib/thumb/v6-m/nofp/libg_nano.a(libc_a-memcpy-stub.o)
 .debug_frame   0x000002ac       0x2c /opt/toolchain/bin/../lib/gcc/arm-none-eabi/13.3.1/../../../../arm-none-eabi/lib/thumb/v6-m/nofp/libg_nano.a(libc_a-strncpy.o)
 .debug_frame   0x000002d8       0x20 /opt/toolchain/bin/../lib/gcc/arm-none-eabi/13.3.1/../../../../arm-none-eabi/lib/thumb/v6-m/nofp/libg_nano.a(libc_a-strnlen.o)
 .debug_frame   0x000002f8       0x2c /opt/toolchain/bin/../lib/gcc/arm-none-eabi/13.3.1/../../../../arm-none-eabi/lib/thumb/v6-m/nofp/libg_nano.a(libc_a-memcmp.o)
